	.cpu cortex-a9
	.fpu softvfp
	.eabi_attribute 20, 1
	.eabi_attribute 21, 1
	.eabi_attribute 23, 3
	.eabi_attribute 24, 1
	.eabi_attribute 25, 1
	.eabi_attribute 26, 2
	.eabi_attribute 30, 2
	.eabi_attribute 34, 1
	.eabi_attribute 18, 4
	.file	"capn-malloc.c"
	.text
.Ltext0:
	.cfi_sections	.debug_frame
	.align	2
	.syntax unified
	.arm
	.type	create, %function
create:
	.fnstart
.LFB17:
	.file 1 "/home/mint/seL4/dhs-demo-feb-2018/apps/web/src/capn-malloc.c"
	.loc 1 36 0
	.cfi_startproc
	@ args = 0, pretend = 0, frame = 0
	@ frame_needed = 0, uses_anonymous_args = 0
.LVL0:
	.loc 1 38 0
	add	r2, r2, #48
.LVL1:
	.loc 1 36 0
	push	{r4, lr}
	.save {r4, lr}
	.cfi_def_cfa_offset 8
	.cfi_offset 4, -8
	.cfi_offset 14, -4
	.loc 1 39 0
	cmp	r2, #4096
	.loc 1 44 0
	mov	r0, #1
.LVL2:
	.loc 1 42 0
	addge	r1, r2, #4080
.LVL3:
	movlt	r1, #4096
	addge	r1, r1, #15
.LVL4:
	movlt	r4, #4048
	bicge	r1, r1, #4080
	bicge	r1, r1, #15
	subge	r4, r1, #48
	.loc 1 44 0
	bl	calloc
.LVL5:
	mov	r3, r0
.LVL6:
	.loc 1 45 0
	add	r2, r0, #48
	.loc 1 46 0
	str	r4, [r0, #36]
	.loc 1 47 0
	str	r0, [r3, #40]
	.loc 1 45 0
	str	r2, [r0, #28]
	.loc 1 49 0
	pop	{r4, pc}
	.cfi_endproc
.LFE17:
	.fnend
	.size	create, .-create
	.align	2
	.syntax unified
	.arm
	.type	create_local, %function
create_local:
	.fnstart
.LFB18:
	.loc 1 51 0
	.cfi_startproc
	@ args = 0, pretend = 0, frame = 0
	@ frame_needed = 0, uses_anonymous_args = 0
	@ link register save eliminated.
.LVL7:
	.loc 1 52 0
	mov	r2, r1
	mov	r1, #0
.LVL8:
	b	create
.LVL9:
	.cfi_endproc
.LFE18:
	.fnend
	.size	create_local, .-create_local
	.align	2
	.syntax unified
	.arm
	.type	read_fp, %function
read_fp:
	.fnstart
.LFB22:
	.loc 1 84 0
	.cfi_startproc
	@ args = 8, pretend = 0, frame = 0
	@ frame_needed = 0, uses_anonymous_args = 0
.LVL10:
	push	{r4, r5, r6, r7, r8, lr}
	.save {r4, r5, r6, r7, r8, lr}
	.cfi_def_cfa_offset 24
	.cfi_offset 4, -24
	.cfi_offset 5, -20
	.cfi_offset 6, -16
	.cfi_offset 7, -12
	.cfi_offset 8, -8
	.cfi_offset 14, -4
	.loc 1 85 0
	adds	ip, r2, #0
	.loc 1 84 0
	ldr	r7, [sp, #28]
	.loc 1 85 0
	movne	ip, #1
	.loc 1 84 0
	mov	r4, r3
	.loc 1 85 0
	mov	r6, r2
	.loc 1 84 0
	mov	r8, r1
	ldr	r5, [sp, #24]
	.loc 1 85 0
	cmp	r7, #0
	cmpne	r2, #0
	beq	.L8
	.loc 1 89 0
	cmp	r1, #0
	.loc 1 86 0
	str	r0, [r4, #8]
	.loc 1 87 0
	str	r1, [r4, #12]
	.loc 1 89 0
	bne	.L20
.LVL11:
.L12:
	.loc 1 97 0
	mov	r0, #0
	pop	{r4, r5, r6, r7, r8, pc}
.L13:
.LBB25:
	.loc 1 91 0
	ldm	r4, {r1, r2}
	bl	memmove
.LVL12:
	.loc 1 92 0
	ldr	r0, [r4, #4]
	mov	r3, r6
	mov	r1, #1
	rsb	r2, r0, #4096
	add	r0, r5, r0
	bl	fread
.LVL13:
	.loc 1 93 0
	cmp	r0, #0
	ble	.L16
.LBE25:
	.loc 1 89 0
	ldr	r2, [r4, #12]
.LBB26:
	.loc 1 95 0
	ldr	r3, [r4, #4]
.LBE26:
	.loc 1 89 0
	cmp	r2, #0
.LBB27:
	.loc 1 95 0
	add	r0, r3, r0
.LVL14:
	str	r0, [r4, #4]
.LBE27:
	.loc 1 89 0
	beq	.L12
.L20:
	.loc 1 89 0 is_stmt 0 discriminator 1
	mov	r0, r4
	bl	capn_inflate
.LVL15:
	cmn	r0, #2
.LBB28:
	.loc 1 91 0 is_stmt 1 discriminator 1
	mov	r0, r5
.LBE28:
	.loc 1 89 0 discriminator 1
	beq	.L13
	b	.L12
.LVL16:
.L8:
	.loc 1 99 0
	cmp	r7, #0
	movne	ip, #0
	andeq	ip, ip, #1
	cmp	ip, #0
	bne	.L22
	.loc 1 102 0
	cmp	r7, #0
	bne	.L23
	.loc 1 108 0
	ldr	r3, [r4, #4]
.LVL17:
	cmp	r1, r3
	bhi	.L16
	.loc 1 110 0
	mov	r2, r1
.LVL18:
	ldr	r1, [r4]
.LVL19:
	bl	memcpy
.LVL20:
	.loc 1 111 0
	ldr	r2, [r4]
	.loc 1 113 0
	mov	r0, r7
	.loc 1 112 0
	ldr	r3, [r4, #4]
	.loc 1 111 0
	add	r2, r2, r8
	.loc 1 112 0
	sub	r8, r3, r8
.LVL21:
	stm	r4, {r2, r8}
	.loc 1 115 0
	pop	{r4, r5, r6, r7, r8, pc}
.LVL22:
.L22:
	.loc 1 100 0
	mov	r3, r2
.LVL23:
	mov	r2, #1
.LVL24:
	bl	fread
.LVL25:
	subs	r0, r0, #1
	movne	r0, #1
	pop	{r4, r5, r6, r7, r8, pc}
.L16:
.LBB29:
	.loc 1 94 0
	mvn	r0, #0
	pop	{r4, r5, r6, r7, r8, pc}
.LVL26:
.L23:
.LBE29:
	.loc 1 103 0
	str	r0, [r4, #8]
	.loc 1 105 0
	mov	r0, r4
.LVL27:
	.loc 1 104 0
	str	r1, [r4, #12]
	.loc 1 105 0
	bl	capn_inflate
.LVL28:
	adds	r0, r0, #0
	movne	r0, #1
	pop	{r4, r5, r6, r7, r8, pc}
	.cfi_endproc
.LFE22:
	.fnend
	.size	read_fp, .-read_fp
	.align	2
	.syntax unified
	.arm
	.type	init_fp, %function
init_fp:
	.fnstart
.LFB23:
	.loc 1 117 0
	.cfi_startproc
	@ args = 0, pretend = 0, frame = 8208
	@ frame_needed = 0, uses_anonymous_args = 0
.LVL29:
	push	{r4, r5, r6, r7, r8, r9, r10, fp, lr}
	.save {r4, r5, r6, r7, r8, r9, r10, fp, lr}
	.cfi_def_cfa_offset 36
	.cfi_offset 4, -36
	.cfi_offset 5, -32
	.cfi_offset 6, -28
	.cfi_offset 7, -24
	.cfi_offset 8, -20
	.cfi_offset 9, -16
	.cfi_offset 10, -12
	.cfi_offset 11, -8
	.cfi_offset 14, -4
	.pad #8192
	sub	sp, sp, #8192
	.cfi_def_cfa_offset 8228
	.pad #28
	sub	sp, sp, #28
	.cfi_def_cfa_offset 8256
	.loc 1 117 0
	mov	r8, r1
	mov	r9, r2
.LBB30:
.LBB31:
	.loc 1 56 0
	mov	r1, #0
.LVL30:
	mov	r2, #40
.LVL31:
.LBE31:
.LBE30:
	.loc 1 117 0
	mov	fp, r3
	mov	r6, r0
.LVL32:
	.loc 1 138 0
	add	r10, sp, #4096
.LBB35:
.LBB32:
	.loc 1 56 0
	bl	memset
.LVL33:
	.loc 1 57 0
	movw	r2, #:lower16:create
	.loc 1 58 0
	movw	r1, #:lower16:create_local
	.loc 1 57 0
	movt	r2, #:upper16:create
	.loc 1 58 0
	movt	r1, #:upper16:create_local
.LBE32:
.LBE35:
	.loc 1 138 0
	add	r5, sp, #24
	add	r10, r10, #24
	str	fp, [sp, #4]
	mov	r3, r9
.LBB36:
.LBB33:
	.loc 1 57 0
	str	r2, [r6, #4]
.LBE33:
.LBE36:
	.loc 1 138 0
	sub	r0, r5, #4
.LBB37:
.LBB34:
	.loc 1 58 0
	str	r1, [r6, #8]
.LVL34:
.LBE34:
.LBE37:
	.loc 1 138 0
	mov	r2, r8
	str	r10, [sp]
	mov	r1, #4
	bl	read_fp
.LVL35:
	cmp	r0, #0
	bne	.L25
	.loc 1 141 0
	ldr	r3, [r5, #-4]
	.loc 1 142 0
	cmp	r3, #1024
	bcs	.L25
	.loc 1 144 0
	add	r2, r3, #1
	.loc 1 147 0
	str	fp, [sp, #4]
	lsr	r1, r2, #1
	str	r10, [sp]
	mov	r3, r9
	.loc 1 144 0
	str	r2, [r5, #-4]
	.loc 1 147 0
	lsl	r1, r1, #3
	mov	r2, r8
	mov	r0, r5
	add	r1, r1, #4
	bl	read_fp
.LVL36:
	cmp	r0, #0
	bne	.L25
.LVL37:
	.loc 1 150 0 discriminator 1
	ldr	r1, [r5, #-4]
	cmp	r1, #0
	beq	.L33
.LBB38:
	.loc 1 151 0
	ldr	r3, [r5]
	.loc 1 152 0
	cmn	r3, #-268435455
	bhi	.L25
	mov	r7, r0
	mov	r2, r0
	lsl	r3, r3, #3
	mov	r0, r5
	b	.L27
.LVL38:
.L28:
	.loc 1 151 0
	ldr	r3, [r0]
	.loc 1 152 0
	cmn	r3, #-268435455
	lsl	r3, r3, #3
	bhi	.L25
	.loc 1 152 0 is_stmt 0 discriminator 1
	cmp	ip, r3
	bcc	.L25
.LVL39:
.L27:
.LBE38:
	.loc 1 150 0 is_stmt 1 discriminator 2
	add	r2, r2, #1
.LVL40:
.LBB39:
	.loc 1 155 0 discriminator 2
	add	r7, r7, r3
.LVL41:
.LBE39:
	.loc 1 150 0 discriminator 2
	cmp	r2, r1
.LBB40:
	.loc 1 154 0 discriminator 2
	str	r3, [r0], #4
	.loc 1 152 0 discriminator 2
	mvn	ip, r7
.LBE40:
	.loc 1 150 0 discriminator 2
	bne	.L28
	add	r1, r1, r1, lsl #1
	lsl	r4, r1, #4
	add	r1, r4, r7
.LVL42:
.L26:
	.loc 1 159 0
	mov	r0, #1
	bl	calloc
.LVL43:
	.loc 1 160 0
	subs	r3, r0, #0
	str	r3, [sp, #12]
	beq	.L25
	.loc 1 164 0
	add	r4, r3, r4
.LVL44:
	.loc 1 165 0
	stm	sp, {r10, fp}
	mov	r3, r9
	mov	r2, r8
	mov	r1, r7
	mov	r0, r4
.LVL45:
	bl	read_fp
.LVL46:
	subs	r9, r0, #0
.LVL47:
	bne	.L29
.LVL48:
	.loc 1 168 0 discriminator 1
	ldr	r3, [r5, #-4]
	cmp	r3, #0
	beq	.L34
	ldr	r7, [sp, #12]
	.loc 1 168 0 is_stmt 0 discriminator 3
	mov	r8, r9
.LVL49:
.L31:
	.loc 1 169 0 is_stmt 1 discriminator 3
	ldr	r3, [r5, r8, lsl #2]
	.loc 1 172 0 discriminator 3
	mov	r1, r7
	.loc 1 170 0 discriminator 3
	str	r4, [r7, #28]
	.loc 1 172 0 discriminator 3
	mov	r0, r6
	.loc 1 168 0 discriminator 3
	add	r8, r8, #1
.LVL50:
	add	r7, r7, #48
	.loc 1 169 0 discriminator 3
	str	r3, [r7, #-12]
	.loc 1 171 0 discriminator 3
	add	r4, r4, r3
.LVL51:
	.loc 1 169 0 discriminator 3
	str	r3, [r7, #-16]
	.loc 1 172 0 discriminator 3
	bl	capn_append_segment
.LVL52:
	.loc 1 168 0 discriminator 3
	ldr	r3, [r5, #-4]
	cmp	r3, r8
	bhi	.L31
	add	r3, r3, r3, lsl #1
	lsl	r3, r3, #4
	sub	r3, r3, #48
.LVL53:
.L30:
	.loc 1 176 0
	ldr	r2, [sp, #12]
	.loc 1 184 0
	mov	r0, r9
	.loc 1 176 0
	add	r3, r2, r3
	str	r2, [r3, #40]
	.loc 1 184 0
	add	sp, sp, #8192
	add	sp, sp, #28
	.cfi_remember_state
	.cfi_def_cfa_offset 36
	@ sp needed
	pop	{r4, r5, r6, r7, r8, r9, r10, fp, pc}
.LVL54:
.L25:
	.cfi_restore_state
	.loc 1 129 0
	mov	r3, #0
	str	r3, [sp, #12]
.LVL55:
.L29:
	.loc 1 181 0
	mov	r2, #40
	mov	r1, #0
	mov	r0, r6
	.loc 1 183 0
	mvn	r9, #0
	.loc 1 181 0
	bl	memset
.LVL56:
	.loc 1 182 0
	ldr	r0, [sp, #12]
	bl	free
.LVL57:
	.loc 1 184 0
	mov	r0, r9
	add	sp, sp, #8192
	add	sp, sp, #28
	.cfi_remember_state
	.cfi_def_cfa_offset 36
	@ sp needed
	pop	{r4, r5, r6, r7, r8, r9, r10, fp, pc}
.LVL58:
.L33:
	.cfi_restore_state
	.loc 1 150 0
	mov	r4, r1
	mov	r7, r1
	b	.L26
.LVL59:
.L34:
	.loc 1 168 0
	mvn	r3, #47
	b	.L30
	.cfi_endproc
.LFE23:
	.fnend
	.size	init_fp, .-init_fp
	.align	2
	.syntax unified
	.arm
	.type	_write_fd, %function
_write_fd:
	.fnstart
.LFB30:
	.loc 1 317 0
	.cfi_startproc
	@ args = 0, pretend = 0, frame = 0
	@ frame_needed = 0, uses_anonymous_args = 0
.LVL60:
	.loc 1 321 0
	cmp	r3, #0
	beq	.L52
	.loc 1 317 0
	push	{r4, r5, r6, r7, r8, lr}
	.save {r4, r5, r6, r7, r8, lr}
	.cfi_def_cfa_offset 24
	.cfi_offset 4, -24
	.cfi_offset 5, -20
	.cfi_offset 6, -16
	.cfi_offset 7, -12
	.cfi_offset 8, -8
	.cfi_offset 14, -4
	mov	r8, r2
	mov	r7, r1
	mov	r6, r0
	mov	r5, r3
	.loc 1 321 0
	mov	r4, #0
	b	.L45
.LVL61:
.L44:
	cmp	r4, r5
	bcs	.L53
.LVL62:
.L45:
	.loc 1 322 0
	sub	r2, r5, r4
	add	r1, r8, r4
	mov	r0, r7
	blx	r6
.LVL63:
	.loc 1 323 0
	cmp	r0, #0
	.loc 1 329 0
	addge	r4, r4, r0
.LVL64:
	.loc 1 323 0
	bge	.L44
	.loc 1 324 0
	bl	__errno_location
.LVL65:
	ldr	r3, [r0]
	cmp	r3, #4
	cmpne	r3, #11
	beq	.L44
	.loc 1 327 0
	mvn	r0, #0
	pop	{r4, r5, r6, r7, r8, pc}
.LVL66:
.L53:
	.loc 1 332 0
	mov	r0, #0
	pop	{r4, r5, r6, r7, r8, pc}
.LVL67:
.L52:
	.cfi_def_cfa_offset 0
	.cfi_restore 4
	.cfi_restore 5
	.cfi_restore 6
	.cfi_restore 7
	.cfi_restore 8
	.cfi_restore 14
	mov	r0, #0
.LVL68:
	.loc 1 333 0
	bx	lr
	.cfi_endproc
.LFE30:
	.fnend
	.size	_write_fd, .-_write_fd
	.align	2
	.syntax unified
	.arm
	.type	header_render.isra.1, %function
header_render.isra.1:
	.fnstart
.LFB33:
	.loc 1 215 0
	.cfi_startproc
	@ args = 4, pretend = 0, frame = 0
	@ frame_needed = 0, uses_anonymous_args = 0
.LVL69:
	push	{r4, lr}
	.save {r4, lr}
	.cfi_def_cfa_offset 8
	.cfi_offset 4, -8
	.cfi_offset 14, -4
	.loc 1 220 0
	sub	r3, r3, #-1073741823
.LVL70:
	.loc 1 219 0
	ldr	r4, [r0]
	.loc 1 220 0
	mov	ip, #0
	.loc 1 215 0
	ldr	lr, [sp, #8]
	.loc 1 219 0
	sub	r4, r4, #1
	str	r4, [r2]
	.loc 1 220 0
	str	ip, [r2, r3, lsl #2]
.LVL71:
	.loc 1 221 0
	ldr	r3, [r0]
.LVL72:
	cmp	r3, ip
	beq	.L55
	.loc 1 222 0
	cmp	r1, ip
	bne	.L57
	b	.L56
.LVL73:
.L59:
	cmp	r1, #0
	beq	.L56
.LVL74:
.L57:
	.loc 1 224 0
	ldr	r4, [r1, #32]
	.loc 1 225 0
	add	ip, ip, #1
.LVL75:
	.loc 1 224 0
	ldr	r3, [lr]
	add	r3, r3, r4
	str	r3, [lr]
	.loc 1 225 0
	ldr	r3, [r1, #32]
	.loc 1 221 0
	ldr	r1, [r1, #16]
.LVL76:
	.loc 1 225 0
	lsr	r3, r3, #3
	str	r3, [r2, #4]!
.LVL77:
	.loc 1 221 0
	ldr	r3, [r0]
	cmp	ip, r3
	bcc	.L59
.LVL78:
.L55:
	.loc 1 227 0
	adds	r1, r1, #0
	movne	r1, #1
.LVL79:
	rsb	r0, r1, #0
	.loc 1 231 0
	pop	{r4, pc}
.LVL80:
.L56:
	.loc 1 223 0
	mvn	r0, #0
	pop	{r4, pc}
	.cfi_endproc
.LFE33:
	.fnend
	.size	header_render.isra.1, .-header_render.isra.1
	.align	2
	.global	capn_init_malloc
	.syntax unified
	.arm
	.type	capn_init_malloc, %function
capn_init_malloc:
	.fnstart
.LFB19:
	.loc 1 55 0
	.cfi_startproc
	@ args = 0, pretend = 0, frame = 0
	@ frame_needed = 0, uses_anonymous_args = 0
.LVL81:
	push	{r4, lr}
	.save {r4, lr}
	.cfi_def_cfa_offset 8
	.cfi_offset 4, -8
	.cfi_offset 14, -4
	.loc 1 56 0
	mov	r2, #40
	mov	r1, #0
	.loc 1 55 0
	mov	r4, r0
	.loc 1 56 0
	bl	memset
.LVL82:
	.loc 1 57 0
	movw	r2, #:lower16:create
	.loc 1 58 0
	movw	r3, #:lower16:create_local
	.loc 1 57 0
	movt	r2, #:upper16:create
	.loc 1 58 0
	movt	r3, #:upper16:create_local
	stmib	r4, {r2, r3}
	pop	{r4, pc}
	.cfi_endproc
.LFE19:
	.fnend
	.size	capn_init_malloc, .-capn_init_malloc
	.align	2
	.global	capn_free
	.syntax unified
	.arm
	.type	capn_free, %function
capn_free:
	.fnstart
.LFB20:
	.loc 1 61 0
	.cfi_startproc
	@ args = 0, pretend = 0, frame = 0
	@ frame_needed = 0, uses_anonymous_args = 0
.LVL83:
	.loc 1 62 0
	ldr	r3, [r0, #28]
.LVL84:
	.loc 1 61 0
	push	{r4, r5, r6, lr}
	.save {r4, r5, r6, lr}
	.cfi_def_cfa_offset 16
	.cfi_offset 4, -16
	.cfi_offset 5, -12
	.cfi_offset 6, -8
	.cfi_offset 14, -4
	.loc 1 61 0
	mov	r5, r0
	.loc 1 63 0
	cmp	r3, #0
	beq	.L77
.LVL85:
.L76:
.LBB41:
	.loc 1 64 0
	ldr	r4, [r3, #16]
.LVL86:
	.loc 1 65 0
	ldr	r0, [r3, #40]
	bl	free
.LVL87:
.LBE41:
	.loc 1 63 0
	subs	r3, r4, #0
	bne	.L76
.LVL88:
.L77:
.LBB42:
.LBB43:
	.loc 1 72 0
	ldr	r3, [r5, #36]
.LVL89:
	.loc 1 73 0
	cmp	r3, #0
	beq	.L75
.L78:
.LBB44:
	.loc 1 74 0
	ldr	r4, [r3, #16]
.LVL90:
	.loc 1 75 0
	ldr	r0, [r3, #40]
	bl	free
.LVL91:
.LBE44:
	.loc 1 73 0
	subs	r3, r4, #0
	bne	.L78
.LVL92:
.L75:
	.loc 1 78 0
	mov	r3, #0
.LVL93:
	str	r3, [r5, #20]
	.loc 1 79 0
	str	r3, [r5, #36]
.LVL94:
.LBE43:
.LBE42:
	.loc 1 69 0
	pop	{r4, r5, r6, pc}
	.cfi_endproc
.LFE20:
	.fnend
	.size	capn_free, .-capn_free
	.align	2
	.global	capn_reset_copy
	.syntax unified
	.arm
	.type	capn_reset_copy, %function
capn_reset_copy:
	.fnstart
.LFB21:
	.loc 1 71 0
	.cfi_startproc
	@ args = 0, pretend = 0, frame = 0
	@ frame_needed = 0, uses_anonymous_args = 0
.LVL95:
	.loc 1 72 0
	ldr	r3, [r0, #36]
.LVL96:
	.loc 1 71 0
	push	{r4, r5, r6, lr}
	.save {r4, r5, r6, lr}
	.cfi_def_cfa_offset 16
	.cfi_offset 4, -16
	.cfi_offset 5, -12
	.cfi_offset 6, -8
	.cfi_offset 14, -4
	.loc 1 71 0
	mov	r5, r0
	.loc 1 73 0
	cmp	r3, #0
	beq	.L86
.LVL97:
.L85:
.LBB45:
	.loc 1 74 0
	ldr	r4, [r3, #16]
.LVL98:
	.loc 1 75 0
	ldr	r0, [r3, #40]
	bl	free
.LVL99:
.LBE45:
	.loc 1 73 0
	subs	r3, r4, #0
	bne	.L85
.LVL100:
.L86:
	.loc 1 78 0
	mov	r3, #0
.LVL101:
	str	r3, [r5, #20]
	.loc 1 79 0
	str	r3, [r5, #36]
	.loc 1 80 0
	pop	{r4, r5, r6, pc}
	.cfi_endproc
.LFE21:
	.fnend
	.size	capn_reset_copy, .-capn_reset_copy
	.align	2
	.global	capn_init_fp
	.syntax unified
	.arm
	.type	capn_init_fp, %function
capn_init_fp:
	.fnstart
.LFB24:
	.loc 1 186 0
	.cfi_startproc
	@ args = 0, pretend = 0, frame = 40
	@ frame_needed = 0, uses_anonymous_args = 0
.LVL102:
	push	{r4, r5, r6, lr}
	.save {r4, r5, r6, lr}
	.cfi_def_cfa_offset 16
	.cfi_offset 4, -16
	.cfi_offset 5, -12
	.cfi_offset 6, -8
	.cfi_offset 14, -4
	.pad #40
	sub	sp, sp, #40
	.cfi_def_cfa_offset 56
	.loc 1 186 0
	mov	r4, r0
	mov	r5, r1
	mov	r6, r2
	.loc 1 188 0
	add	r0, sp, #4
.LVL103:
	mov	r2, #36
.LVL104:
	mov	r1, #0
.LVL105:
	bl	memset
.LVL106:
	.loc 1 189 0
	mov	r3, r6
	add	r2, sp, #4
	mov	r1, r5
	mov	r0, r4
	bl	init_fp
.LVL107:
	.loc 1 190 0
	add	sp, sp, #40
	.cfi_def_cfa_offset 16
	@ sp needed
	pop	{r4, r5, r6, pc}
	.cfi_endproc
.LFE24:
	.fnend
	.size	capn_init_fp, .-capn_init_fp
	.align	2
	.global	capn_init_mem
	.syntax unified
	.arm
	.type	capn_init_mem, %function
capn_init_mem:
	.fnstart
.LFB25:
	.loc 1 192 0
	.cfi_startproc
	@ args = 0, pretend = 0, frame = 40
	@ frame_needed = 0, uses_anonymous_args = 0
.LVL108:
	push	{r4, r5, r6, r7, lr}
	.save {r4, r5, r6, r7, lr}
	.cfi_def_cfa_offset 20
	.cfi_offset 4, -20
	.cfi_offset 5, -16
	.cfi_offset 6, -12
	.cfi_offset 7, -8
	.cfi_offset 14, -4
	.pad #44
	sub	sp, sp, #44
	.cfi_def_cfa_offset 64
	.loc 1 192 0
	mov	r6, r0
	mov	r5, r1
	mov	r4, r2
	mov	r7, r3
	.loc 1 194 0
	add	r0, sp, #4
.LVL109:
	mov	r2, #36
.LVL110:
	mov	r1, #0
.LVL111:
	bl	memset
.LVL112:
	.loc 1 197 0
	mov	r3, r7
	add	r2, sp, #4
	mov	r0, r6
	mov	r1, #0
	.loc 1 195 0
	str	r5, [sp, #4]
	.loc 1 196 0
	str	r4, [sp, #8]
	.loc 1 197 0
	bl	init_fp
.LVL113:
	.loc 1 198 0
	add	sp, sp, #44
	.cfi_def_cfa_offset 20
	@ sp needed
	pop	{r4, r5, r6, r7, pc}
	.cfi_endproc
.LFE25:
	.fnend
	.size	capn_init_mem, .-capn_init_mem
	.align	2
	.global	capn_write_mem
	.syntax unified
	.arm
	.type	capn_write_mem, %function
capn_write_mem:
	.fnstart
.LFB29:
	.loc 1 278 0
	.cfi_startproc
	@ args = 0, pretend = 0, frame = 64
	@ frame_needed = 0, uses_anonymous_args = 0
.LVL114:
	push	{r4, r5, r6, r7, r8, r9, lr}
	.save {r4, r5, r6, r7, r8, r9, lr}
	.cfi_def_cfa_offset 28
	.cfi_offset 4, -28
	.cfi_offset 5, -24
	.cfi_offset 6, -20
	.cfi_offset 7, -16
	.cfi_offset 8, -12
	.cfi_offset 9, -8
	.cfi_offset 14, -4
	.loc 1 282 0
	mov	ip, #0
	.loc 1 286 0
	ldr	lr, [r0, #16]
	.loc 1 278 0
	.pad #76
	sub	sp, sp, #76
	.cfi_def_cfa_offset 104
	.loc 1 282 0
	str	ip, [sp, #8]
	.loc 1 286 0
	cmp	lr, ip
	beq	.L100
	.loc 1 289 0
	cmp	r3, #0
	mov	r5, r1
	mov	r7, r2
	mov	r6, r0
.LBB52:
.LBB53:
	.loc 1 243 0
	mov	r1, r0
.LVL115:
.LBE53:
.LBE52:
	.loc 1 289 0
	bne	.L113
	.loc 1 292 0
	add	r0, sp, #36
.LVL116:
	bl	capn_root
.LVL117:
.LBB60:
.LBB61:
	.loc 1 211 0
	ldr	r3, [r6, #16]
.LBE61:
.LBE60:
	.loc 1 292 0
	ldr	r4, [sp, #52]
.LVL118:
.LBB63:
.LBB62:
	.loc 1 211 0
	add	r3, r3, #2
	lsr	r3, r3, #1
	.loc 1 212 0
	lsl	r8, r3, #3
	.loc 1 211 0
	lsl	r3, r3, #1
.LVL119:
.LBE62:
.LBE63:
	.loc 1 296 0
	cmp	r7, r8
	bcc	.L100
	.loc 1 299 0
	add	r2, sp, #8
	add	r0, r6, #16
	str	r2, [sp]
	mov	r1, r4
	mov	r2, r5
	bl	header_render.isra.1
.LVL120:
	.loc 1 300 0
	cmp	r0, #0
	bne	.L100
	.loc 1 303 0
	ldr	r0, [sp, #8]
.LVL121:
	add	r6, r8, r0
.LVL122:
	cmp	r7, r6
	bcc	.L100
	.loc 1 308 0
	cmp	r4, #0
	.loc 1 306 0
	add	r3, r5, r8
.LVL123:
	.loc 1 308 0
	beq	.L107
.LVL124:
.L106:
	.loc 1 309 0 discriminator 3
	ldr	r2, [r4, #32]
	mov	r0, r3
	ldr	r1, [r4, #28]
	bl	memcpy
.LVL125:
	.loc 1 310 0 discriminator 3
	ldr	r2, [r4, #32]
	.loc 1 308 0 discriminator 3
	ldr	r4, [r4, #16]
.LVL126:
	.loc 1 310 0 discriminator 3
	add	r3, r0, r2
.LVL127:
	.loc 1 308 0 discriminator 3
	cmp	r4, #0
	bne	.L106
.L107:
	.loc 1 313 0
	mov	r0, r6
.LVL128:
.L96:
	.loc 1 314 0
	add	sp, sp, #76
	.cfi_remember_state
	.cfi_def_cfa_offset 28
	@ sp needed
	pop	{r4, r5, r6, r7, r8, r9, pc}
.LVL129:
.L100:
	.cfi_restore_state
.LBB64:
.LBB58:
	.loc 1 248 0
	mvn	r0, #0
.LBE58:
.LBE64:
	.loc 1 314 0
	add	sp, sp, #76
	.cfi_remember_state
	.cfi_def_cfa_offset 28
	@ sp needed
	pop	{r4, r5, r6, r7, r8, r9, pc}
.LVL130:
.L113:
	.cfi_restore_state
.LBB65:
.LBB59:
	.loc 1 243 0
	add	r0, sp, #16
.LVL131:
	.loc 1 238 0
	str	ip, [sp, #12]
	.loc 1 243 0
	bl	capn_root
.LVL132:
.LBB54:
.LBB55:
	.loc 1 211 0
	ldr	r3, [r6, #16]
.LBE55:
.LBE54:
	.loc 1 243 0
	ldr	r4, [sp, #32]
.LVL133:
.LBB57:
.LBB56:
	.loc 1 211 0
	add	r3, r3, #2
	lsr	r3, r3, #1
	.loc 1 212 0
	lsl	r9, r3, #3
	.loc 1 211 0
	lsl	r3, r3, #1
.LVL134:
.LBE56:
.LBE57:
	.loc 1 247 0
	add	r2, r9, #1
	.loc 1 245 0
	add	r8, r9, #2
	.loc 1 247 0
	cmp	r7, r2, lsl #1
	.loc 1 245 0
	add	r8, r5, r8
.LVL135:
	.loc 1 247 0
	bcc	.L100
	.loc 1 250 0
	add	r2, sp, #12
	mov	r1, r4
	str	r2, [sp]
	add	r0, r6, #16
	mov	r2, r8
	bl	header_render.isra.1
.LVL136:
	.loc 1 251 0
	subs	r1, r0, #0
	bne	.L100
	.loc 1 254 0
	mov	r2, #36
	add	r0, sp, #36
.LVL137:
	bl	memset
.LVL138:
	.loc 1 261 0
	add	r0, sp, #36
	.loc 1 255 0
	str	r8, [sp, #36]
	.loc 1 256 0
	str	r9, [sp, #40]
	.loc 1 257 0
	str	r5, [sp, #44]
	.loc 1 258 0
	str	r7, [sp, #48]
	.loc 1 261 0
	bl	capn_deflate
.LVL139:
	.loc 1 262 0
	cmp	r0, #0
	bne	.L100
	ldr	r3, [sp, #40]
	cmp	r3, #0
	beq	.L111
	b	.L100
.LVL140:
.L102:
	.loc 1 266 0
	ldr	r1, [r4, #28]
	.loc 1 268 0
	add	r0, sp, #36
.LVL141:
	.loc 1 267 0
	ldr	r3, [r4, #32]
	.loc 1 266 0
	str	r1, [sp, #36]
	.loc 1 267 0
	str	r3, [sp, #40]
	.loc 1 268 0
	bl	capn_deflate
.LVL142:
	.loc 1 269 0
	cmp	r0, #0
	bne	.L100
	ldr	r3, [sp, #40]
	cmp	r3, #0
	bne	.L100
	.loc 1 265 0
	ldr	r4, [r4, #16]
.LVL143:
.L111:
	cmp	r4, #0
	bne	.L102
	.loc 1 273 0
	ldr	r0, [sp, #48]
.LVL144:
	sub	r0, r7, r0
	b	.L96
.LBE59:
.LBE65:
	.cfi_endproc
.LFE29:
	.fnend
	.size	capn_write_mem, .-capn_write_mem
	.align	2
	.global	capn_write_fd
	.syntax unified
	.arm
	.type	capn_write_fd, %function
capn_write_fd:
	.fnstart
.LFB31:
	.loc 1 336 0
	.cfi_startproc
	@ args = 0, pretend = 0, frame = 4160
	@ frame_needed = 0, uses_anonymous_args = 0
.LVL145:
	.loc 1 346 0
	ldr	ip, [r0, #16]
	.loc 1 336 0
	push	{r4, r5, r6, r7, r8, r9, r10, fp, lr}
	.save {r4, r5, r6, r7, r8, r9, r10, fp, lr}
	.cfi_def_cfa_offset 36
	.cfi_offset 4, -36
	.cfi_offset 5, -32
	.cfi_offset 6, -28
	.cfi_offset 7, -24
	.cfi_offset 8, -20
	.cfi_offset 9, -16
	.cfi_offset 10, -12
	.cfi_offset 11, -8
	.cfi_offset 14, -4
	.loc 1 341 0
	mov	lr, #0
	.loc 1 336 0
	.pad #4160
	sub	sp, sp, #4160
	.cfi_def_cfa_offset 4196
	.pad #12
	sub	sp, sp, #12
	.cfi_def_cfa_offset 4208
	.loc 1 346 0
	cmp	ip, lr
	.loc 1 341 0
	add	r6, sp, #72
	str	lr, [r6, #-60]
	.loc 1 346 0
	beq	.L117
	mov	r10, r0
	mov	r8, r1
	.loc 1 349 0
	mov	r1, r0
.LVL146:
	sub	r0, r6, #56
.LVL147:
	mov	r7, r3
	mov	r9, r2
	bl	capn_root
.LVL148:
.LBB66:
.LBB67:
	.loc 1 211 0
	ldr	r3, [r10, #16]
.LBE67:
.LBE66:
	.loc 1 349 0
	ldr	r5, [r6, #-40]
.LVL149:
.LBB69:
.LBB68:
	.loc 1 211 0
	add	r3, r3, #2
	lsr	r3, r3, #1
	.loc 1 212 0
	lsl	r4, r3, #3
	.loc 1 211 0
	lsl	r3, r3, #1
.LVL150:
.LBE68:
.LBE69:
	.loc 1 352 0
	cmp	r4, #4096
	bhi	.L117
	.loc 1 355 0
	sub	r2, r6, #60
	mov	r1, r5
	str	r2, [sp]
	add	r0, r10, #16
	mov	r2, r6
	bl	header_render.isra.1
.LVL151:
	.loc 1 356 0
	subs	r1, r0, #0
	bne	.L117
	.loc 1 359 0
	cmp	r7, #0
	beq	.L123
.LBB70:
	.loc 1 360 0
	rsb	r10, r4, #4096
.LVL152:
	.loc 1 362 0
	add	r3, r4, #2
.LVL153:
	cmp	r10, r3
	blt	.L117
	.loc 1 365 0
	mov	r2, #36
	add	r0, sp, #36
.LVL154:
	bl	memset
.LVL155:
	.loc 1 368 0
	add	fp, r6, r4
	.loc 1 370 0
	add	r0, sp, #36
	.loc 1 366 0
	str	r6, [r6, #-36]
	.loc 1 367 0
	str	r4, [r6, #-32]
	.loc 1 368 0
	str	fp, [r6, #-28]
	.loc 1 369 0
	str	r10, [r6, #-24]
	.loc 1 370 0
	bl	capn_deflate
.LVL156:
	.loc 1 371 0
	cmp	r0, #0
	bne	.L117
.LVL157:
	.loc 1 375 0
	ldr	r4, [r6, #-24]
.LVL158:
	sub	r4, r10, r4
.LVL159:
.L118:
.LBE70:
	.loc 1 380 0
	mov	r2, fp
	mov	r3, r4
	mov	r1, r9
	mov	r0, r8
.LVL160:
	bl	_write_fd
.LVL161:
	.loc 1 381 0
	cmp	r0, #0
	blt	.L117
	.loc 1 385 0
	cmp	r5, #0
	.loc 1 384 0
	str	r4, [r6, #-60]
.LVL162:
	.loc 1 385 0
	beq	.L119
.LBB71:
	.loc 1 388 0
	sub	r10, r6, #36
	b	.L122
.LVL163:
.L120:
	.loc 1 399 0
	ldr	r2, [r5, #28]
.LVL164:
	.loc 1 400 0
	ldr	r4, [r5, #32]
.LVL165:
.L121:
	.loc 1 402 0
	mov	r1, r9
	mov	r0, r8
	mov	r3, r4
	bl	_write_fd
.LVL166:
	.loc 1 403 0
	cmp	r0, #0
	blt	.L117
.LBE71:
	.loc 1 385 0 discriminator 2
	ldr	r5, [r5, #16]
.LVL167:
.LBB72:
	.loc 1 405 0 discriminator 2
	ldr	r0, [r6, #-60]
.LVL168:
.LBE72:
	.loc 1 385 0 discriminator 2
	cmp	r5, #0
.LBB73:
	.loc 1 405 0 discriminator 2
	add	r4, r4, r0
.LVL169:
	str	r4, [r6, #-60]
.LBE73:
	.loc 1 385 0 discriminator 2
	beq	.L119
.L122:
.LBB74:
	.loc 1 387 0
	cmp	r7, #0
	beq	.L120
	.loc 1 388 0
	mov	r2, #36
	mov	r1, #0
	mov	r0, r10
	bl	memset
.LVL170:
	.loc 1 390 0
	ldr	r2, [r5, #32]
	.loc 1 392 0
	mov	r3, #4096
	.loc 1 389 0
	ldr	r1, [r5, #28]
	.loc 1 393 0
	mov	r0, r10
	.loc 1 391 0
	str	r6, [r6, #-28]
	.loc 1 390 0
	str	r2, [r6, #-32]
	.loc 1 389 0
	str	r1, [r6, #-36]
	.loc 1 392 0
	str	r3, [r6, #-24]
	.loc 1 393 0
	bl	capn_deflate
.LVL171:
	.loc 1 394 0
	cmp	r0, #0
	.loc 1 396 0
	mov	r2, r6
	.loc 1 394 0
.LVL172:
	.loc 1 397 0
	ldreq	r4, [r6, #-24]
	rsbeq	r4, r4, #4096
.LVL173:
	beq	.L121
.LVL174:
.L117:
.LBE74:
	.loc 1 347 0
	mvn	r0, #0
	.loc 1 409 0
	add	sp, sp, #4160
	add	sp, sp, #12
	.cfi_remember_state
	.cfi_def_cfa_offset 36
	@ sp needed
	pop	{r4, r5, r6, r7, r8, r9, r10, fp, pc}
.LVL175:
.L119:
	.cfi_restore_state
	.loc 1 408 0
	mov	r0, r4
.LVL176:
	.loc 1 409 0
	add	sp, sp, #4160
	add	sp, sp, #12
	.cfi_remember_state
	.cfi_def_cfa_offset 36
	@ sp needed
	pop	{r4, r5, r6, r7, r8, r9, r10, fp, pc}
.LVL177:
.L123:
	.cfi_restore_state
	.loc 1 377 0
	mov	fp, r6
	b	.L118
	.cfi_endproc
.LFE31:
	.fnend
	.size	capn_write_fd, .-capn_write_fd
.Letext0:
	.file 2 "/home/mint/seL4/dhs-demo-feb-2018/stage/arm/imx6/include/bits/alltypes.h"
	.file 3 "/home/mint/seL4/dhs-demo-feb-2018/apps/web/src/capnp_c.h"
	.file 4 "/home/mint/seL4/dhs-demo-feb-2018/apps/web/src/capnp_priv.h"
	.file 5 "/home/mint/seL4/dhs-demo-feb-2018/stage/arm/imx6/include/stdlib.h"
	.file 6 "/home/mint/seL4/dhs-demo-feb-2018/stage/arm/imx6/include/string.h"
	.file 7 "/home/mint/seL4/dhs-demo-feb-2018/stage/arm/imx6/include/stdio.h"
	.file 8 "/home/mint/seL4/dhs-demo-feb-2018/stage/arm/imx6/include/errno.h"
	.section	.note.GNU-stack,"",%progbits
