	.cpu cortex-a9
	.fpu softvfp
	.eabi_attribute 20, 1
	.eabi_attribute 21, 1
	.eabi_attribute 23, 3
	.eabi_attribute 24, 1
	.eabi_attribute 25, 1
	.eabi_attribute 26, 2
	.eabi_attribute 30, 2
	.eabi_attribute 34, 1
	.eabi_attribute 18, 4
	.file	"main.c"
	.text
.Ltext0:
	.cfi_sections	.debug_frame
	.align	2
	.global	decode_ip
	.syntax unified
	.arm
	.type	decode_ip, %function
decode_ip:
	.fnstart
.LFB136:
	.file 1 "/home/mint/seL4/dhs-demo-feb-2018/apps/sos/src/main.c"
	.loc 1 129 0
	.cfi_startproc
	@ args = 0, pretend = 0, frame = 16
	@ frame_needed = 0, uses_anonymous_args = 0
.LVL0:
	str	lr, [sp, #-4]!
	.save {lr}
	.cfi_def_cfa_offset 4
	.cfi_offset 14, -4
	.pad #28
	sub	sp, sp, #28
	.cfi_def_cfa_offset 32
	.loc 1 131 0
	add	r2, sp, #20
	add	r3, sp, #16
	movw	r1, #:lower16:.LC0
	str	r2, [sp, #4]
	movt	r1, #:upper16:.LC0
	str	r3, [sp]
	add	r2, sp, #8
	add	r3, sp, #12
	bl	sscanf
.LVL1:
	.loc 1 133 0
	ldr	r1, [sp, #20]
	ldrb	r0, [sp, #8]	@ zero_extendqisi2
	ldr	r3, [sp, #12]
	ldrb	r2, [sp, #16]	@ zero_extendqisi2
	orr	r0, r0, r1, lsl #24
	lsl	r3, r3, #8
	orr	r0, r0, r2, lsl #16
	uxth	r3, r3
	.loc 1 137 0
	orr	r0, r0, r3
	add	sp, sp, #28
	.cfi_def_cfa_offset 4
	@ sp needed
	ldr	pc, [sp], #4
	.cfi_endproc
.LFE136:
	.fnend
	.size	decode_ip, .-decode_ip
	.align	2
	.global	handle_syscall
	.syntax unified
	.arm
	.type	handle_syscall, %function
handle_syscall:
	.fnstart
.LFB137:
	.loc 1 140 0
	.cfi_startproc
	@ args = 0, pretend = 0, frame = 0
	@ frame_needed = 0, uses_anonymous_args = 0
.LVL2:
.LBB338:
.LBB339:
.LBB340:
.LBB341:
	.file 2 "/home/mint/seL4/dhs-demo-feb-2018/stage/arm/imx6/include/sel4/arch/functions.h"
	.loc 2 23 0
	mvn	r3, #12288
.LBE341:
.LBE340:
.LBE339:
.LBE338:
	.loc 1 140 0
	push	{r4, r5, r6, r7, r8, r9, r10, lr}
	.save {r4, r5, r6, r7, r8, r9, r10, lr}
	.cfi_def_cfa_offset 32
	.cfi_offset 4, -32
	.cfi_offset 5, -28
	.cfi_offset 6, -24
	.cfi_offset 7, -20
	.cfi_offset 8, -16
	.cfi_offset 9, -12
	.cfi_offset 10, -8
	.cfi_offset 14, -4
.LBB344:
.LBB342:
	.loc 2 41 0
	ldr	r3, [r3, #-4095]
.LBE342:
.LBE344:
	.loc 1 152 0
	movw	r6, #:lower16:cur_cspace
	movt	r6, #:upper16:cur_cspace
	.loc 1 140 0
	mov	r5, r1
	.loc 1 152 0
	ldr	r0, [r6]
.LVL3:
.LBB345:
.LBB343:
	.loc 2 41 0
	ldr	r4, [r3, #4]
.LVL4:
.LBE343:
.LBE345:
	.loc 1 152 0
	bl	cspace_save_reply_cap
.LVL5:
	.loc 1 153 0
	subs	r8, r0, #0
	beq	.L14
	.loc 1 156 0
	cmp	r4, #1
	beq	.L6
.LVL6:
.L16:
	bcc	.L7
	cmp	r4, #2
	bne	.L15
.LVL7:
.LBB346:
.LBB347:
.LBB348:
.LBB349:
	.loc 2 23 0
	mvn	r3, #12288
.LBE349:
.LBE348:
.LBE347:
.LBE346:
	.loc 1 190 0
	mov	r1, r8
.LBB351:
.LBB350:
	.loc 2 41 0
	ldr	r3, [r3, #-4095]
.LBE350:
.LBE351:
	.loc 1 204 0
	pop	{r4, r5, r6, r7, r8, r9, r10, lr}
	.cfi_remember_state
	.cfi_restore 14
	.cfi_restore 10
	.cfi_restore 9
	.cfi_restore 8
	.cfi_restore 7
	.cfi_restore 6
	.cfi_restore 5
	.cfi_restore 4
	.cfi_def_cfa_offset 0
.LVL8:
	.loc 1 190 0
	ldr	r0, [r3, #8]
	b	udp_recv_syscall
.LVL9:
.L15:
	.cfi_restore_state
	.loc 1 196 0
	movw	r0, #:lower16:.LC3
	mov	r1, r4
	movt	r0, #:upper16:.LC3
	bl	printf
.LVL10:
	.loc 1 198 0
	mov	r1, r8
	ldr	r0, [r6]
	.loc 1 204 0
	pop	{r4, r5, r6, r7, r8, r9, r10, lr}
	.cfi_remember_state
	.cfi_restore 14
	.cfi_restore 10
	.cfi_restore 9
	.cfi_restore 8
	.cfi_restore 7
	.cfi_restore 6
	.cfi_restore 5
	.cfi_restore 4
	.cfi_def_cfa_offset 0
.LVL11:
	.loc 1 198 0
	b	cspace_free_slot
.LVL12:
.L14:
	.cfi_restore_state
	.loc 1 153 0 discriminator 1
	movw	r3, #:lower16:.LANCHOR0
	movw	r1, #:lower16:.LC1
	movw	r0, #:lower16:.LC2
.LVL13:
	movt	r3, #:upper16:.LANCHOR0
	movt	r1, #:upper16:.LC1
	movt	r0, #:upper16:.LC2
	mov	r2, #153
	bl	__assert_fail
.LVL14:
	.loc 1 156 0 discriminator 1
	cmp	r4, #1
	bne	.L16
.L6:
.LVL15:
.LBB352:
.LBB353:
.LBB354:
.LBB355:
	.loc 2 23 0
	mvn	r9, #12288
.LBE355:
.LBE354:
.LBE353:
.LBE352:
	.loc 1 176 0
	sub	r3, r5, #2
.LBB359:
.LBB358:
.LBB357:
.LBB356:
	.loc 2 23 0
	ldr	r0, [r9, #-4095]
.LVL16:
.LBE356:
.LBE357:
.LBE358:
.LBE359:
.LBB360:
.LBB361:
	.file 3 "/home/mint/seL4/dhs-demo-feb-2018/stage/arm/imx6/include/sel4/arch/syscalls.h"
	.loc 3 42 0
	mvn	r7, #2
.LBE361:
.LBE360:
	.loc 1 176 0
	add	r2, r0, #16
.LVL17:
	ldr	r1, [r0, #12]
	ldr	r0, [r0, #8]
.LVL18:
	bl	udp_send_syscall
.LVL19:
.LBB364:
.LBB365:
	.loc 2 47 0
	mov	r3, #0
.LBB366:
.LBB367:
	.loc 2 23 0
	ldr	ip, [r9, #-4095]
.LBE367:
.LBE366:
.LBE365:
.LBE364:
.LBB369:
.LBB362:
	.loc 3 33 0
	mov	r1, r4
	.loc 3 36 0
	mov	r2, r3
	.loc 3 32 0
	mov	r0, r8
	b	.L11
.LVL20:
.L7:
.LBE362:
.LBE369:
.LBB370:
.LBB371:
.LBB372:
.LBB373:
	.loc 2 23 0
	mvn	r2, #12288
.LBE373:
.LBE372:
	.loc 2 47 0
	mov	r3, #0
.LBB375:
.LBB374:
	.loc 2 23 0
	ldr	ip, [r2, #-4095]
.LBE374:
.LBE375:
.LBE371:
.LBE370:
.LBB376:
.LBB377:
	.loc 3 32 0
	mov	r0, r8
	.loc 3 36 0
	mov	r2, r3
	.loc 3 33 0
	mov	r1, #1
	.loc 3 42 0
	mvn	r7, #2
.LVL21:
.L11:
.LBE377:
.LBE376:
.LBB378:
.LBB368:
	.loc 2 47 0
	str	r3, [ip, #4]
.LVL22:
.LBE368:
.LBE378:
.LBB379:
.LBB363:
	.loc 3 39 0
	add	r3, ip, #8
	ldm	r3, {r3, r4, r5}
.LVL23:
	.loc 3 43 0
	.syntax divided
@ 43 "/home/mint/seL4/dhs-demo-feb-2018/stage/arm/imx6/include/sel4/arch/syscalls.h" 1
	swi #16777213
@ 0 "" 2
.LVL24:
	.arm
	.syntax unified
.LBE363:
.LBE379:
	.loc 1 181 0
	mov	r1, r8
	ldr	r0, [r6]
	.loc 1 204 0
	pop	{r4, r5, r6, r7, r8, r9, r10, lr}
	.cfi_restore 14
	.cfi_restore 10
	.cfi_restore 9
	.cfi_restore 8
	.cfi_restore 7
	.cfi_restore 6
	.cfi_restore 5
	.cfi_restore 4
	.cfi_def_cfa_offset 0
.LVL25:
	.loc 1 181 0
	b	cspace_free_slot
.LVL26:
	.cfi_endproc
.LFE137:
	.fnend
	.size	handle_syscall, .-handle_syscall
	.align	2
	.global	syscall_loop
	.syntax unified
	.arm
	.type	syscall_loop, %function
syscall_loop:
	.fnstart
.LFB138:
	.loc 1 206 0
	.cfi_startproc
	@ args = 0, pretend = 0, frame = 0
	@ frame_needed = 0, uses_anonymous_args = 0
.LVL27:
	push	{r3, r4, r5, r6, r7, r8, r9, r10, fp, lr}
	.save {r3, r4, r5, r6, r7, r8, r9, r10, fp, lr}
	.cfi_def_cfa_offset 40
	.cfi_offset 3, -40
	.cfi_offset 4, -36
	.cfi_offset 5, -32
	.cfi_offset 6, -28
	.cfi_offset 7, -24
	.cfi_offset 8, -20
	.cfi_offset 9, -16
	.cfi_offset 10, -12
	.cfi_offset 11, -8
	.cfi_offset 14, -4
.LBB380:
	.loc 1 233 0
	movw	r8, #:lower16:.LC10
	.loc 1 223 0
	movw	r10, #:lower16:.LC6
	movw	r9, #:lower16:.LC4
.LBE380:
	.loc 1 206 0
	mov	r6, r0
.LBB403:
	.loc 1 233 0
	movt	r8, #:upper16:.LC10
	.loc 1 223 0
	movt	r10, #:upper16:.LC6
	movt	r9, #:upper16:.LC4
.LVL28:
.L18:
.LBB381:
.LBB382:
	.loc 3 213 0
	mov	r0, r6
	.loc 3 223 0
	mvn	r7, #4
	.loc 3 224 0
	.syntax divided
@ 224 "/home/mint/seL4/dhs-demo-feb-2018/stage/arm/imx6/include/sel4/arch/syscalls.h" 1
	swi #16777211
@ 0 "" 2
.LVL29:
	.arm
	.syntax unified
.LBB383:
.LBB384:
.LBB385:
.LBB386:
	.loc 2 23 0
	mvn	r7, #12288
.LBE386:
.LBE385:
.LBE384:
.LBE383:
.LBE382:
.LBE381:
	.loc 1 215 0
	tst	r0, #134217728
.LBB395:
.LBB393:
.LBB390:
.LBB389:
.LBB388:
.LBB387:
	.loc 2 23 0
	ldr	ip, [r7, #-4095]
.LBE387:
.LBE388:
.LBE389:
.LBE390:
.LBE393:
.LBE395:
.LBB396:
.LBB397:
	.file 4 "/home/mint/seL4/dhs-demo-feb-2018/stage/arm/imx6/include/sel4/types_gen.h"
	.loc 4 55 0
	lsr	lr, r1, #12
.LVL30:
.LBE397:
.LBE396:
.LBB398:
.LBB394:
.LBB391:
.LBB392:
	.loc 2 47 0
	stmib	ip, {r2, r3, r4, r5}
.LVL31:
.LBE392:
.LBE391:
.LBE394:
.LBE398:
	.loc 1 215 0
	beq	.L19
	.loc 1 217 0
	tst	r0, #1
	beq	.L18
	.loc 1 218 0
	bl	network_irq
.LVL32:
	b	.L18
.LVL33:
.L19:
	.loc 1 221 0
	cmp	lr, #2
	.loc 1 230 0
	and	r1, r1, #127
.LVL34:
	sub	r1, r1, #1
	.loc 1 221 0
	beq	.L29
	.loc 1 228 0
	cmp	lr, #0
	bne	.L23
	.loc 1 230 0
	bl	handle_syscall
.LVL35:
	b	.L18
.LVL36:
.L23:
	.loc 1 233 0
	mov	r0, r8
.LVL37:
	mov	r1, lr
	bl	printf
.LVL38:
	b	.L18
.LVL39:
.L29:
	.loc 1 223 0 discriminator 1
	mov	r0, r10
.LVL40:
	bl	printf
.LVL41:
.LBB399:
.LBB400:
.LBB401:
.LBB402:
	.loc 2 23 0 discriminator 1
	ldr	r1, [r7, #-4095]
.LBE402:
.LBE401:
.LBE400:
.LBE399:
	.loc 1 223 0 discriminator 1
	movw	r3, #:lower16:.LC5
	movw	r0, #:lower16:.LC7
	movt	r3, #:upper16:.LC5
	movt	r0, #:upper16:.LC7
	ldr	ip, [r1, #12]
	ldr	r2, [r1, #4]
	ldr	r1, [r1, #8]
	cmp	ip, #0
	movne	r3, r9
	bl	plogf
.LVL42:
	movw	r0, #:lower16:.LC8
	movt	r0, #:upper16:.LC8
	bl	printf
.LVL43:
	.loc 1 227 0 discriminator 1
	movw	r1, #:lower16:.LC1
	movw	r0, #:lower16:.LC9
	movt	r1, #:upper16:.LC1
	movt	r0, #:upper16:.LC9
	ldr	r3, .L30
	mov	r2, #227
	bl	__assert_fail
.LVL44:
	b	.L18
.L31:
	.align	2
.L30:
	.word	.LANCHOR0+16
.LBE403:
	.cfi_endproc
.LFE138:
	.fnend
	.size	syscall_loop, .-syscall_loop
	.align	2
	.global	create_worker_thread
	.syntax unified
	.arm
	.type	create_worker_thread, %function
create_worker_thread:
	.fnstart
.LFB140:
	.loc 1 301 0
	.cfi_startproc
	@ args = 0, pretend = 0, frame = 16
	@ frame_needed = 0, uses_anonymous_args = 0
.LVL45:
	push	{r4, r5, r6, r7, r8, r9, r10, fp, lr}
	.save {r4, r5, r6, r7, r8, r9, r10, fp, lr}
	.cfi_def_cfa_offset 36
	.cfi_offset 4, -36
	.cfi_offset 5, -32
	.cfi_offset 6, -28
	.cfi_offset 7, -24
	.cfi_offset 8, -20
	.cfi_offset 9, -16
	.cfi_offset 10, -12
	.cfi_offset 11, -8
	.cfi_offset 14, -4
	mov	r9, r0
	.pad #28
	sub	sp, sp, #28
	.cfi_def_cfa_offset 64
	.loc 1 307 0
	mov	r0, #12
.LVL46:
	.loc 1 308 0
	movw	r6, #:lower16:.LC1
	.loc 1 311 0
	movw	r10, #:lower16:cur_cspace
	.loc 1 301 0
	str	r1, [sp, #12]
	.loc 1 308 0
	movt	r6, #:upper16:.LC1
	.loc 1 301 0
	str	r2, [sp, #8]
	.loc 1 311 0
	movt	r10, #:upper16:cur_cspace
	.loc 1 307 0
	bl	ut_alloc
.LVL47:
	mov	r4, r0
.LVL48:
	.loc 1 308 0
	ldr	r0, [r9, #16]
.LVL49:
	ldr	r8, .L34
	mov	ip, #308
	movw	r1, #:lower16:.LC11
	str	ip, [sp]
	clz	r0, r0
	mov	r2, r6
	mov	r3, r8
	lsr	r0, r0, #5
	movt	r1, #:upper16:.LC11
	bl	__conditional_panic
.LVL50:
	.loc 1 311 0
	add	r2, sp, #20
	ldr	r3, [r10]
	str	r2, [sp]
	mov	r0, r4
	mov	r2, #12
	mov	r1, #5
	bl	cspace_ut_retype_addr
.LVL51:
	.loc 1 316 0
	mov	ip, #316
	movw	r1, #:lower16:.LC12
	mov	r2, r6
	mov	r3, r8
	str	ip, [sp]
	movt	r1, #:upper16:.LC12
	bl	__conditional_panic
.LVL52:
	.loc 1 319 0
	mov	r0, #9
	mov	fp, #0
	bl	ut_alloc
.LVL53:
	.loc 1 320 0
	mov	ip, #320
	mov	r7, r0
	movw	r1, #:lower16:.LC13
	clz	r0, r0
.LVL54:
	str	ip, [sp]
	mov	r2, r6
	mov	r3, r8
	lsr	r0, r0, #5
	movt	r1, #:upper16:.LC13
	bl	__conditional_panic
.LVL55:
	.loc 1 323 0
	add	r2, sp, #16
	ldr	r3, [r10]
	str	r2, [sp]
	mov	r0, r7
	mov	r2, #9
	mov	r1, #1
	bl	cspace_ut_retype_addr
.LVL56:
	.loc 1 328 0
	mov	r1, #328
	mov	r2, r6
	str	r1, [sp]
	movw	r1, #:lower16:.LC14
	mov	r3, r8
	movt	r1, #:upper16:.LC14
	bl	__conditional_panic
.LVL57:
.LBB430:
.LBB431:
.LBB432:
.LBB433:
.LBB434:
.LBB435:
	.loc 2 23 0
	mvn	r3, #12288
.LBE435:
.LBE434:
.LBE433:
.LBE432:
.LBE431:
.LBE430:
	.loc 1 331 0
	ldr	r1, [r9, #32]
	ldr	lr, [r9, #12]
.LBB463:
.LBB460:
.LBB440:
.LBB441:
	.loc 3 376 0
	mov	r4, fp
.LVL58:
.LBE441:
.LBE440:
.LBB446:
.LBB438:
.LBB437:
.LBB436:
	.loc 2 23 0
	ldr	ip, [r3, #-4095]
.LBE436:
.LBE437:
.LBE438:
.LBE446:
.LBB447:
.LBB442:
	.loc 3 379 0
	mov	r5, fp
.LBE442:
.LBE447:
.LBE460:
.LBE463:
	.loc 1 331 0
	ldr	r0, [r1, #4]
.LVL59:
.LBB464:
.LBB461:
.LBB448:
.LBB443:
	.loc 3 366 0
	mvn	r7, #0
.LVL60:
	.loc 3 370 0
	ldr	r2, [sp, #12]
	.loc 3 373 0
	mov	r3, fp
.LBE443:
.LBE448:
.LBB449:
.LBB450:
	.loc 2 81 0
	str	lr, [ip, #492]
.LBE450:
.LBE449:
.LBB451:
.LBB444:
	.loc 3 383 0
	movw	r1, #20869
.LVL61:
.LBE444:
.LBE451:
.LBB452:
.LBB453:
	.loc 2 47 0
	ldr	lr, [sp, #8]
.LBE453:
.LBE452:
.LBB455:
.LBB439:
	.loc 2 81 0
	str	r0, [ip, #488]
.LBE439:
.LBE455:
.LBE461:
.LBE464:
	.loc 1 331 0
	ldr	r0, [sp, #16]
.LVL62:
.LBB465:
.LBB462:
.LBB456:
.LBB454:
	.loc 2 47 0
	str	lr, [ip, #20]
.LBE454:
.LBE456:
.LBB457:
.LBB458:
	.loc 2 81 0
	ldr	lr, [sp, #20]
.LVL63:
	str	lr, [ip, #496]
.LVL64:
.LBE458:
.LBE457:
.LBB459:
.LBB445:
	.loc 3 383 0
	.syntax divided
@ 383 "/home/mint/seL4/dhs-demo-feb-2018/stage/arm/imx6/include/sel4/arch/syscalls.h" 1
	swi #16777215
@ 0 "" 2
.LVL65:
	.arm
	.syntax unified
.LBE445:
.LBE459:
.LBE462:
.LBE465:
	.loc 1 340 0
	mov	r3, #340
	lsr	r0, r1, #12
	movw	r1, #:lower16:.LC15
.LVL66:
	str	r3, [sp]
	mov	r2, r6
	mov	r3, r8
	movt	r1, #:upper16:.LC15
	bl	__conditional_panic
.LVL67:
	.loc 1 344 0
	ldr	r1, [r10]
	mov	r3, #7
	ldr	r2, [sp, #16]
	ldr	r0, [r9, #32]
	str	fp, [sp]
	bl	cspace_mint_cap
.LVL68:
	.loc 1 351 0
	mov	r3, #3
	ldr	r1, [r9, #12]
	.loc 1 344 0
	mov	r4, r0
.LVL69:
	.loc 1 351 0
	ldr	r2, [sp, #8]
	str	r3, [sp]
	mov	r3, #7
	ldr	r0, [sp, #20]
.LVL70:
	bl	map_page
.LVL71:
	.loc 1 356 0
	mov	ip, #356
	movw	r1, #:lower16:.LC16
	mov	r3, r8
	mov	r2, r6
	str	ip, [sp]
	movt	r1, #:upper16:.LC16
	bl	__conditional_panic
.LVL72:
	.loc 1 359 0
	mov	r0, r4
	add	sp, sp, #28
	.cfi_def_cfa_offset 36
	@ sp needed
	pop	{r4, r5, r6, r7, r8, r9, r10, fp, pc}
.LVL73:
.L35:
	.align	2
.L34:
	.word	.LANCHOR0+32
	.cfi_endproc
.LFE140:
	.fnend
	.size	create_worker_thread, .-create_worker_thread
	.align	2
	.global	start_process
	.syntax unified
	.arm
	.type	start_process, %function
start_process:
	.fnstart
.LFB141:
	.loc 1 361 0
	.cfi_startproc
	@ args = 0, pretend = 0, frame = 80
	@ frame_needed = 0, uses_anonymous_args = 0
.LVL74:
	push	{r4, r5, r6, r7, r8, r9, r10, fp, lr}
	.save {r4, r5, r6, r7, r8, r9, r10, fp, lr}
	.cfi_def_cfa_offset 36
	.cfi_offset 4, -36
	.cfi_offset 5, -32
	.cfi_offset 6, -28
	.cfi_offset 7, -24
	.cfi_offset 8, -20
	.cfi_offset 9, -16
	.cfi_offset 10, -12
	.cfi_offset 11, -8
	.cfi_offset 14, -4
	mov	fp, r0
	.pad #92
	sub	sp, sp, #92
	.cfi_def_cfa_offset 128
	.loc 1 376 0
	mov	r0, #14
.LVL75:
	.loc 1 361 0
	mov	r6, r2
	mov	r8, r1
	mov	r9, r3
	.loc 1 379 0
	movw	r10, #:lower16:cur_cspace
	.loc 1 376 0
	bl	ut_alloc
.LVL76:
	.loc 1 377 0
	movw	ip, #378
	.loc 1 376 0
	mov	r3, r0
	.loc 1 377 0
	movw	r2, #:lower16:.LC1
	clz	r0, r0
	movw	r1, #:lower16:.LC17
	.loc 1 376 0
	str	r3, [r6, #8]
	.loc 1 377 0
	lsr	r0, r0, #5
	str	ip, [sp]
	movt	r2, #:upper16:.LC1
	ldr	r3, .L45
	movt	r1, #:upper16:.LC17
	.loc 1 379 0
	movt	r10, #:upper16:cur_cspace
	.loc 1 377 0
	bl	__conditional_panic
.LVL77:
	.loc 1 383 0
	add	r1, r6, #12
	.loc 1 379 0
	ldr	r3, [r10]
	ldr	r0, [r6, #8]
	mov	r2, #14
	str	r1, [sp]
	mov	r1, #10
	bl	cspace_ut_retype_addr
.LVL78:
	.loc 1 384 0
	mov	r3, #384
	movw	r2, #:lower16:.LC1
	movw	r1, #:lower16:.LC18
	str	r3, [sp]
	movt	r2, #:upper16:.LC1
	movt	r1, #:upper16:.LC18
	ldr	r3, .L45
	bl	__conditional_panic
.LVL79:
	.loc 1 387 0
	mov	r0, #1
	bl	cspace_create
.LVL80:
	.loc 1 388 0
	cmp	r0, #0
	.loc 1 387 0
	str	r0, [r6, #32]
	.loc 1 388 0
	beq	.L44
.L37:
	mov	r4, #0
	.loc 1 391 0
	ldr	r1, [r10]
	ldr	r2, [r0, #4]
.LVL81:
	mov	r3, #7
	str	r4, [sp]
.LBB541:
.LBB542:
.LBB543:
.LBB544:
	.loc 3 366 0
	mvn	r7, #0
.LBE544:
.LBE543:
.LBE542:
.LBE541:
	.loc 1 391 0
	bl	cspace_mint_cap
.LVL82:
	.loc 1 399 0
	mov	r0, #12
	bl	ut_alloc
.LVL83:
	.loc 1 400 0
	mov	ip, #400
	.loc 1 399 0
	mov	r3, r0
	.loc 1 400 0
	movw	r2, #:lower16:.LC1
	clz	r0, r0
	movw	r1, #:lower16:.LC11
	.loc 1 399 0
	str	r3, [r6, #16]
	.loc 1 400 0
	lsr	r0, r0, #5
	str	ip, [sp]
	movt	r2, #:upper16:.LC1
	ldr	r3, .L45
	movt	r1, #:upper16:.LC11
	bl	__conditional_panic
.LVL84:
	.loc 1 401 0
	add	r1, r6, #20
	ldr	r3, [r10]
	ldr	r0, [r6, #16]
	mov	r2, #12
	str	r1, [sp]
	mov	r1, #5
	bl	cspace_ut_retype_addr
.LVL85:
	.loc 1 406 0
	movw	r3, #406
	movw	r2, #:lower16:.LC1
	movw	r1, #:lower16:.LC12
	str	r3, [sp]
	movt	r2, #:upper16:.LC1
	movt	r1, #:upper16:.LC12
	ldr	r3, .L45
	bl	__conditional_panic
.LVL86:
	mov	r2, #101
	.loc 1 410 0
	ldr	r1, [r10]
	ldr	r0, [r6, #32]
	mov	r3, #7
	str	r2, [sp]
	mov	r2, r8
	bl	cspace_mint_cap
.LVL87:
	mov	r5, r0
.LVL88:
	.loc 1 419 0
	mov	r0, #9
.LVL89:
	bl	ut_alloc
.LVL90:
	.loc 1 420 0
	mov	ip, #420
	.loc 1 419 0
	mov	r3, r0
	.loc 1 420 0
	movw	r2, #:lower16:.LC1
	clz	r0, r0
	movw	r1, #:lower16:.LC20
	.loc 1 419 0
	str	r3, [r6]
	.loc 1 420 0
	lsr	r0, r0, #5
	str	ip, [sp]
	movt	r2, #:upper16:.LC1
	ldr	r3, .L45
	movt	r1, #:upper16:.LC20
	bl	__conditional_panic
.LVL91:
	.loc 1 421 0
	mov	ip, r6
	ldr	r3, [r10]
	ldr	r0, [ip], #4
	mov	r2, #9
	mov	r1, #1
	str	ip, [sp]
	bl	cspace_ut_retype_addr
.LVL92:
	.loc 1 426 0
	movw	r3, #426
	movw	r2, #:lower16:.LC1
	movw	r1, #:lower16:.LC14
	str	r3, [sp]
	movt	r2, #:upper16:.LC1
	movt	r1, #:upper16:.LC14
	ldr	r3, .L45
	bl	__conditional_panic
.LVL93:
	.loc 1 429 0
	ldr	r3, [r6, #32]
.LBB572:
.LBB569:
.LBB549:
.LBB550:
.LBB551:
.LBB552:
	.loc 2 23 0
	mvn	r2, #12288
	ldr	r1, [r2, #-4095]
.LBE552:
.LBE551:
.LBE550:
.LBE549:
.LBB555:
.LBB545:
	.loc 3 370 0
	mov	r2, r5
.LBE545:
.LBE555:
.LBE569:
.LBE572:
	.loc 1 429 0
	ldr	ip, [r6, #20]
.LBB573:
.LBB570:
.LBB556:
.LBB546:
	.loc 3 379 0
	mov	r5, r4
.LVL94:
.LBE546:
.LBE556:
.LBB557:
.LBB553:
	.loc 2 81 0
	ldr	r3, [r3, #4]
.LBE553:
.LBE557:
.LBE570:
.LBE573:
	.loc 1 429 0
	ldr	lr, [r6, #12]
	ldr	r0, [r6, #4]
.LVL95:
.LBB574:
.LBB571:
.LBB558:
.LBB559:
	.loc 2 81 0
	str	ip, [r1, #496]
.LBE559:
.LBE558:
.LBB560:
.LBB561:
	.loc 2 47 0
	mov	ip, #-1610612736
.LVL96:
.LBE561:
.LBE560:
.LBB563:
.LBB554:
	.loc 2 81 0
	str	r3, [r1, #488]
.LVL97:
.LBE554:
.LBE563:
.LBB564:
.LBB547:
	.loc 3 373 0
	mov	r3, r4
.LVL98:
.LBE547:
.LBE564:
.LBB565:
.LBB566:
	.loc 2 81 0
	str	lr, [r1, #492]
.LVL99:
.LBE566:
.LBE565:
.LBB567:
.LBB562:
	.loc 2 47 0
	str	ip, [r1, #20]
.LVL100:
.LBE562:
.LBE567:
.LBB568:
.LBB548:
	.loc 3 383 0
	movw	r1, #20869
.LVL101:
	.syntax divided
@ 383 "/home/mint/seL4/dhs-demo-feb-2018/stage/arm/imx6/include/sel4/arch/syscalls.h" 1
	swi #16777215
@ 0 "" 2
.LVL102:
	.arm
	.syntax unified
.LBE548:
.LBE568:
.LBE571:
.LBE574:
	.loc 1 433 0
	movw	r3, #433
	lsr	r0, r1, #12
	movw	r2, #:lower16:.LC1
	str	r3, [sp]
	movw	r1, #:lower16:.LC15
.LVL103:
	ldr	r3, .L45
	movt	r2, #:upper16:.LC1
	movt	r1, #:upper16:.LC15
	bl	__conditional_panic
.LVL104:
	.loc 1 438 0
	movw	r0, #:lower16:.LC6
	.loc 1 458 0
	mov	r4, #3
	.loc 1 438 0
	movt	r0, #:upper16:.LC6
	bl	printf
.LVL105:
	movw	r0, #:lower16:.LC21
	mov	r1, fp
	movt	r0, #:upper16:.LC21
	bl	plogf
.LVL106:
	movw	r0, #:lower16:.LC8
	movt	r0, #:upper16:.LC8
	bl	printf
.LVL107:
	.loc 1 439 0
	movw	r0, #:lower16:_cpio_archive
	mov	r1, fp
	add	r2, sp, #16
	movt	r0, #:upper16:_cpio_archive
	bl	cpio_get_file
.LVL108:
	.loc 1 440 0
	mov	r3, #440
	mov	r5, r0
	movw	r2, #:lower16:.LC1
	clz	r0, r0
.LVL109:
	movw	r1, #:lower16:.LC22
	movt	r2, #:upper16:.LC1
	str	r3, [sp]
	lsr	r0, r0, #5
	ldr	r3, .L45
	movt	r1, #:upper16:.LC22
	bl	__conditional_panic
.LVL110:
	.loc 1 443 0
	mov	r1, r5
	ldr	r0, [r6, #12]
	bl	elf_load
.LVL111:
	.loc 1 444 0
	mov	r3, #444
	movw	r2, #:lower16:.LC1
	movw	r1, #:lower16:.LC23
	movt	r2, #:upper16:.LC1
	movt	r1, #:upper16:.LC23
	str	r3, [sp]
	ldr	r3, .L45
	bl	__conditional_panic
.LVL112:
	.loc 1 448 0
	mov	r0, #12
	bl	ut_alloc
.LVL113:
	.loc 1 449 0
	movw	r3, #449
	mov	r7, r0
	movw	r2, #:lower16:.LC1
	clz	r0, r0
.LVL114:
	movw	r1, #:lower16:.LC24
	str	r3, [sp]
	lsr	r0, r0, #5
	movt	r2, #:upper16:.LC1
	movt	r1, #:upper16:.LC24
	ldr	r3, .L45
	bl	__conditional_panic
.LVL115:
	.loc 1 450 0
	add	r2, sp, #12
	ldr	r3, [r10]
	mov	r0, r7
	str	r2, [sp]
	mov	r1, #5
	mov	r2, #12
	bl	cspace_ut_retype_addr
.LVL116:
	.loc 1 455 0
	movw	r3, #455
	movw	r2, #:lower16:.LC1
	movw	r1, #:lower16:.LC25
	str	r3, [sp]
	movt	r2, #:upper16:.LC1
	movt	r1, #:upper16:.LC25
	ldr	r3, .L45
	bl	__conditional_panic
.LVL117:
	.loc 1 458 0
	mov	r2, #61440
	ldr	r1, [r6, #12]
	movt	r2, 36863
	str	r4, [sp]
	mov	r3, #7
	ldr	r0, [sp, #12]
	bl	map_page
.LVL118:
	.loc 1 461 0
	movw	r3, #461
	movw	r2, #:lower16:.LC1
	movw	r1, #:lower16:.LC26
	str	r3, [sp]
	movt	r2, #:upper16:.LC1
	movt	r1, #:upper16:.LC26
	ldr	r3, .L45
	bl	__conditional_panic
.LVL119:
	.loc 1 464 0
	ldr	r1, [r6, #12]
	mov	r2, #-1610612736
	ldr	r0, [r6, #20]
	mov	r3, #7
	str	r4, [sp]
	bl	map_page
.LVL120:
	.loc 1 467 0
	movw	r3, #467
	movw	r2, #:lower16:.LC1
	movw	r1, #:lower16:.LC16
	str	r3, [sp]
	movt	r2, #:upper16:.LC1
	movt	r1, #:upper16:.LC16
	ldr	r3, .L45
	bl	__conditional_panic
.LVL121:
.LBB575:
	.loc 1 470 0
	cmp	r9, #0
	movne	r4, #4096
	movne	r7, #1
.LVL122:
	movtne	r4, 40960
	beq	.L40
.LVL123:
.L39:
	.loc 1 471 0 discriminator 3
	mov	r2, r4
	.loc 1 470 0 discriminator 3
	add	r7, r7, #1
.LVL124:
	.loc 1 471 0 discriminator 3
	mov	r1, r8
	mov	r0, r6
	bl	create_worker_thread
.LVL125:
	.loc 1 470 0 discriminator 3
	cmp	r9, r7
	add	r4, r4, #4096
	bcs	.L39
.LVL126:
.L40:
.LBE575:
	.loc 1 475 0
	mov	r2, #68
	mov	r1, #0
	add	r0, sp, #20
.LBB576:
.LBB577:
.LBB578:
.LBB579:
	.loc 3 366 0
	mvn	r7, #0
.LBE579:
.LBE578:
.LBE577:
.LBE576:
	.loc 1 475 0
	bl	memset
.LVL127:
	.loc 1 476 0
	mov	r0, r5
	bl	elf_getEntryPoint
.LVL128:
.LBB628:
.LBB624:
.LBB584:
.LBB585:
.LBB586:
.LBB587:
	.loc 2 23 0
	mvn	r3, #12288
.LBE587:
.LBE586:
	.loc 2 47 0
	mov	r2, #0
.LBB589:
.LBB588:
	.loc 2 23 0
	ldr	r3, [r3, #-4095]
.LBE588:
.LBE589:
.LBE585:
.LBE584:
.LBE624:
.LBE628:
	.loc 1 476 0
	mov	r4, r0
	.loc 1 477 0
	mov	r1, #-1879048192
	.loc 1 478 0
	ldr	r0, [r6, #4]
.LVL129:
.LBB629:
.LBB625:
.LBB591:
.LBB580:
	.loc 3 379 0
	mov	r5, r1
.LVL130:
.LBE580:
.LBE591:
.LBE625:
.LBE629:
	.loc 1 477 0
	str	r1, [sp, #24]
.LBB630:
.LBB626:
.LBB592:
.LBB590:
	.loc 2 47 0
	str	r2, [r3, #20]
.LBE590:
.LBE592:
.LBB593:
.LBB581:
	.loc 3 383 0
	movw	r1, #12307
.LVL131:
.LBE581:
.LBE593:
.LBB594:
.LBB595:
	.loc 2 47 0
	str	r2, [r3, #24]
.LBE595:
.LBE594:
.LBB596:
.LBB597:
	str	r2, [r3, #28]
.LBE597:
.LBE596:
.LBB598:
.LBB599:
	str	r2, [r3, #32]
.LBE599:
.LBE598:
.LBB600:
.LBB601:
	str	r2, [r3, #36]
.LBE601:
.LBE600:
.LBB602:
.LBB603:
	str	r2, [r3, #40]
.LBE603:
.LBE602:
.LBB604:
.LBB605:
	str	r2, [r3, #44]
.LBE605:
.LBE604:
.LBB606:
.LBB607:
	str	r2, [r3, #48]
.LBE607:
.LBE606:
.LBB608:
.LBB609:
	str	r2, [r3, #52]
.LBE609:
.LBE608:
.LBB610:
.LBB611:
	str	r2, [r3, #56]
.LBE611:
.LBE610:
.LBB612:
.LBB613:
	str	r2, [r3, #60]
.LBE613:
.LBE612:
.LBB614:
.LBB615:
	str	r2, [r3, #64]
.LBE615:
.LBE614:
.LBB616:
.LBB617:
	str	r2, [r3, #68]
.LBE617:
.LBE616:
.LBB618:
.LBB619:
	str	r2, [r3, #72]
.LBE619:
.LBE618:
.LBB620:
.LBB621:
	str	r2, [r3, #76]
.LBE621:
.LBE620:
.LBB622:
.LBB582:
	.loc 3 370 0
	mov	r2, #1
.LBE582:
.LBE622:
.LBE626:
.LBE630:
	.loc 1 476 0
	str	r4, [sp, #20]
.LVL132:
.LBB631:
.LBB627:
.LBB623:
.LBB583:
	.loc 3 373 0
	mov	r3, #2
.LVL133:
	.loc 3 383 0
	.syntax divided
@ 383 "/home/mint/seL4/dhs-demo-feb-2018/stage/arm/imx6/include/sel4/arch/syscalls.h" 1
	swi #16777215
@ 0 "" 2
.LVL134:
	.arm
	.syntax unified
.LBE583:
.LBE623:
.LBE627:
.LBE631:
	.loc 1 479 0
	add	sp, sp, #92
	.cfi_remember_state
	.cfi_def_cfa_offset 36
	@ sp needed
	pop	{r4, r5, r6, r7, r8, r9, r10, fp, pc}
.LVL135:
.L44:
	.cfi_restore_state
	.loc 1 388 0 discriminator 1
	movw	r1, #:lower16:.LC1
	movw	r0, #:lower16:.LC19
	movt	r0, #:upper16:.LC19
	movt	r1, #:upper16:.LC1
	ldr	r3, .L45
	mov	r2, #388
	bl	__assert_fail
.LVL136:
	ldr	r0, [r6, #32]
	b	.L37
.L46:
	.align	2
.L45:
	.word	.LANCHOR0+56
	.cfi_endproc
.LFE141:
	.fnend
	.size	start_process, .-start_process
	.align	2
	.global	connect_processes
	.syntax unified
	.arm
	.type	connect_processes, %function
connect_processes:
	.fnstart
.LFB145:
	.loc 1 562 0
	.cfi_startproc
	@ args = 8, pretend = 0, frame = 8
	@ frame_needed = 0, uses_anonymous_args = 0
.LVL137:
	push	{r4, r5, r6, r7, r8, r9, r10, fp, lr}
	.save {r4, r5, r6, r7, r8, r9, r10, fp, lr}
	.cfi_def_cfa_offset 36
	.cfi_offset 4, -36
	.cfi_offset 5, -32
	.cfi_offset 6, -28
	.cfi_offset 7, -24
	.cfi_offset 8, -20
	.cfi_offset 9, -16
	.cfi_offset 10, -12
	.cfi_offset 11, -8
	.cfi_offset 14, -4
	mov	fp, r0
	.loc 1 566 0
	ldr	r8, .L49
	.loc 1 562 0
	.pad #20
	sub	sp, sp, #20
	.cfi_def_cfa_offset 56
	.loc 1 566 0
	movw	r5, #:lower16:.LC1
	.loc 1 565 0
	mov	r0, #4
.LVL138:
	.loc 1 562 0
	mov	r6, r2
	mov	r10, r1
	mov	r9, r3
	.loc 1 566 0
	movt	r5, #:upper16:.LC1
	.loc 1 565 0
	bl	ut_alloc
.LVL139:
	.loc 1 566 0
	movw	ip, #566
	mov	r7, r0
	movw	r1, #:lower16:.LC27
	clz	r0, r0
.LVL140:
	str	ip, [sp]
	mov	r2, r5
	mov	r3, r8
	lsr	r0, r0, #5
	movt	r1, #:upper16:.LC27
	.loc 1 568 0
	movw	r4, #:lower16:cur_cspace
	.loc 1 566 0
	bl	__conditional_panic
.LVL141:
	.loc 1 568 0
	movt	r4, #:upper16:cur_cspace
	add	r2, sp, #12
	ldr	r3, [r4]
	mov	r0, r7
	str	r2, [sp]
	mov	r1, #2
	mov	r2, #4
	mov	r7, #0
.LVL142:
	bl	cspace_ut_retype_addr
.LVL143:
	.loc 1 573 0
	movw	ip, #573
	movw	r1, #:lower16:.LC28
	str	ip, [sp]
	mov	r2, r5
	mov	r3, r8
	movt	r1, #:upper16:.LC28
	bl	__conditional_panic
.LVL144:
	.loc 1 575 0
	ldr	r0, [fp, #32]
	mov	r3, r10
	ldr	r1, [r4]
	ldr	r2, [sp, #12]
.LVL145:
	str	r7, [sp]
	bl	cspace_mint_cap
.LVL146:
	.loc 1 581 0
	ldr	ip, [r9, #32]
	ldr	r1, [r4]
	ldr	r3, [sp, #56]
	.loc 1 575 0
	str	r0, [r6]
	.loc 1 581 0
	mov	r0, ip
	ldr	r2, [sp, #12]
	str	r7, [sp]
	bl	cspace_mint_cap
.LVL147:
	ldr	r3, [sp, #60]
	mov	r2, r0
	.loc 1 587 0
	movw	r0, #:lower16:.LC29
	movt	r0, #:upper16:.LC29
	.loc 1 581 0
	str	r2, [r3]
	.loc 1 587 0
	ldr	r1, [r6]
	bl	printf
.LVL148:
	.loc 1 589 0
	ldr	r0, [sp, #12]
	add	sp, sp, #20
	.cfi_def_cfa_offset 36
	@ sp needed
	pop	{r4, r5, r6, r7, r8, r9, r10, fp, pc}
.LVL149:
.L50:
	.align	2
.L49:
	.word	.LANCHOR0+72
	.cfi_endproc
.LFE145:
	.fnend
	.size	connect_processes, .-connect_processes
	.align	2
	.global	allocate_and_map_page
	.syntax unified
	.arm
	.type	allocate_and_map_page, %function
allocate_and_map_page:
	.fnstart
.LFB146:
	.loc 1 592 0
	.cfi_startproc
	@ args = 0, pretend = 0, frame = 8
	@ frame_needed = 0, uses_anonymous_args = 0
.LVL150:
	push	{r4, r5, r6, r7, r8, lr}
	.save {r4, r5, r6, r7, r8, lr}
	.cfi_def_cfa_offset 24
	.cfi_offset 4, -24
	.cfi_offset 5, -20
	.cfi_offset 6, -16
	.cfi_offset 7, -12
	.cfi_offset 8, -8
	.cfi_offset 14, -4
	mov	r8, r0
	.pad #16
	sub	sp, sp, #16
	.cfi_def_cfa_offset 40
	.loc 1 596 0
	mov	r0, #12
.LVL151:
	.loc 1 592 0
	mov	r6, r1
	mov	r7, r2
	.loc 1 596 0
	bl	ut_alloc
.LVL152:
	.loc 1 598 0
	movw	r3, #:lower16:cur_cspace
	add	r1, sp, #12
	.loc 1 603 0
	ldr	r5, .L53
	.loc 1 598 0
	movt	r3, #:upper16:cur_cspace
	ldr	r3, [r3]
	mov	r2, #12
	str	r1, [sp]
	.loc 1 603 0
	movw	r4, #:lower16:.LC1
	.loc 1 598 0
	mov	r1, #5
	.loc 1 603 0
	movt	r4, #:upper16:.LC1
	.loc 1 598 0
	bl	cspace_ut_retype_addr
.LVL153:
	.loc 1 603 0
	movw	ip, #603
	movw	r1, #:lower16:.LC30
	mov	r2, r4
	mov	r3, r5
	str	ip, [sp]
	movt	r1, #:upper16:.LC30
	bl	__conditional_panic
.LVL154:
	.loc 1 605 0
	mov	ip, #3
	ldr	r1, [r8, #12]
	mov	r3, r7
	mov	r2, r6
	str	ip, [sp]
	ldr	r0, [sp, #12]
	bl	map_page
.LVL155:
	.loc 1 610 0
	movw	ip, #610
	movw	r1, #:lower16:.LC31
	mov	r2, r4
	mov	r3, r5
	str	ip, [sp]
	movt	r1, #:upper16:.LC31
	bl	__conditional_panic
.LVL156:
	.loc 1 612 0
	ldr	r0, [sp, #12]
	add	sp, sp, #16
	.cfi_def_cfa_offset 24
	@ sp needed
	pop	{r4, r5, r6, r7, r8, pc}
.LVL157:
.L54:
	.align	2
.L53:
	.word	.LANCHOR0+92
	.cfi_endproc
.LFE146:
	.fnend
	.size	allocate_and_map_page, .-allocate_and_map_page
	.align	2
	.global	initialize_process_config
	.syntax unified
	.arm
	.type	initialize_process_config, %function
initialize_process_config:
	.fnstart
.LFB147:
	.loc 1 615 0
	.cfi_startproc
	@ args = 0, pretend = 0, frame = 0
	@ frame_needed = 0, uses_anonymous_args = 0
.LVL158:
	push	{r4, r5, r6, r7, r8, r9, lr}
	.save {r4, r5, r6, r7, r8, r9, lr}
	.cfi_def_cfa_offset 28
	.cfi_offset 4, -28
	.cfi_offset 5, -24
	.cfi_offset 6, -20
	.cfi_offset 7, -16
	.cfi_offset 8, -12
	.cfi_offset 9, -8
	.cfi_offset 14, -4
	.loc 1 620 0
	movw	r5, #:lower16:.LC1
	ldr	r6, .L57
	.loc 1 615 0
	.pad #12
	sub	sp, sp, #12
	.cfi_def_cfa_offset 40
	.loc 1 620 0
	cmp	r3, #4096
	mov	ip, #620
	movt	r5, #:upper16:.LC1
	.loc 1 615 0
	mov	r9, r1
	.loc 1 620 0
	movw	r1, #:lower16:.LC32
.LVL159:
	.loc 1 615 0
	mov	r4, r0
	.loc 1 620 0
	str	ip, [sp]
	movls	r0, #0
.LVL160:
	movhi	r0, #1
	.loc 1 615 0
	mov	r7, r3
	mov	r8, r2
	.loc 1 620 0
	mov	r3, r6
.LVL161:
	mov	r2, r5
.LVL162:
	movt	r1, #:upper16:.LC32
	bl	__conditional_panic
.LVL163:
	.loc 1 622 0
	mov	r1, r9
	mov	r0, r4
	mov	r2, #7
	.loc 1 629 0
	movw	r4, #:lower16:.LANCHOR1
.LVL164:
	.loc 1 622 0
	bl	allocate_and_map_page
.LVL165:
	.loc 1 623 0
	movw	r1, #:lower16:cur_cspace
	mov	r2, r0
	movt	r1, #:upper16:cur_cspace
	mov	r3, #7
	ldr	r1, [r1]
	.loc 1 629 0
	movt	r4, #:upper16:.LANCHOR1
	.loc 1 623 0
	mov	r0, r1
.LVL166:
	bl	cspace_copy_cap
.LVL167:
	.loc 1 627 0
	movw	ip, #627
	mov	r9, r0
.LVL168:
	movw	r1, #:lower16:.LC33
	clz	r0, r0
.LVL169:
	str	ip, [sp]
	mov	r2, r5
	mov	r3, r6
	lsr	r0, r0, #5
	movt	r1, #:upper16:.LC33
	bl	__conditional_panic
.LVL170:
	.loc 1 629 0
	mov	r1, #3
	ldr	r2, [r4]
	mov	r0, r9
	str	r1, [sp]
	mov	r3, #7
	bl	map_page
.LVL171:
	.loc 1 634 0
	movw	ip, #634
	movw	r1, #:lower16:.LC34
	mov	r2, r5
	mov	r3, r6
	str	ip, [sp]
	movt	r1, #:upper16:.LC34
	bl	__conditional_panic
.LVL172:
	.loc 1 636 0
	ldr	r3, [r4]
	mov	r2, r7
	mov	r1, r8
	mov	r0, r3
	bl	memcpy
.LVL173:
	.loc 1 637 0
	add	r3, r0, #4096
	str	r3, [r4]
	.loc 1 639 0
	add	sp, sp, #12
	.cfi_def_cfa_offset 28
	@ sp needed
	pop	{r4, r5, r6, r7, r8, r9, pc}
.LVL174:
.L58:
	.align	2
.L57:
	.word	.LANCHOR0+116
	.cfi_endproc
.LFE147:
	.fnend
	.size	initialize_process_config, .-initialize_process_config
	.section	.text.startup,"ax",%progbits
	.align	2
	.global	main
	.syntax unified
	.arm
	.type	main, %function
main:
	.fnstart
.LFB148:
	.loc 1 645 0
	.cfi_startproc
	@ Volatile: function does not return.
	@ args = 0, pretend = 0, frame = 4104
	@ frame_needed = 0, uses_anonymous_args = 0
	push	{r7, fp, lr}
	.save {r7, fp, lr}
	.cfi_def_cfa_offset 12
	.cfi_offset 7, -12
	.cfi_offset 11, -8
	.cfi_offset 14, -4
	.loc 1 647 0
	movw	r0, #:lower16:.LC6
	.loc 1 645 0
	.pad #4096
	sub	sp, sp, #4096
	.cfi_def_cfa_offset 4108
.LBB651:
.LBB652:
	.loc 1 523 0
	movw	r3, #:lower16:_boot_info
.LBE652:
.LBE651:
	.loc 1 645 0
	.pad #20
	sub	sp, sp, #20
	.cfi_def_cfa_offset 4128
.LBB710:
.LBB705:
	.loc 1 523 0
	movt	r3, #:upper16:_boot_info
.LBE705:
.LBE710:
	.loc 1 647 0
	movt	r0, #:upper16:.LC6
.LBB711:
.LBB706:
	.loc 1 523 0
	mov	r6, r3
	str	r3, [sp, #12]
.LBE706:
.LBE711:
	.loc 1 647 0
	bl	printf
.LVL175:
	movw	r0, #:lower16:.LC35
	movt	r0, #:upper16:.LC35
	bl	plogf
.LVL176:
	movw	r0, #:lower16:.LC8
	movt	r0, #:upper16:.LC8
	bl	printf
.LVL177:
.LBB712:
.LBB707:
	.loc 1 523 0
	bl	seL4_GetBootInfo
.LVL178:
	.loc 1 524 0
	mov	r3, #524
	.loc 1 523 0
	mov	ip, r0
	.loc 1 524 0
	movw	r2, #:lower16:.LC1
	clz	r0, r0
	movw	r1, #:lower16:.LC36
	movt	r2, #:upper16:.LC1
	str	r3, [sp]
	movt	r1, #:upper16:.LC36
	ldr	r3, .L76
	lsr	r0, r0, #5
	.loc 1 523 0
	str	ip, [r6]
	.loc 1 524 0
	bl	__conditional_panic
.LVL179:
	.loc 1 526 0
	ldr	r7, [r6]
.LVL180:
.LBB653:
.LBB654:
	.loc 1 243 0
	movw	r0, #:lower16:.LC6
	movt	r0, #:upper16:.LC6
	bl	printf
.LVL181:
	movw	r0, #:lower16:.LC37
	mov	r1, r7
	movt	r0, #:upper16:.LC37
	bl	plogf
.LVL182:
	movw	r0, #:lower16:.LC8
	movt	r0, #:upper16:.LC8
	bl	printf
.LVL183:
	.loc 1 244 0
	movw	r0, #:lower16:.LC6
	movt	r0, #:upper16:.LC6
	bl	printf
.LVL184:
	movw	r0, #:lower16:.LC38
	ldr	r1, [r7, #12]
	movt	r0, #:upper16:.LC38
	bl	plogf
.LVL185:
	movw	r0, #:lower16:.LC8
	movt	r0, #:upper16:.LC8
	bl	printf
.LVL186:
	.loc 1 245 0
	movw	r0, #:lower16:.LC6
	movt	r0, #:upper16:.LC6
	bl	printf
.LVL187:
	movw	r0, #:lower16:.LC39
	ldm	r7, {r1, r2}
	movt	r0, #:upper16:.LC39
	bl	plogf
.LVL188:
	movw	r0, #:lower16:.LC8
	movt	r0, #:upper16:.LC8
	bl	printf
.LVL189:
	.loc 1 246 0
	movw	r0, #:lower16:.LC6
	movt	r0, #:upper16:.LC6
	bl	printf
.LVL190:
	movw	r0, #:lower16:.LC40
	ldr	r1, [r7, #8]
	movt	r0, #:upper16:.LC40
	bl	plogf
.LVL191:
	movw	r0, #:lower16:.LC8
	movt	r0, #:upper16:.LC8
	bl	printf
.LVL192:
	.loc 1 247 0
	movw	r0, #:lower16:.LC6
	movt	r0, #:upper16:.LC6
	bl	printf
.LVL193:
	movw	r0, #:lower16:.LC41
	ldrb	r1, [r7, #4072]	@ zero_extendqisi2
	movt	r0, #:upper16:.LC41
	bl	plogf
.LVL194:
	movw	r0, #:lower16:.LC8
	movt	r0, #:upper16:.LC8
	bl	printf
.LVL195:
	.loc 1 250 0
	movw	r0, #:lower16:.LC6
	movt	r0, #:upper16:.LC6
	bl	printf
.LVL196:
	movw	r0, #:lower16:.LC42
	movt	r0, #:upper16:.LC42
	bl	plogf
.LVL197:
	movw	r0, #:lower16:.LC8
	movt	r0, #:upper16:.LC8
	bl	printf
.LVL198:
	.loc 1 251 0
	movw	r0, #:lower16:.LC6
	movt	r0, #:upper16:.LC6
	bl	printf
.LVL199:
	movw	r0, #:lower16:.LC43
	movt	r0, #:upper16:.LC43
	bl	plogf
.LVL200:
	movw	r0, #:lower16:.LC8
	movt	r0, #:upper16:.LC8
	bl	printf
.LVL201:
	.loc 1 252 0
	movw	r0, #:lower16:.LC6
	movt	r0, #:upper16:.LC6
	bl	printf
.LVL202:
	movw	r0, #:lower16:.LC44
	ldr	r2, [r7, #20]
	ldr	r1, [r7, #16]
	movt	r0, #:upper16:.LC44
	bl	plogf
.LVL203:
	movw	r0, #:lower16:.LC8
	movt	r0, #:upper16:.LC8
	bl	printf
.LVL204:
	.loc 1 253 0
	movw	r0, #:lower16:.LC6
	movt	r0, #:upper16:.LC6
	bl	printf
.LVL205:
	movw	r0, #:lower16:.LC45
	ldr	r2, [r7, #28]
	ldr	r1, [r7, #24]
	movt	r0, #:upper16:.LC45
	bl	plogf
.LVL206:
	movw	r0, #:lower16:.LC8
	movt	r0, #:upper16:.LC8
	bl	printf
.LVL207:
	.loc 1 255 0
	movw	r0, #:lower16:.LC6
	movt	r0, #:upper16:.LC6
	bl	printf
.LVL208:
	movw	r0, #:lower16:.LC46
	ldr	r2, [r7, #36]
	ldr	r1, [r7, #32]
	movt	r0, #:upper16:.LC46
	bl	plogf
.LVL209:
	movw	r0, #:lower16:.LC8
	movt	r0, #:upper16:.LC8
	bl	printf
.LVL210:
	.loc 1 257 0
	movw	r0, #:lower16:.LC6
	movt	r0, #:upper16:.LC6
	bl	printf
.LVL211:
	movw	r0, #:lower16:.LC47
	ldr	r2, [r7, #52]
	ldr	r1, [r7, #48]
	movt	r0, #:upper16:.LC47
	bl	plogf
.LVL212:
	movw	r0, #:lower16:.LC8
	movt	r0, #:upper16:.LC8
	bl	printf
.LVL213:
	.loc 1 259 0
	movw	r0, #:lower16:.LC6
	movt	r0, #:upper16:.LC6
	bl	printf
.LVL214:
	movw	r0, #:lower16:.LC48
	ldr	r2, [r7, #60]
	ldr	r1, [r7, #56]
	movt	r0, #:upper16:.LC48
	bl	plogf
.LVL215:
	movw	r0, #:lower16:.LC8
	movt	r0, #:upper16:.LC8
	bl	printf
.LVL216:
	.loc 1 262 0
	movw	r0, #:lower16:.LC6
	movt	r0, #:upper16:.LC6
	bl	printf
.LVL217:
	movw	r0, #:lower16:.LC49
	movt	r0, #:upper16:.LC49
	bl	plogf
.LVL218:
	movw	r0, #:lower16:.LC8
	movt	r0, #:upper16:.LC8
	bl	printf
.LVL219:
	.loc 1 263 0
	movw	r0, #:lower16:.LC6
	movt	r0, #:upper16:.LC6
	bl	printf
.LVL220:
	movw	r0, #:lower16:.LC50
	movt	r0, #:upper16:.LC50
	bl	plogf
.LVL221:
	movw	r0, #:lower16:.LC8
	movt	r0, #:upper16:.LC8
	bl	printf
.LVL222:
	.loc 1 264 0
	ldr	r2, [r7, #56]
	ldr	r3, [r7, #60]
	cmp	r2, r3
	beq	.L64
	add	r8, r7, #3264
	.loc 1 265 0
	movw	fp, #:lower16:.LC6
	movw	r10, #:lower16:.LC52
	movw	r3, #:lower16:.LC8
	add	r8, r8, #7
	movt	fp, #:upper16:.LC6
	movt	r10, #:upper16:.LC52
	add	r9, r7, #68
	.loc 1 264 0
	mov	r6, #0
	.loc 1 265 0
	movt	r3, #:upper16:.LC8
	str	r3, [sp, #8]
.LVL223:
.L63:
	mov	r0, fp
	bl	printf
.LVL224:
	ldr	r2, [r7, #56]
	mov	r1, r6
	ldrb	ip, [r8, #1]!	@ zero_extendqisi2
	mov	r0, r10
	ldr	r3, [r9, #4]!
	add	r2, r6, r2
	.loc 1 264 0
	add	r6, r6, #1
.LVL225:
	.loc 1 265 0
	str	ip, [sp]
	bl	plogf
.LVL226:
	ldr	r0, [sp, #8]
	bl	printf
.LVL227:
	.loc 1 264 0
	ldr	r3, [r7, #60]
	ldr	r2, [r7, #56]
	sub	r3, r3, r2
	cmp	r6, r3
	bcc	.L63
.LVL228:
.L64:
	.loc 1 271 0
	movw	r0, #:lower16:.LC6
	movt	r0, #:upper16:.LC6
	bl	printf
.LVL229:
	movw	r0, #:lower16:.LC51
	movt	r0, #:upper16:.LC51
	bl	plogf
.LVL230:
	movw	r0, #:lower16:.LC8
	movt	r0, #:upper16:.LC8
	bl	printf
.LVL231:
	.loc 1 272 0
	movw	r0, #:lower16:.LC6
	movt	r0, #:upper16:.LC6
	bl	printf
.LVL232:
	movw	r0, #:lower16:.LC50
	movt	r0, #:upper16:.LC50
	bl	plogf
.LVL233:
	movw	r0, #:lower16:.LC8
	movt	r0, #:upper16:.LC8
	bl	printf
.LVL234:
	.loc 1 273 0
	ldr	r2, [r7, #68]
	ldr	r3, [r7, #64]
	cmp	r2, r3
	beq	.L62
	.loc 1 274 0
	movw	r10, #:lower16:.LC6
	movw	r9, #:lower16:.LC52
	movw	r8, #:lower16:.LC8
	movt	r10, #:upper16:.LC6
	movt	r9, #:upper16:.LC52
	movt	r8, #:upper16:.LC8
	.loc 1 273 0
	mov	r6, #0
.LVL235:
.L66:
	.loc 1 274 0
	mov	r0, r10
	bl	printf
.LVL236:
	ldr	ip, [r7, #56]
	mov	r1, r6
	ldr	r3, [r7, #60]
	mov	r0, r9
	ldr	r2, [r7, #64]
	sub	r3, r3, ip
	add	r3, r3, r6
	add	r2, r6, r2
	add	ip, r7, r3
	add	lr, r3, #18
	ldrb	ip, [ip, #3272]	@ zero_extendqisi2
	.loc 1 273 0
	add	r6, r6, #1
.LVL237:
	.loc 1 274 0
	ldr	r3, [r7, lr, lsl #2]
	str	ip, [sp]
	bl	plogf
.LVL238:
	mov	r0, r8
	bl	printf
.LVL239:
	.loc 1 273 0
	ldr	r3, [r7, #68]
	ldr	r2, [r7, #64]
	sub	r3, r3, r2
	cmp	r6, r3
	bcc	.L66
.LVL240:
.L62:
	.loc 1 279 0
	movw	r0, #:lower16:.LC6
.LBB655:
	.loc 1 293 0
	movw	r10, #:lower16:.LC6
.LBE655:
	.loc 1 279 0
	movt	r0, #:upper16:.LC6
.LBB656:
	.loc 1 293 0
	movt	r10, #:upper16:.LC6
.LBE656:
	.loc 1 279 0
	bl	printf
.LVL241:
	movw	r0, #:lower16:.LC53
.LBB657:
	.loc 1 291 0
	movw	r7, #:lower16:_cpio_archive
.LVL242:
.LBE657:
	.loc 1 279 0
	movt	r0, #:upper16:.LC53
.LBB658:
	.loc 1 293 0
	movw	r9, #:lower16:.LC58
.LBE658:
	.loc 1 279 0
	bl	plogf
.LVL243:
	movw	r0, #:lower16:.LC8
.LBB659:
	.loc 1 291 0
	movt	r7, #:upper16:_cpio_archive
.LBE659:
	.loc 1 279 0
	movt	r0, #:upper16:.LC8
.LBB660:
	.loc 1 293 0
	movt	r9, #:upper16:.LC58
.LBE660:
	.loc 1 279 0
	bl	printf
.LVL244:
	.loc 1 282 0
	mov	r0, r10
	.loc 1 286 0
	mov	r6, #0
	.loc 1 282 0
	bl	printf
.LVL245:
	movw	r0, #:lower16:.LC54
	movt	r0, #:upper16:.LC54
	bl	plogf
.LVL246:
	movw	r0, #:lower16:.LC8
	movt	r0, #:upper16:.LC8
	bl	printf
.LVL247:
	.loc 1 283 0
	mov	r0, r10
	bl	printf
.LVL248:
	movw	r0, #:lower16:.LC55
	movt	r0, #:upper16:.LC55
	bl	plogf
.LVL249:
	movw	r0, #:lower16:.LC8
	movt	r0, #:upper16:.LC8
	bl	printf
.LVL250:
	.loc 1 284 0
	mov	r0, r10
	bl	printf
.LVL251:
	movw	r0, #:lower16:.LC56
	movt	r0, #:upper16:.LC56
	bl	plogf
.LVL252:
	movw	r0, #:lower16:.LC8
	movt	r0, #:upper16:.LC8
	bl	printf
.LVL253:
	.loc 1 285 0
	mov	r0, r10
	bl	printf
.LVL254:
	movw	r0, #:lower16:.LC57
	movt	r0, #:upper16:.LC57
	bl	plogf
.LVL255:
	movw	r0, #:lower16:.LC8
	movt	r0, #:upper16:.LC8
	bl	printf
.LVL256:
	b	.L65
.LVL257:
.L75:
.LBB661:
	.loc 1 293 0
	mov	r0, r10
.LVL258:
	bl	printf
.LVL259:
	ldr	ip, [sp, #384]
	mov	r1, r6
	mov	r0, r9
	ldr	r2, [sp, #2248]
	mov	r3, r8
.LBE661:
	.loc 1 286 0
	add	r6, r6, #1
.LVL260:
.LBB662:
	.loc 1 293 0
	str	ip, [sp]
	bl	plogf
.LVL261:
	movw	r0, #:lower16:.LC8
	movt	r0, #:upper16:.LC8
	bl	printf
.LVL262:
.L65:
	.loc 1 291 0
	add	r2, sp, #2240
	add	r3, sp, #384
	add	r2, r2, #8
	mov	r1, r6
	mov	r0, r7
	bl	cpio_get_entry
.LVL263:
	.loc 1 292 0
	subs	r8, r0, #0
	bne	.L75
.LBE662:
	.loc 1 298 0
	movw	r0, #:lower16:.LC6
.LVL264:
.LBE654:
.LBE653:
.LBB668:
.LBB669:
	.loc 1 493 0
	movw	r9, #:lower16:cur_cspace
.LBE669:
.LBE668:
.LBB693:
.LBB663:
	.loc 1 298 0
	movt	r0, #:upper16:.LC6
.LBE663:
.LBE693:
.LBB694:
.LBB686:
	.loc 1 493 0
	movw	r6, #:lower16:_sos_interrupt_ep_cap
.LVL265:
.LBE686:
.LBE694:
.LBB695:
.LBB664:
	.loc 1 298 0
	bl	printf
.LVL266:
	movw	r0, #:lower16:.LC55
.LBE664:
.LBE695:
.LBB696:
.LBB687:
	.loc 1 493 0
	movt	r6, #:upper16:_sos_interrupt_ep_cap
.LBE687:
.LBE696:
.LBB697:
.LBB665:
	.loc 1 298 0
	movt	r0, #:upper16:.LC55
.LBE665:
.LBE697:
.LBB698:
.LBB688:
	.loc 1 493 0
	movt	r9, #:upper16:cur_cspace
.LBE688:
.LBE698:
.LBB699:
.LBB666:
	.loc 1 298 0
	bl	plogf
.LVL267:
	movw	r0, #:lower16:.LC8
.LBE666:
.LBE699:
.LBB700:
.LBB689:
.LBB670:
.LBB671:
.LBB672:
.LBB673:
	.loc 3 366 0
	mvn	r7, #0
.LBE673:
.LBE672:
.LBE671:
.LBE670:
.LBE689:
.LBE700:
.LBB701:
.LBB667:
	.loc 1 298 0
	movt	r0, #:upper16:.LC8
	bl	printf
.LVL268:
.LBE667:
.LBE701:
	.loc 1 530 0
	ldr	r3, [sp, #12]
	ldr	r0, [r3]
	bl	ut_table_init
.LVL269:
	.loc 1 531 0
	movw	r3, #531
	movw	r2, #:lower16:.LC1
	movw	r1, #:lower16:.LC59
	str	r3, [sp]
	movt	r2, #:upper16:.LC1
	movt	r1, #:upper16:.LC59
	ldr	r3, .L76
	bl	__conditional_panic
.LVL270:
	.loc 1 533 0
	mov	r0, #22
	bl	ut_steal_mem
.LVL271:
	.loc 1 534 0
	movw	r3, #534
	mov	r10, r0
	movw	r2, #:lower16:.LC1
	clz	r0, r0
.LVL272:
	movw	r1, #:lower16:.LC60
	movt	r2, #:upper16:.LC1
	str	r3, [sp]
	lsr	r0, r0, #5
	ldr	r3, .L76
	movt	r1, #:upper16:.LC60
	bl	__conditional_panic
.LVL273:
	.loc 1 537 0
	add	r1, sp, #2240
	add	r0, sp, #384
	add	r1, r1, #8
	bl	ut_find_memory
.LVL274:
	.loc 1 540 0
	ldr	r1, [sp, #2248]
	ldr	r0, [sp, #384]
	bl	ut_allocator_init
.LVL275:
	.loc 1 543 0
	movw	ip, #:lower16:free
	movw	r3, #:lower16:malloc
	movt	ip, #:upper16:free
	movw	r2, #:lower16:ut_translate
	movw	r1, #:lower16:ut_free
	movw	r0, #:lower16:ut_alloc
	str	ip, [sp]
	movt	r3, #:upper16:malloc
	movt	r2, #:upper16:ut_translate
	movt	r1, #:upper16:ut_free
	movt	r0, #:upper16:ut_alloc
	bl	cspace_root_task_bootstrap
.LVL276:
	.loc 1 545 0
	movw	r3, #545
	movw	r2, #:lower16:.LC1
	movw	r1, #:lower16:.LC61
	str	r3, [sp]
	movt	r2, #:upper16:.LC1
	ldr	r3, .L76
	movt	r1, #:upper16:.LC61
	bl	__conditional_panic
.LVL277:
	.loc 1 548 0
	mov	r0, r10
	mov	r1, #22
	bl	dma_init
.LVL278:
	.loc 1 549 0
	movw	r3, #549
	movw	r2, #:lower16:.LC1
	movw	r1, #:lower16:.LC62
	str	r3, [sp]
	movt	r2, #:upper16:.LC1
	movt	r1, #:upper16:.LC62
	ldr	r3, .L76
	bl	__conditional_panic
.LVL279:
.LBB702:
.LBB690:
	.loc 1 491 0
	mov	r0, #4
	bl	ut_alloc
.LVL280:
	.loc 1 492 0
	mov	r3, #492
	mov	r10, r0
.LVL281:
	movw	r2, #:lower16:.LC1
	clz	r0, r0
.LVL282:
	movw	r1, #:lower16:.LC63
	str	r3, [sp]
	lsr	r0, r0, #5
	movt	r2, #:upper16:.LC1
	movt	r1, #:upper16:.LC63
	ldr	r3, .L76+4
	bl	__conditional_panic
.LVL283:
	.loc 1 493 0
	ldr	r3, [r9]
	mov	r0, r10
	str	r6, [sp]
	mov	r2, #4
	mov	r1, #3
	bl	cspace_ut_retype_addr
.LVL284:
	.loc 1 498 0
	movw	r3, #498
	movw	r2, #:lower16:.LC1
	movw	r1, #:lower16:.LC64
	str	r3, [sp]
	movt	r2, #:upper16:.LC1
	movt	r1, #:upper16:.LC64
	ldr	r3, .L76+4
	bl	__conditional_panic
.LVL285:
.LBB685:
.LBB684:
.LBB676:
.LBB677:
.LBB678:
.LBB679:
	.loc 2 23 0
	mvn	r1, #12288
.LBE679:
.LBE678:
	.loc 2 81 0
	ldr	lr, [r6]
	ldr	ip, [r1, #-4095]
.LBE677:
.LBE676:
.LBB681:
.LBB674:
	.loc 3 359 0
	mov	r0, #1
	.loc 3 383 0
	movw	r1, #45184
.LVL286:
.LBE674:
.LBE681:
.LBB682:
.LBB680:
	.loc 2 81 0
	str	lr, [ip, #488]
.LVL287:
.LBE680:
.LBE682:
.LBB683:
.LBB675:
	.loc 3 383 0
	.syntax divided
@ 383 "/home/mint/seL4/dhs-demo-feb-2018/stage/arm/imx6/include/sel4/arch/syscalls.h" 1
	swi #16777215
@ 0 "" 2
.LVL288:
	.arm
	.syntax unified
.LBE675:
.LBE683:
.LBE684:
.LBE685:
	.loc 1 502 0
	movw	r3, #502
	lsr	r0, r1, #12
	movw	r2, #:lower16:.LC1
	str	r3, [sp]
	movw	r1, #:lower16:.LC65
.LVL289:
	movt	r2, #:upper16:.LC1
	movt	r1, #:upper16:.LC65
	ldr	r3, .L76+4
	bl	__conditional_panic
.LVL290:
	.loc 1 506 0
	mov	r0, #4
	.loc 1 508 0
	movw	r6, #:lower16:_sos_ipc_ep_cap
	.loc 1 506 0
	bl	ut_alloc
.LVL291:
	.loc 1 507 0
	movw	r3, #507
	mov	r4, r0
	movw	r2, #:lower16:.LC1
	clz	r0, r0
.LVL292:
	movw	r1, #:lower16:.LC27
	.loc 1 508 0
	movt	r6, #:upper16:_sos_ipc_ep_cap
	.loc 1 507 0
	str	r3, [sp]
	lsr	r0, r0, #5
	movt	r2, #:upper16:.LC1
	ldr	r3, .L76+4
	movt	r1, #:upper16:.LC27
.LBE690:
.LBE702:
.LBE707:
.LBE712:
	.loc 1 773 0
	add	r5, sp, #32
.LBB713:
.LBB708:
.LBB703:
.LBB691:
	.loc 1 507 0
	bl	__conditional_panic
.LVL293:
	.loc 1 508 0
	ldr	r3, [r9]
	mov	r0, r4
	mov	r2, #4
	mov	r1, #2
	str	r6, [sp]
.LBE691:
.LBE703:
.LBE708:
.LBE713:
	.loc 1 774 0
	add	r4, sp, #68
.LVL294:
.LBB714:
.LBB709:
.LBB704:
.LBB692:
	.loc 1 508 0
	bl	cspace_ut_retype_addr
.LVL295:
	.loc 1 513 0
	movw	r3, #513
	movw	r2, #:lower16:.LC1
	movw	r1, #:lower16:.LC66
	str	r3, [sp]
	movt	r2, #:upper16:.LC1
	ldr	r3, .L76+4
	movt	r1, #:upper16:.LC66
	bl	__conditional_panic
.LVL296:
.LBE692:
.LBE704:
.LBE709:
.LBE714:
	.loc 1 771 0
	movw	r1, #:lower16:.LC67
	mov	r2, #65
	movt	r1, #:upper16:.LC67
	add	r0, sp, #248
	bl	memcpy
.LVL297:
	.loc 1 772 0
	movw	r1, #:lower16:.LC68
	mov	r2, #65
	movt	r1, #:upper16:.LC68
	add	r0, sp, #316
	bl	memcpy
.LVL298:
	.loc 1 773 0
	movw	lr, #:lower16:.LC69
	.loc 1 774 0
	movw	ip, #:lower16:.LC70
	.loc 1 773 0
	movt	lr, #:upper16:.LC69
	.loc 1 774 0
	movt	ip, #:upper16:.LC70
	.loc 1 773 0
	ldmia	lr!, {r0, r1, r2, r3}
	stmia	r5!, {r0, r1, r2, r3}
	ldmia	lr!, {r0, r1, r2, r3}
	stmia	r5!, {r0, r1, r2, r3}
	ldr	lr, [lr]
	.loc 1 774 0
	ldmia	ip!, {r0, r1, r2, r3}
	.loc 1 773 0
	strb	lr, [r5]
	.loc 1 797 0
	add	r5, sp, #64
	.loc 1 774 0
	stmia	r4!, {r0, r1, r2, r3}
	ldmia	ip!, {r0, r1, r2, r3}
	stmia	r4!, {r0, r1, r2, r3}
	.loc 1 784 0
	movw	r0, #:lower16:.LC71
	.loc 1 774 0
	ldr	ip, [ip]
	.loc 1 784 0
	mov	r3, r8
	movt	r0, #:upper16:.LC71
	add	r2, sp, #104
	ldr	r1, [r6]
	.loc 1 774 0
	strb	ip, [r4]
	.loc 1 797 0
	add	r4, sp, #32
	.loc 1 784 0
	bl	start_process
.LVL299:
	.loc 1 785 0
	movw	r0, #:lower16:.LC72
	add	r2, sp, #140
	ldr	r1, [r6]
	movt	r0, #:upper16:.LC72
	mov	r3, #1
	bl	start_process
.LVL300:
	.loc 1 786 0
	movw	r0, #:lower16:.LC73
	add	r2, sp, #212
	ldr	r1, [r6]
	movt	r0, #:upper16:.LC73
	mov	r3, #1
	bl	start_process
.LVL301:
	.loc 1 787 0
	movw	r0, #:lower16:.LC73
	add	r2, sp, #176
	ldr	r1, [r6]
	movt	r0, #:upper16:.LC73
	mov	r3, #1
	bl	start_process
.LVL302:
	.loc 1 795 0
	movw	r0, #:lower16:.LC74
	.loc 1 791 0
	mov	r3, #1
	.loc 1 793 0
	mov	r1, #3
	.loc 1 794 0
	movw	r2, #4444
	.loc 1 795 0
	movt	r0, #:upper16:.LC74
	.loc 1 793 0
	str	r1, [sp, #392]
	.loc 1 794 0
	str	r2, [sp, #396]
	.loc 1 791 0
	str	r3, [sp, #384]
	.loc 1 792 0
	str	r3, [sp, #2244]
	.loc 1 795 0
	bl	decode_ip
.LVL303:
	.loc 1 796 0
	add	r1, sp, #248
	.loc 1 795 0
	str	r0, [sp, #400]
	.loc 1 796 0
	mov	r2, #65
	add	r0, sp, #404
	bl	memcpy
.LVL304:
	.loc 1 797 0
	add	lr, sp, #468
	add	lr, lr, #1
.L68:
	mov	ip, r4
	add	lr, lr, #16
	ldmia	ip!, {r0, r1, r2, r3}
	add	r4, r4, #16
	cmp	ip, r5
	str	r0, [lr, #-16]	@ unaligned
	str	r1, [lr, #-12]	@ unaligned
	str	r2, [lr, #-8]	@ unaligned
	str	r3, [lr, #-4]	@ unaligned
	bne	.L68
	ldrb	r0, [r4]	@ zero_extendqisi2
	.loc 1 801 0
	mov	r1, #7
	add	r3, sp, #388
	add	r2, sp, #16
	stm	sp, {r1, r3}
	add	r3, sp, #176
	.loc 1 797 0
	strb	r0, [lr]
	.loc 1 801 0
	add	r0, sp, #140
	bl	connect_processes
.LVL305:
	.loc 1 808 0
	add	r2, sp, #384
	add	r0, sp, #176
	movw	r3, #1864
	mov	r1, #1879048192
	bl	initialize_process_config
.LVL306:
	.loc 1 813 0
	add	ip, sp, #4096
	.loc 1 816 0
	movw	r0, #:lower16:.LC74
	.loc 1 812 0
	mov	r3, #1
	.loc 1 813 0
	add	ip, ip, #12
	.loc 1 814 0
	mov	r1, #3
	.loc 1 815 0
	movw	r2, #4445
	.loc 1 816 0
	movt	r0, #:upper16:.LC74
	.loc 1 813 0
	str	r3, [ip]
	.loc 1 812 0
	str	r3, [sp, #2248]
	.loc 1 818 0
	add	r5, sp, #2320
	.loc 1 814 0
	str	r1, [sp, #2256]
	.loc 1 818 0
	add	r5, r5, #13
	.loc 1 815 0
	str	r2, [sp, #2260]
	.loc 1 816 0
	bl	decode_ip
.LVL307:
	str	r0, [sp, #2264]
	.loc 1 817 0
	add	r0, sp, #2256
	add	r1, sp, #316
	mov	r2, #65
	add	r0, r0, #12
	bl	memcpy
.LVL308:
	.loc 1 818 0
	add	ip, sp, #68
	add	lr, sp, #100
.L69:
	mov	r4, ip
	add	r5, r5, #16
	ldmia	r4!, {r0, r1, r2, r3}
	add	ip, ip, #16
	cmp	r4, lr
	str	r0, [r5, #-16]	@ unaligned
	str	r1, [r5, #-12]	@ unaligned
	str	r2, [r5, #-8]	@ unaligned
	str	r3, [r5, #-4]	@ unaligned
	bne	.L69
	ldrb	r0, [ip]	@ zero_extendqisi2
	.loc 1 822 0
	add	r3, sp, #2256
	mov	r4, #7
	sub	r3, r3, #4
	str	r3, [sp, #4]
	mov	r1, r4
	str	r4, [sp]
	add	r3, sp, #212
	add	r2, sp, #20
	.loc 1 818 0
	strb	r0, [r5]
	.loc 1 822 0
	add	r0, sp, #140
	bl	connect_processes
.LVL309:
	.loc 1 829 0
	add	r2, sp, #2240
	add	r0, sp, #212
	add	r2, r2, #8
	movw	r3, #1864
	mov	r1, #1879048192
	bl	initialize_process_config
.LVL310:
	.loc 1 836 0
	add	r2, sp, #28
	mov	r1, r4
	add	r3, sp, #104
	str	r2, [sp, #4]
	str	r4, [sp]
	add	r2, sp, #24
	add	r0, sp, #140
	bl	connect_processes
.LVL311:
	.loc 1 879 0
	movw	r0, #:lower16:.LC6
	movt	r0, #:upper16:.LC6
	bl	printf
.LVL312:
	movw	r0, #:lower16:.LC75
	movt	r0, #:upper16:.LC75
	bl	plogf
.LVL313:
	movw	r0, #:lower16:.LC8
	movt	r0, #:upper16:.LC8
	bl	printf
.LVL314:
	.loc 1 880 0
	ldr	r0, [r6]
	bl	syscall_loop
.LVL315:
.L77:
	.align	2
.L76:
	.word	.LANCHOR0+144
	.word	.LANCHOR0+156
	.cfi_endproc
.LFE148:
	.fnend
	.size	main, .-main
	.comm	_sos_interrupt_ep_cap,4,4
	.comm	_sos_ipc_ep_cap,4,4
	.comm	tty_test_process,28,4
	.comm	_boot_info,4,4
	.section	.rodata
	.align	2
	.set	.LANCHOR0,. + 0
	.type	__func__.6611, %object
	.size	__func__.6611, 15
__func__.6611:
	.ascii	"handle_syscall\000"
	.space	1
	.type	__func__.6623, %object
	.size	__func__.6623, 13
__func__.6623:
	.ascii	"syscall_loop\000"
	.space	3
	.type	__func__.6649, %object
	.size	__func__.6649, 21
__func__.6649:
	.ascii	"create_worker_thread\000"
	.space	3
	.type	__func__.6665, %object
	.size	__func__.6665, 14
__func__.6665:
	.ascii	"start_process\000"
	.space	2
	.type	__func__.6704, %object
	.size	__func__.6704, 18
__func__.6704:
	.ascii	"connect_processes\000"
	.space	2
	.type	__func__.6713, %object
	.size	__func__.6713, 22
__func__.6713:
	.ascii	"allocate_and_map_page\000"
	.space	2
	.type	__func__.6723, %object
	.size	__func__.6723, 26
__func__.6723:
	.ascii	"initialize_process_config\000"
	.space	2
	.type	__func__.6686, %object
	.size	__func__.6686, 10
__func__.6686:
	.ascii	"_sos_init\000"
	.space	2
	.type	__func__.6677, %object
	.size	__func__.6677, 14
__func__.6677:
	.ascii	"_sos_ipc_init\000"
	.data
	.align	2
	.set	.LANCHOR1,. + 0
	.type	local_v_dest.6720, %object
	.size	local_v_dest.6720, 4
local_v_dest.6720:
	.word	1879048192
	.section	.rodata.str1.4,"aMS",%progbits,1
	.align	2
.LC0:
	.ascii	"%i.%i.%i.%i\000"
.LC1:
	.ascii	"/home/mint/seL4/dhs-demo-feb-2018/apps/sos/src/main"
	.ascii	".c\000"
	.space	2
.LC2:
	.ascii	"reply_cap != CSPACE_NULL\000"
	.space	3
.LC3:
	.ascii	"Unknown syscall %d\012\000"
.LC4:
	.ascii	"Instruction Fault\000"
	.space	2
.LC5:
	.ascii	"Data fault\000"
	.space	1
.LC6:
	.ascii	"\033[22;33m\000"
	.space	3
.LC7:
	.ascii	"vm fault at 0x%08x, pc = 0x%08x, %s\012\000"
	.space	3
.LC8:
	.ascii	"\033[0;0m\000"
	.space	1
.LC9:
	.ascii	"!\"Unable to handle vm faults\"\000"
	.space	2
.LC10:
	.ascii	"Rootserver got an unknown message. Label: %i\012\000"
	.space	2
.LC11:
	.ascii	"No memory for ipc buffer\000"
	.space	3
.LC12:
	.ascii	"Unable to allocate page for IPC buffer\000"
	.space	1
.LC13:
	.ascii	"No memory for new worker TCB\000"
	.space	3
.LC14:
	.ascii	"Failed to create TCB\000"
	.space	3
.LC15:
	.ascii	"Unable to configure new TCB\000"
.LC16:
	.ascii	"Unable to map IPC buffer for user app\000"
	.space	2
.LC17:
	.ascii	"No memory for new Page Directory\000"
	.space	3
.LC18:
	.ascii	"Failed to allocate page directory cap for client\000"
	.space	3
.LC19:
	.ascii	"proc->croot != NULL\000"
.LC20:
	.ascii	"No memory for new TCB\000"
	.space	2
.LC21:
	.ascii	"\012Starting \"%s\"...\012\000"
	.space	1
.LC22:
	.ascii	"Unable to locate cpio header\000"
	.space	3
.LC23:
	.ascii	"Failed to load elf image\000"
	.space	3
.LC24:
	.ascii	"No memory for stack\000"
.LC25:
	.ascii	"Unable to allocate page for stack\000"
	.space	2
.LC26:
	.ascii	"Unable to map stack IPC buffer for user app\000"
.LC27:
	.ascii	"No memory for endpoint\000"
	.space	1
.LC28:
	.ascii	"Failed to allocate c-slot for endpoint.\000"
.LC29:
	.ascii	"SOS: connecting %d -> %d\012\000"
	.space	2
.LC30:
	.ascii	"Unable to retype page.\000"
	.space	1
.LC31:
	.ascii	"Unable to map page\000"
	.space	1
.LC32:
	.ascii	"Config buffer too large\000"
.LC33:
	.ascii	"Unable to duplicate page cap\000"
	.space	3
.LC34:
	.ascii	"Unable to duplicate page mapping in root task\000"
	.space	2
.LC35:
	.ascii	"\012SOS Starting...\012\000"
	.space	2
.LC36:
	.ascii	"Failed to retrieve boot info\012\000"
	.space	2
.LC37:
	.ascii	"Info Page:  %p\012\000"
.LC38:
	.ascii	"IPC Buffer: %p\012\000"
.LC39:
	.ascii	"Node ID: %d (of %d)\012\000"
	.space	3
.LC40:
	.ascii	"IOPT levels: %d\012\000"
	.space	3
.LC41:
	.ascii	"Init cnode size bits: %d\012\000"
	.space	2
.LC42:
	.ascii	"\012Cap details:\012\000"
	.space	1
.LC43:
	.ascii	"Type              Start      End\012\000"
	.space	2
.LC44:
	.ascii	"Empty             0x%08x 0x%08x\012\000"
	.space	3
.LC45:
	.ascii	"Shared frames     0x%08x 0x%08x\012\000"
	.space	3
.LC46:
	.ascii	"User image frames 0x%08x 0x%08x\012\000"
	.space	3
.LC47:
	.ascii	"User image PTs    0x%08x 0x%08x\012\000"
	.space	3
.LC48:
	.ascii	"Untypeds          0x%08x 0x%08x\012\000"
	.space	3
.LC49:
	.ascii	"\012Untyped details:\012\000"
	.space	1
.LC50:
	.ascii	"Untyped Slot       Paddr      Bits\012\000"
.LC51:
	.ascii	"\012Device untyped details:\012\000"
	.space	2
.LC52:
	.ascii	"%3d     0x%08x 0x%08x %d\012\000"
	.space	2
.LC53:
	.ascii	"-----------------------------------------\012\012\000"
.LC54:
	.ascii	"Parsing cpio data:\012\000"
.LC55:
	.ascii	"---------------------------------------------------"
	.ascii	"-----\012\000"
	.space	2
.LC56:
	.ascii	"| index |        name      |  address   | size (byt"
	.ascii	"es) |\012\000"
	.space	2
.LC57:
	.ascii	"|--------------------------------------------------"
	.ascii	"----|\012\000"
	.space	2
.LC58:
	.ascii	"| %3d   | %16s | %p | %12d |\012\000"
	.space	2
.LC59:
	.ascii	"Failed to initialise Untyped Table\012\000"
.LC60:
	.ascii	"Failed to reserve DMA memory\012\000"
	.space	2
.LC61:
	.ascii	"Failed to initialise the c space\012\000"
	.space	2
.LC62:
	.ascii	"Failed to intiialise DMA memory\012\000"
	.space	3
.LC63:
	.ascii	"No memory for async endpoint\000"
	.space	3
.LC64:
	.ascii	"Failed to allocate c-slot for Interrupt endpoint\000"
	.space	3
.LC65:
	.ascii	"Failed to bind ASync EP to TCB\000"
	.space	1
.LC66:
	.ascii	"Failed to allocate c-slot for IPC endpoint\000"
	.space	1
.LC71:
	.ascii	"web\000"
.LC72:
	.ascii	"temp_control\000"
	.space	3
.LC73:
	.ascii	"proxy\000"
	.space	2
.LC74:
	.ascii	"192.168.168.2\000"
	.space	2
.LC75:
	.ascii	"\012SOS entering syscall loop\012\000"
.LC67:
	.ascii	"C480FD91B1B29293C1BD65D1E35B0E210B5B189BD77643C6B5B"
	.ascii	"731B33FC4D2C1\000"
	.space	3
.LC68:
	.ascii	"7D74FF4C3705DF5FCA68418BFCFBA32E9F246A6C9B85F2480F9"
	.ascii	"5B9D3BC32612E\000"
	.space	3
.LC69:
	.ascii	"827C43085639350AB66A23B700C69B2A\000"
	.space	3
.LC70:
	.ascii	"BE0721CAC6FFBC2ED3698BC84068FE7F\000"
	.text
.Letext0:
	.file 5 "/home/mint/seL4/dhs-demo-feb-2018/stage/arm/imx6/include/bits/alltypes.h"
	.file 6 "/home/mint/seL4/dhs-demo-feb-2018/stage/arm/imx6/include/sel4/arch/simple_types.h"
	.file 7 "/home/mint/seL4/dhs-demo-feb-2018/stage/arm/imx6/include/sel4/simple_types.h"
	.file 8 "/home/mint/seL4/dhs-demo-feb-2018/stage/arm/imx6/include/sel4/arch/types.h"
	.file 9 "/home/mint/seL4/dhs-demo-feb-2018/stage/arm/imx6/include/sel4/syscall.h"
	.file 10 "/home/mint/seL4/dhs-demo-feb-2018/stage/arm/imx6/include/sel4/objecttype.h"
	.file 11 "/home/mint/seL4/dhs-demo-feb-2018/stage/arm/imx6/include/sel4/constants.h"
	.file 12 "/home/mint/seL4/dhs-demo-feb-2018/stage/arm/imx6/include/sel4/types.h"
	.file 13 "/home/mint/seL4/dhs-demo-feb-2018/stage/arm/imx6/include/sel4/arch/objecttype.h"
	.file 14 "/home/mint/seL4/dhs-demo-feb-2018/stage/arm/imx6/include/cspace/cspace.h"
	.file 15 "/home/mint/seL4/dhs-demo-feb-2018/stage/arm/imx6/include/lwip/arch/cc.h"
	.file 16 "/home/mint/seL4/dhs-demo-feb-2018/stage/arm/imx6/include/lwip/ip_addr.h"
	.file 17 "/home/mint/seL4/dhs-demo-feb-2018/stage/arm/imx6/include/sel4/invocation.h"
	.file 18 "/home/mint/seL4/dhs-demo-feb-2018/stage/arm/imx6/include/sel4/bootinfo.h"
	.file 19 "/home/mint/seL4/dhs-demo-feb-2018/stage/arm/imx6/include/interfaces/sel4_client.h"
	.file 20 "/home/mint/seL4/dhs-demo-feb-2018/stage/arm/imx6/include/stdio.h"
	.file 21 "/home/mint/seL4/dhs-demo-feb-2018/apps/sos/src/udp_syscall.h"
	.file 22 "/home/mint/seL4/dhs-demo-feb-2018/stage/arm/imx6/include/sel4/assert.h"
	.file 23 "/home/mint/seL4/dhs-demo-feb-2018/apps/sos/src/network.h"
	.file 24 "/home/mint/seL4/dhs-demo-feb-2018/apps/sos/src/sys/debug.h"
	.file 25 "/home/mint/seL4/dhs-demo-feb-2018/apps/sos/src/ut_manager/ut.h"
	.file 26 "/home/mint/seL4/dhs-demo-feb-2018/apps/sos/src/sys/panic.h"
	.file 27 "/home/mint/seL4/dhs-demo-feb-2018/apps/sos/src/mapping.h"
	.file 28 "/home/mint/seL4/dhs-demo-feb-2018/stage/arm/imx6/include/cpio/cpio.h"
	.file 29 "/home/mint/seL4/dhs-demo-feb-2018/apps/sos/src/elf.h"
	.file 30 "/home/mint/seL4/dhs-demo-feb-2018/stage/arm/imx6/include/elf/elf.h"
	.section	.note.GNU-stack,"",%progbits
