	.cpu cortex-a9
	.fpu softvfp
	.eabi_attribute 20, 1
	.eabi_attribute 21, 1
	.eabi_attribute 23, 3
	.eabi_attribute 24, 1
	.eabi_attribute 25, 1
	.eabi_attribute 26, 2
	.eabi_attribute 30, 2
	.eabi_attribute 34, 1
	.eabi_attribute 18, 4
	.file	"list.c"
	.text
.Ltext0:
	.cfi_sections	.debug_frame
	.align	2
	.syntax unified
	.arm
	.type	remove, %function
remove:
	.fnstart
.LFB9:
	.file 1 "/home/mint/seL4/dhs-demo-feb-2018/libs/libutils/src/list.c"
	.loc 1 96 0
	.cfi_startproc
	@ args = 0, pretend = 0, frame = 0
	@ frame_needed = 0, uses_anonymous_args = 0
.LVL0:
	push	{r4, r5, r6, r7, r8, r9, r10, lr}
	.save {r4, r5, r6, r7, r8, r9, r10, lr}
	.cfi_def_cfa_offset 32
	.cfi_offset 4, -32
	.cfi_offset 5, -28
	.cfi_offset 6, -24
	.cfi_offset 7, -20
	.cfi_offset 8, -16
	.cfi_offset 9, -12
	.cfi_offset 10, -8
	.cfi_offset 14, -4
	.loc 1 97 0
	subs	r9, r0, #0
	.loc 1 96 0
	mov	r7, r1
	mov	r8, r2
	mov	r10, r3
	.loc 1 97 0
	beq	.L16
.LVL1:
.L2:
.LBB6:
	.loc 1 98 0
	ldr	r4, [r9]
.LVL2:
	cmp	r4, #0
	movne	r6, #0
	bne	.L8
	b	.L9
.LVL3:
.L5:
	.loc 1 98 0 is_stmt 0 discriminator 2
	cmp	r3, #0
	mov	r6, r4
	mov	r4, r3
.LVL4:
	beq	.L9
.LVL5:
.L8:
	.loc 1 99 0 is_stmt 1
	mov	r1, r7
	ldr	r0, [r4]
	blx	r8
.LVL6:
	subs	r5, r0, #0
	.loc 1 102 0
	ldr	r3, [r4, #4]
	.loc 1 99 0
	bne	.L5
	.loc 1 100 0
	cmp	r6, #0
	.loc 1 102 0
	streq	r3, [r9]
	.loc 1 104 0
	strne	r3, [r6, #4]
	.loc 1 106 0
	cmp	r10, #0
	beq	.L4
	.loc 1 107 0
	mov	r0, r4
	bl	free
.LVL7:
.LBE6:
	.loc 1 113 0
	mov	r0, r5
	pop	{r4, r5, r6, r7, r8, r9, r10, pc}
.LVL8:
.L9:
	.loc 1 112 0
	mvn	r5, #0
.L4:
	.loc 1 113 0
	mov	r0, r5
	pop	{r4, r5, r6, r7, r8, r9, r10, pc}
.LVL9:
.L16:
	.loc 1 97 0 discriminator 1
	movw	r3, #:lower16:.LANCHOR0
.LVL10:
	movw	r1, #:lower16:.LC0
.LVL11:
	movw	r0, #:lower16:.LC1
.LVL12:
	movt	r3, #:upper16:.LANCHOR0
	movt	r1, #:upper16:.LC0
	movt	r0, #:upper16:.LC1
	mov	r2, #97
.LVL13:
	bl	__assert_fail
.LVL14:
	b	.L2
	.cfi_endproc
.LFE9:
	.fnend
	.size	remove, .-remove
	.align	2
	.global	list_init
	.syntax unified
	.arm
	.type	list_init, %function
list_init:
	.fnstart
.LFB0:
	.loc 1 18 0
	.cfi_startproc
	@ args = 0, pretend = 0, frame = 0
	@ frame_needed = 0, uses_anonymous_args = 0
.LVL15:
	push	{r4, lr}
	.save {r4, lr}
	.cfi_def_cfa_offset 8
	.cfi_offset 4, -8
	.cfi_offset 14, -4
	.loc 1 19 0
	subs	r4, r0, #0
	beq	.L20
.LVL16:
.L18:
	.loc 1 20 0
	mov	r0, #0
	str	r0, [r4]
	.loc 1 22 0
	pop	{r4, pc}
.LVL17:
.L20:
	.loc 1 19 0 discriminator 1
	movw	r1, #:lower16:.LC0
	movw	r0, #:lower16:.LC1
.LVL18:
	movt	r1, #:upper16:.LC0
	movt	r0, #:upper16:.LC1
	ldr	r3, .L21
	mov	r2, #19
	bl	__assert_fail
.LVL19:
	b	.L18
.L22:
	.align	2
.L21:
	.word	.LANCHOR0+8
	.cfi_endproc
.LFE0:
	.fnend
	.size	list_init, .-list_init
	.align	2
	.global	list_is_empty
	.syntax unified
	.arm
	.type	list_is_empty, %function
list_is_empty:
	.fnstart
.LFB4:
	.loc 1 49 0
	.cfi_startproc
	@ args = 0, pretend = 0, frame = 0
	@ frame_needed = 0, uses_anonymous_args = 0
.LVL20:
	push	{r4, lr}
	.save {r4, lr}
	.cfi_def_cfa_offset 8
	.cfi_offset 4, -8
	.cfi_offset 14, -4
	.loc 1 50 0
	subs	r4, r0, #0
	beq	.L26
.LVL21:
.L24:
	.loc 1 51 0
	ldr	r0, [r4]
	.loc 1 52 0
	clz	r0, r0
	lsr	r0, r0, #5
	pop	{r4, pc}
.LVL22:
.L26:
	.loc 1 50 0 discriminator 1
	movw	r1, #:lower16:.LC0
	movw	r0, #:lower16:.LC1
.LVL23:
	movt	r1, #:upper16:.LC0
	movt	r0, #:upper16:.LC1
	ldr	r3, .L27
	mov	r2, #50
	bl	__assert_fail
.LVL24:
	b	.L24
.L28:
	.align	2
.L27:
	.word	.LANCHOR0+20
	.cfi_endproc
.LFE4:
	.fnend
	.size	list_is_empty, .-list_is_empty
	.align	2
	.global	list_exists
	.syntax unified
	.arm
	.type	list_exists, %function
list_exists:
	.fnstart
.LFB5:
	.loc 1 54 0
	.cfi_startproc
	@ args = 0, pretend = 0, frame = 0
	@ frame_needed = 0, uses_anonymous_args = 0
.LVL25:
	push	{r4, r5, r6, lr}
	.save {r4, r5, r6, lr}
	.cfi_def_cfa_offset 16
	.cfi_offset 4, -16
	.cfi_offset 5, -12
	.cfi_offset 6, -8
	.cfi_offset 14, -4
	.loc 1 55 0
	subs	r4, r0, #0
	.loc 1 54 0
	mov	r5, r1
	mov	r6, r2
	.loc 1 55 0
	beq	.L38
.LVL26:
.L30:
.LBB7:
	.loc 1 56 0
	ldr	r4, [r4]
.LVL27:
	cmp	r4, #0
	bne	.L33
	b	.L34
.L39:
	.loc 1 56 0 is_stmt 0 discriminator 2
	ldr	r4, [r4, #4]
.LVL28:
	cmp	r4, #0
	beq	.L34
.L33:
	.loc 1 57 0 is_stmt 1
	mov	r1, r5
	ldr	r0, [r4]
	blx	r6
.LVL29:
	cmp	r0, #0
	bne	.L39
	.loc 1 58 0
	mov	r0, #1
.LBE7:
	.loc 1 62 0
	pop	{r4, r5, r6, pc}
.L34:
	.loc 1 61 0
	mov	r0, #0
	pop	{r4, r5, r6, pc}
.LVL30:
.L38:
	.loc 1 55 0 discriminator 1
	movw	r1, #:lower16:.LC0
.LVL31:
	movw	r0, #:lower16:.LC1
.LVL32:
	movt	r1, #:upper16:.LC0
	movt	r0, #:upper16:.LC1
	ldr	r3, .L40
	mov	r2, #55
.LVL33:
	bl	__assert_fail
.LVL34:
	b	.L30
.L41:
	.align	2
.L40:
	.word	.LANCHOR0+36
	.cfi_endproc
.LFE5:
	.fnend
	.size	list_exists, .-list_exists
	.align	2
	.global	list_length
	.syntax unified
	.arm
	.type	list_length, %function
list_length:
	.fnstart
.LFB6:
	.loc 1 64 0
	.cfi_startproc
	@ args = 0, pretend = 0, frame = 0
	@ frame_needed = 0, uses_anonymous_args = 0
.LVL35:
	push	{r4, lr}
	.save {r4, lr}
	.cfi_def_cfa_offset 8
	.cfi_offset 4, -8
	.cfi_offset 14, -4
	.loc 1 65 0
	subs	r4, r0, #0
	beq	.L49
.LVL36:
.L43:
.LBB8:
	.loc 1 67 0
	ldr	r3, [r4]
.LVL37:
	cmp	r3, #0
	beq	.L46
	.loc 1 67 0 is_stmt 0 discriminator 3
	mov	r0, #0
.LVL38:
.L45:
	ldr	r3, [r3, #4]
.LVL39:
	.loc 1 68 0 is_stmt 1 discriminator 3
	add	r0, r0, #1
.LVL40:
	.loc 1 67 0 discriminator 3
	cmp	r3, #0
	bne	.L45
	pop	{r4, pc}
.LVL41:
.L46:
.LBE8:
	.loc 1 66 0
	mov	r0, r3
	.loc 1 71 0
	pop	{r4, pc}
.LVL42:
.L49:
	.loc 1 65 0 discriminator 1
	movw	r1, #:lower16:.LC0
	movw	r0, #:lower16:.LC1
.LVL43:
	movt	r1, #:upper16:.LC0
	movt	r0, #:upper16:.LC1
	ldr	r3, .L50
	mov	r2, #65
	bl	__assert_fail
.LVL44:
	b	.L43
.L51:
	.align	2
.L50:
	.word	.LANCHOR0+48
	.cfi_endproc
.LFE6:
	.fnend
	.size	list_length, .-list_length
	.align	2
	.global	list_index
	.syntax unified
	.arm
	.type	list_index, %function
list_index:
	.fnstart
.LFB7:
	.loc 1 73 0
	.cfi_startproc
	@ args = 0, pretend = 0, frame = 0
	@ frame_needed = 0, uses_anonymous_args = 0
.LVL45:
	push	{r4, r5, r6, r7, r8, lr}
	.save {r4, r5, r6, r7, r8, lr}
	.cfi_def_cfa_offset 24
	.cfi_offset 4, -24
	.cfi_offset 5, -20
	.cfi_offset 6, -16
	.cfi_offset 7, -12
	.cfi_offset 8, -8
	.cfi_offset 14, -4
	.loc 1 74 0
	subs	r4, r0, #0
	.loc 1 73 0
	mov	r6, r1
	mov	r7, r2
	.loc 1 74 0
	beq	.L61
.LVL46:
.L53:
.LBB9:
	.loc 1 76 0
	ldr	r4, [r4]
.LVL47:
	cmp	r4, #0
	movne	r5, #0
	bne	.L56
	b	.L57
.LVL48:
.L62:
	.loc 1 76 0 is_stmt 0 discriminator 2
	ldr	r4, [r4, #4]
.LVL49:
	add	r5, r5, #1
.LVL50:
	cmp	r4, #0
	beq	.L57
.LVL51:
.L56:
	.loc 1 77 0 is_stmt 1
	mov	r1, r6
	ldr	r0, [r4]
	blx	r7
.LVL52:
	cmp	r0, #0
	bne	.L62
	mov	r0, r5
.LBE9:
	.loc 1 82 0
	pop	{r4, r5, r6, r7, r8, pc}
.LVL53:
.L57:
	.loc 1 81 0
	mvn	r0, #0
	pop	{r4, r5, r6, r7, r8, pc}
.LVL54:
.L61:
	.loc 1 74 0 discriminator 1
	movw	r1, #:lower16:.LC0
.LVL55:
	movw	r0, #:lower16:.LC1
.LVL56:
	movt	r1, #:upper16:.LC0
	movt	r0, #:upper16:.LC1
	ldr	r3, .L63
	mov	r2, #74
.LVL57:
	bl	__assert_fail
.LVL58:
	b	.L53
.L64:
	.align	2
.L63:
	.word	.LANCHOR0+60
	.cfi_endproc
.LFE7:
	.fnend
	.size	list_index, .-list_index
	.align	2
	.global	list_foreach
	.syntax unified
	.arm
	.type	list_foreach, %function
list_foreach:
	.fnstart
.LFB8:
	.loc 1 84 0
	.cfi_startproc
	@ args = 0, pretend = 0, frame = 0
	@ frame_needed = 0, uses_anonymous_args = 0
.LVL59:
	push	{r4, r5, r6, lr}
	.save {r4, r5, r6, lr}
	.cfi_def_cfa_offset 16
	.cfi_offset 4, -16
	.cfi_offset 5, -12
	.cfi_offset 6, -8
	.cfi_offset 14, -4
	.loc 1 85 0
	subs	r4, r0, #0
	.loc 1 84 0
	mov	r5, r1
	.loc 1 85 0
	beq	.L74
.LVL60:
.L66:
.LBB10:
	.loc 1 86 0
	ldr	r4, [r4]
.LVL61:
	cmp	r4, #0
	beq	.L70
.L69:
.LBB11:
	.loc 1 87 0
	ldr	r0, [r4]
	blx	r5
.LVL62:
	.loc 1 88 0
	cmp	r0, #0
	popne	{r4, r5, r6, pc}
.LBE11:
	.loc 1 86 0 discriminator 2
	ldr	r4, [r4, #4]
.LVL63:
	cmp	r4, #0
	bne	.L69
.LVL64:
.L70:
.LBE10:
	.loc 1 92 0
	mov	r0, #0
	pop	{r4, r5, r6, pc}
.LVL65:
.L74:
	.loc 1 85 0 discriminator 1
	movw	r1, #:lower16:.LC0
.LVL66:
	movw	r0, #:lower16:.LC1
.LVL67:
	movt	r1, #:upper16:.LC0
	movt	r0, #:upper16:.LC1
	ldr	r3, .L75
	mov	r2, #85
	bl	__assert_fail
.LVL68:
	b	.L66
.L76:
	.align	2
.L75:
	.word	.LANCHOR0+72
	.cfi_endproc
.LFE8:
	.fnend
	.size	list_foreach, .-list_foreach
	.align	2
	.global	list_remove
	.syntax unified
	.arm
	.type	list_remove, %function
list_remove:
	.fnstart
.LFB10:
	.loc 1 115 0
	.cfi_startproc
	@ args = 0, pretend = 0, frame = 0
	@ frame_needed = 0, uses_anonymous_args = 0
	@ link register save eliminated.
.LVL69:
	.loc 1 116 0
	mov	r3, #1
	b	remove
.LVL70:
	.cfi_endproc
.LFE10:
	.fnend
	.size	list_remove, .-list_remove
	.align	2
	.global	list_remove_all
	.syntax unified
	.arm
	.type	list_remove_all, %function
list_remove_all:
	.fnstart
.LFB11:
	.loc 1 119 0
	.cfi_startproc
	@ args = 0, pretend = 0, frame = 0
	@ frame_needed = 0, uses_anonymous_args = 0
.LVL71:
	push	{r4, r5, r6, lr}
	.save {r4, r5, r6, lr}
	.cfi_def_cfa_offset 16
	.cfi_offset 4, -16
	.cfi_offset 5, -12
	.cfi_offset 6, -8
	.cfi_offset 14, -4
	.loc 1 120 0
	subs	r5, r0, #0
	beq	.L86
.LVL72:
.L79:
.LBB12:
	.loc 1 121 0
	ldr	r0, [r5]
.LVL73:
	cmp	r0, #0
	beq	.L82
.L81:
.LBB13:
	.loc 1 122 0
	ldr	r4, [r0, #4]
.LVL74:
	.loc 1 123 0
	bl	free
.LVL75:
.LBE13:
	.loc 1 121 0
	subs	r0, r4, #0
	bne	.L81
.LVL76:
.L82:
.LBE12:
	.loc 1 126 0
	mov	r0, #0
.LVL77:
	str	r0, [r5]
	.loc 1 128 0
	pop	{r4, r5, r6, pc}
.LVL78:
.L86:
	.loc 1 120 0 discriminator 1
	movw	r1, #:lower16:.LC0
	movw	r0, #:lower16:.LC1
.LVL79:
	movt	r1, #:upper16:.LC0
	movt	r0, #:upper16:.LC1
	ldr	r3, .L87
	mov	r2, #120
	bl	__assert_fail
.LVL80:
	b	.L79
.L88:
	.align	2
.L87:
	.word	.LANCHOR0+88
	.cfi_endproc
.LFE11:
	.fnend
	.size	list_remove_all, .-list_remove_all
	.align	2
	.global	list_destroy
	.syntax unified
	.arm
	.type	list_destroy, %function
list_destroy:
	.fnstart
.LFB12:
	.loc 1 130 0
	.cfi_startproc
	@ args = 0, pretend = 0, frame = 0
	@ frame_needed = 0, uses_anonymous_args = 0
	@ link register save eliminated.
.LVL81:
	.loc 1 133 0
	mov	r0, #0
.LVL82:
	bx	lr
	.cfi_endproc
.LFE12:
	.fnend
	.size	list_destroy, .-list_destroy
	.align	2
	.global	list_prepend_node
	.syntax unified
	.arm
	.type	list_prepend_node, %function
list_prepend_node:
	.fnstart
.LFB13:
	.loc 1 135 0
	.cfi_startproc
	@ args = 0, pretend = 0, frame = 0
	@ frame_needed = 0, uses_anonymous_args = 0
.LVL83:
	push	{r4, r5, r6, lr}
	.save {r4, r5, r6, lr}
	.cfi_def_cfa_offset 16
	.cfi_offset 4, -16
	.cfi_offset 5, -12
	.cfi_offset 6, -8
	.cfi_offset 14, -4
	.loc 1 136 0
	subs	r5, r0, #0
	.loc 1 135 0
	mov	r4, r1
	.loc 1 136 0
	beq	.L94
.LVL84:
.L91:
	.loc 1 137 0
	cmp	r4, #0
	beq	.L95
.L92:
	.loc 1 138 0
	ldr	r3, [r5]
	.loc 1 141 0
	mov	r0, #0
	.loc 1 138 0
	str	r3, [r4, #4]
	.loc 1 139 0
	str	r4, [r5]
	.loc 1 141 0
	pop	{r4, r5, r6, pc}
.L95:
	.loc 1 137 0 discriminator 1
	movw	r1, #:lower16:.LC0
	movw	r0, #:lower16:.LC2
	movt	r1, #:upper16:.LC0
	movt	r0, #:upper16:.LC2
	ldr	r3, .L96
	mov	r2, #137
	bl	__assert_fail
.LVL85:
	b	.L92
.LVL86:
.L94:
	.loc 1 136 0 discriminator 1
	movw	r1, #:lower16:.LC0
.LVL87:
	movw	r0, #:lower16:.LC1
.LVL88:
	movt	r1, #:upper16:.LC0
	movt	r0, #:upper16:.LC1
	ldr	r3, .L96
	mov	r2, #136
	bl	__assert_fail
.LVL89:
	b	.L91
.L97:
	.align	2
.L96:
	.word	.LANCHOR0+104
	.cfi_endproc
.LFE13:
	.fnend
	.size	list_prepend_node, .-list_prepend_node
	.align	2
	.global	list_prepend
	.syntax unified
	.arm
	.type	list_prepend, %function
list_prepend:
	.fnstart
.LFB2:
	.loc 1 33 0
	.cfi_startproc
	@ args = 0, pretend = 0, frame = 0
	@ frame_needed = 0, uses_anonymous_args = 0
.LVL90:
	push	{r4, r5, r6, lr}
	.save {r4, r5, r6, lr}
	.cfi_def_cfa_offset 16
	.cfi_offset 4, -16
	.cfi_offset 5, -12
	.cfi_offset 6, -8
	.cfi_offset 14, -4
	.loc 1 33 0
	mov	r4, r0
.LBB14:
.LBB15:
	.loc 1 25 0
	mov	r0, #8
.LVL91:
.LBE15:
.LBE14:
	.loc 1 33 0
	mov	r5, r1
.LVL92:
.LBB18:
.LBB16:
	.loc 1 25 0
	bl	malloc
.LVL93:
	.loc 1 26 0
	subs	r1, r0, #0
	beq	.L99
	.loc 1 28 0
	mov	r2, #0
	.loc 1 27 0
	str	r5, [r1]
.LBE16:
.LBE18:
	.loc 1 38 0
	mov	r0, r4
.LVL94:
.LBB19:
.LBB17:
	.loc 1 28 0
	str	r2, [r1, #4]
.LVL95:
.LBE17:
.LBE19:
	.loc 1 39 0
	pop	{r4, r5, r6, lr}
	.cfi_remember_state
	.cfi_restore 14
	.cfi_restore 6
	.cfi_restore 5
	.cfi_restore 4
	.cfi_def_cfa_offset 0
.LVL96:
	.loc 1 38 0
	b	list_prepend_node
.LVL97:
.L99:
	.cfi_restore_state
	.loc 1 39 0
	mvn	r0, #0
.LVL98:
	pop	{r4, r5, r6, pc}
	.cfi_endproc
.LFE2:
	.fnend
	.size	list_prepend, .-list_prepend
	.align	2
	.global	list_append_node
	.syntax unified
	.arm
	.type	list_append_node, %function
list_append_node:
	.fnstart
.LFB14:
	.loc 1 143 0
	.cfi_startproc
	@ args = 0, pretend = 0, frame = 0
	@ frame_needed = 0, uses_anonymous_args = 0
.LVL99:
	push	{r4, r5, r6, lr}
	.save {r4, r5, r6, lr}
	.cfi_def_cfa_offset 16
	.cfi_offset 4, -16
	.cfi_offset 5, -12
	.cfi_offset 6, -8
	.cfi_offset 14, -4
	.loc 1 144 0
	subs	r5, r0, #0
	.loc 1 143 0
	mov	r4, r1
	.loc 1 144 0
	beq	.L109
.LVL100:
.L102:
	.loc 1 145 0
	cmp	r4, #0
	beq	.L110
.L103:
	.loc 1 147 0
	ldr	r2, [r5]
	.loc 1 146 0
	mov	r3, #0
	str	r3, [r4, #4]
	.loc 1 147 0
	cmp	r2, r3
	.loc 1 148 0
	streq	r4, [r5]
	.loc 1 147 0
	bne	.L106
	b	.L105
.LVL101:
.L107:
.LBB20:
	mov	r2, r3
.LVL102:
.L106:
	.loc 1 151 0 discriminator 1
	ldr	r3, [r2, #4]
	cmp	r3, #0
	bne	.L107
	.loc 1 152 0
	str	r4, [r2, #4]
.LVL103:
.L105:
.LBE20:
	.loc 1 155 0
	mov	r0, #0
	pop	{r4, r5, r6, pc}
.LVL104:
.L109:
	.loc 1 144 0 discriminator 1
	movw	r1, #:lower16:.LC0
.LVL105:
	movw	r0, #:lower16:.LC1
.LVL106:
	movt	r1, #:upper16:.LC0
	movt	r0, #:upper16:.LC1
	ldr	r3, .L111
	mov	r2, #144
	bl	__assert_fail
.LVL107:
	b	.L102
.L110:
	.loc 1 145 0 discriminator 1
	movw	r1, #:lower16:.LC0
	movw	r0, #:lower16:.LC2
	movt	r1, #:upper16:.LC0
	movt	r0, #:upper16:.LC2
	ldr	r3, .L111
	mov	r2, #145
	bl	__assert_fail
.LVL108:
	b	.L103
.L112:
	.align	2
.L111:
	.word	.LANCHOR0+124
	.cfi_endproc
.LFE14:
	.fnend
	.size	list_append_node, .-list_append_node
	.align	2
	.global	list_append
	.syntax unified
	.arm
	.type	list_append, %function
list_append:
	.fnstart
.LFB3:
	.loc 1 41 0
	.cfi_startproc
	@ args = 0, pretend = 0, frame = 0
	@ frame_needed = 0, uses_anonymous_args = 0
.LVL109:
	push	{r4, r5, r6, lr}
	.save {r4, r5, r6, lr}
	.cfi_def_cfa_offset 16
	.cfi_offset 4, -16
	.cfi_offset 5, -12
	.cfi_offset 6, -8
	.cfi_offset 14, -4
	.loc 1 41 0
	mov	r4, r0
.LBB21:
.LBB22:
	.loc 1 25 0
	mov	r0, #8
.LVL110:
.LBE22:
.LBE21:
	.loc 1 41 0
	mov	r5, r1
.LVL111:
.LBB25:
.LBB23:
	.loc 1 25 0
	bl	malloc
.LVL112:
	.loc 1 26 0
	subs	r1, r0, #0
	beq	.L114
	.loc 1 28 0
	mov	r2, #0
	.loc 1 27 0
	str	r5, [r1]
.LBE23:
.LBE25:
	.loc 1 46 0
	mov	r0, r4
.LVL113:
.LBB26:
.LBB24:
	.loc 1 28 0
	str	r2, [r1, #4]
.LVL114:
.LBE24:
.LBE26:
	.loc 1 47 0
	pop	{r4, r5, r6, lr}
	.cfi_remember_state
	.cfi_restore 14
	.cfi_restore 6
	.cfi_restore 5
	.cfi_restore 4
	.cfi_def_cfa_offset 0
.LVL115:
	.loc 1 46 0
	b	list_append_node
.LVL116:
.L114:
	.cfi_restore_state
	.loc 1 47 0
	mvn	r0, #0
.LVL117:
	pop	{r4, r5, r6, pc}
	.cfi_endproc
.LFE3:
	.fnend
	.size	list_append, .-list_append
	.align	2
	.global	list_remove_node
	.syntax unified
	.arm
	.type	list_remove_node, %function
list_remove_node:
	.fnstart
.LFB15:
	.loc 1 157 0
	.cfi_startproc
	@ args = 0, pretend = 0, frame = 0
	@ frame_needed = 0, uses_anonymous_args = 0
	@ link register save eliminated.
.LVL118:
	.loc 1 158 0
	mov	r3, #0
	b	remove
.LVL119:
	.cfi_endproc
.LFE15:
	.fnend
	.size	list_remove_node, .-list_remove_node
	.align	2
	.global	list_remove_all_nodes
	.syntax unified
	.arm
	.type	list_remove_all_nodes, %function
list_remove_all_nodes:
	.fnstart
.LFB16:
	.loc 1 161 0
	.cfi_startproc
	@ args = 0, pretend = 0, frame = 0
	@ frame_needed = 0, uses_anonymous_args = 0
.LVL120:
	push	{r4, lr}
	.save {r4, lr}
	.cfi_def_cfa_offset 8
	.cfi_offset 4, -8
	.cfi_offset 14, -4
	.loc 1 162 0
	subs	r4, r0, #0
	beq	.L120
.LVL121:
.L118:
	.loc 1 163 0
	mov	r0, #0
	str	r0, [r4]
	.loc 1 165 0
	pop	{r4, pc}
.LVL122:
.L120:
	.loc 1 162 0 discriminator 1
	movw	r1, #:lower16:.LC0
	movw	r0, #:lower16:.LC1
.LVL123:
	movt	r1, #:upper16:.LC0
	movt	r0, #:upper16:.LC1
	ldr	r3, .L121
	mov	r2, #162
	bl	__assert_fail
.LVL124:
	b	.L118
.L122:
	.align	2
.L121:
	.word	.LANCHOR0+144
	.cfi_endproc
.LFE16:
	.fnend
	.size	list_remove_all_nodes, .-list_remove_all_nodes
	.section	.rodata
	.align	2
	.set	.LANCHOR0,. + 0
	.type	__func__.4498, %object
	.size	__func__.4498, 7
__func__.4498:
	.ascii	"remove\000"
	.space	1
	.type	__func__.4426, %object
	.size	__func__.4426, 10
__func__.4426:
	.ascii	"list_init\000"
	.space	2
	.type	__func__.4444, %object
	.size	__func__.4444, 14
__func__.4444:
	.ascii	"list_is_empty\000"
	.space	2
	.type	__func__.4452, %object
	.size	__func__.4452, 12
__func__.4452:
	.ascii	"list_exists\000"
	.type	__func__.4460, %object
	.size	__func__.4460, 12
__func__.4460:
	.ascii	"list_length\000"
	.type	__func__.4473, %object
	.size	__func__.4473, 11
__func__.4473:
	.ascii	"list_index\000"
	.space	1
	.type	__func__.4484, %object
	.size	__func__.4484, 13
__func__.4484:
	.ascii	"list_foreach\000"
	.space	3
	.type	__func__.4514, %object
	.size	__func__.4514, 16
__func__.4514:
	.ascii	"list_remove_all\000"
	.type	__func__.4527, %object
	.size	__func__.4527, 18
__func__.4527:
	.ascii	"list_prepend_node\000"
	.space	2
	.type	__func__.4532, %object
	.size	__func__.4532, 17
__func__.4532:
	.ascii	"list_append_node\000"
	.space	3
	.type	__func__.4547, %object
	.size	__func__.4547, 22
__func__.4547:
	.ascii	"list_remove_all_nodes\000"
	.section	.rodata.str1.4,"aMS",%progbits,1
	.align	2
.LC0:
	.ascii	"/home/mint/seL4/dhs-demo-feb-2018/libs/libutils/src"
	.ascii	"/list.c\000"
	.space	1
.LC1:
	.ascii	"l != NULL\000"
	.space	2
.LC2:
	.ascii	"node != NULL\000"
	.text
.Letext0:
	.file 2 "/home/mint/seL4/dhs-demo-feb-2018/stage/arm/imx6/include/utils/list.h"
	.file 3 "/home/mint/seL4/dhs-demo-feb-2018/stage/arm/imx6/include/stdlib.h"
	.file 4 "/home/mint/seL4/dhs-demo-feb-2018/stage/arm/imx6/include/assert.h"
	.section	.note.GNU-stack,"",%progbits
