	.cpu cortex-a9
	.fpu softvfp
	.eabi_attribute 20, 1
	.eabi_attribute 21, 1
	.eabi_attribute 23, 3
	.eabi_attribute 24, 1
	.eabi_attribute 25, 1
	.eabi_attribute 26, 2
	.eabi_attribute 30, 2
	.eabi_attribute 34, 1
	.eabi_attribute 18, 4
	.file	"kernel_final.c"
	.text
.Ltext0:
	.cfi_sections	.debug_frame
	.align	2
	.syntax unified
	.arm
	.type	putEncodedChar, %function
putEncodedChar:
.LFB382:
	.file 1 "/home/mint/seL4/dhs-demo-feb-2018/kernel/src/arch/arm/machine/capdl.c"
	.loc 1 61 0
	.cfi_startproc
	@ args = 0, pretend = 0, frame = 0
	@ frame_needed = 0, uses_anonymous_args = 0
	@ link register save eliminated.
.LVL0:
	.loc 1 62 0
	cmp	r0, #187
.LBB5115:
.LBB5116:
	.file 2 "/home/mint/seL4/dhs-demo-feb-2018/kernel/src/plat/imx6/machine/io.c"
	.loc 2 119 0
	mvneq	r1, #1040384
.LBE5116:
.LBE5115:
	.loc 1 62 0
	beq	.L3
	cmp	r0, #255
.LBB5119:
.LBB5120:
	.loc 2 119 0
	mvneq	r1, #1040384
.LBE5120:
.LBE5119:
	.loc 1 62 0
	beq	.L4
	cmp	r0, #170
	beq	.L41
	.loc 1 76 0
	cmp	r0, #19
	bhi	.L10
.LBB5123:
.LBB5124:
	.loc 2 119 0
	mvn	r1, #1040384
.L25:
	ldr	r3, [r1, #-3943]
	tst	r3, #16384
	beq	.L25
.LBE5124:
.LBE5123:
	.loc 1 78 0
	add	r0, r0, #20
.LVL1:
.LBB5126:
.LBB5127:
	.loc 2 119 0
	mvn	r2, #1040384
.LBE5127:
.LBE5126:
	.loc 1 78 0
	uxtb	r0, r0
.LBB5129:
.LBB5125:
	.loc 2 120 0
	mov	r3, #170
	str	r3, [r1, #-4031]
.LVL2:
.L12:
.LBE5125:
.LBE5129:
.LBB5130:
.LBB5128:
	.loc 2 119 0
	ldr	r3, [r2, #-3943]
	tst	r3, #16384
	beq	.L12
.LBE5128:
.LBE5130:
.LBB5131:
.LBB5132:
	.loc 2 120 0
	str	r0, [r2, #-4031]
	bx	lr
.LVL3:
.L3:
.LBE5132:
.LBE5131:
.LBB5134:
.LBB5117:
	.loc 2 119 0
	ldr	r3, [r1, #-3943]
	tst	r3, #16384
	beq	.L3
.LBE5117:
.LBE5134:
.LBB5135:
.LBB5136:
	mvn	r2, #1040384
.LBE5136:
.LBE5135:
.LBB5138:
.LBB5118:
	.loc 2 120 0
	mov	r3, #170
	str	r3, [r1, #-4031]
.L9:
.LBE5118:
.LBE5138:
.LBB5139:
.LBB5137:
	.loc 2 119 0
	ldr	r3, [r2, #-3943]
	tst	r3, #16384
	beq	.L9
	.loc 2 120 0
	mov	r3, #162
	str	r3, [r2, #-4031]
	bx	lr
.L4:
.LBE5137:
.LBE5139:
.LBB5140:
.LBB5121:
	.loc 2 119 0
	ldr	r3, [r1, #-3943]
	tst	r3, #16384
	beq	.L4
.LBE5121:
.LBE5140:
.LBB5141:
.LBB5142:
	mvn	r2, #1040384
.LBE5142:
.LBE5141:
.LBB5144:
.LBB5122:
	.loc 2 120 0
	mov	r3, #170
	str	r3, [r1, #-4031]
.L8:
.LBE5122:
.LBE5144:
.LBB5145:
.LBB5143:
	.loc 2 119 0
	ldr	r3, [r2, #-3943]
	tst	r3, #16384
	beq	.L8
	.loc 2 120 0
	mov	r3, #160
	str	r3, [r2, #-4031]
	bx	lr
.L41:
.LBE5143:
.LBE5145:
.LBB5146:
.LBB5147:
	.loc 2 119 0
	mvn	r1, #1040384
.L5:
	ldr	r3, [r1, #-3943]
	tst	r3, #16384
	beq	.L5
.LBE5147:
.LBE5146:
.LBB5149:
.LBB5150:
	mvn	r2, #1040384
.LBE5150:
.LBE5149:
.LBB5152:
.LBB5148:
	.loc 2 120 0
	mov	r3, #170
	str	r3, [r1, #-4031]
.L6:
.LBE5148:
.LBE5152:
.LBB5153:
.LBB5151:
	.loc 2 119 0
	ldr	r3, [r2, #-3943]
	tst	r3, #16384
	beq	.L6
	.loc 2 120 0
	mov	r3, #161
	str	r3, [r2, #-4031]
	bx	lr
.L10:
.LBE5151:
.LBE5153:
.LBB5154:
.LBB5133:
	.loc 2 119 0
	mvn	r2, #1040384
.L26:
	ldr	r3, [r2, #-3943]
	tst	r3, #16384
	beq	.L26
	.loc 2 120 0
	str	r0, [r2, #-4031]
	bx	lr
.LBE5133:
.LBE5154:
	.cfi_endproc
.LFE382:
	.size	putEncodedChar, .-putEncodedChar
	.align	2
	.syntax unified
	.arm
	.type	sendWord, %function
sendWord:
.LFB384:
	.loc 1 108 0
	.cfi_startproc
	@ args = 0, pretend = 0, frame = 0
	@ frame_needed = 0, uses_anonymous_args = 0
.LVL4:
	push	{r4, lr}
	.cfi_def_cfa_offset 8
	.cfi_offset 4, -8
	.cfi_offset 14, -4
	.loc 1 108 0
	mov	r4, r0
	.loc 1 109 0
	uxtb	r0, r0
.LVL5:
	bl	putEncodedChar
.LVL6:
	.loc 1 110 0
	ubfx	r0, r4, #8, #8
	bl	putEncodedChar
.LVL7:
	.loc 1 111 0
	ubfx	r0, r4, #16, #8
	bl	putEncodedChar
.LVL8:
	.loc 1 112 0
	lsr	r0, r4, #24
	.loc 1 113 0
	pop	{r4, lr}
	.cfi_restore 14
	.cfi_restore 4
	.cfi_def_cfa_offset 0
.LVL9:
	.loc 1 112 0
	b	putEncodedChar
.LVL10:
	.cfi_endproc
.LFE384:
	.size	sendWord, .-sendWord
	.align	2
	.syntax unified
	.arm
	.type	page_directory_comparator, %function
page_directory_comparator:
.LFB491:
	.file 3 "/home/mint/seL4/dhs-demo-feb-2018/kernel/src/kernel/cdt.c"
	.loc 3 128 0
	.cfi_startproc
	@ args = 0, pretend = 0, frame = 0
	@ frame_needed = 0, uses_anonymous_args = 0
	@ link register save eliminated.
.LVL11:
	.loc 3 128 0
	mov	r3, r2
	.loc 3 129 0
	movw	r2, #:lower16:cap_extra_comp
.LVL12:
	movt	r2, #:upper16:cap_extra_comp
	bx	r3
.LVL13:
	.cfi_endproc
.LFE491:
	.size	page_directory_comparator, .-page_directory_comparator
	.align	2
	.syntax unified
	.arm
	.type	just_tie_break, %function
just_tie_break:
.LFB498:
	.loc 3 170 0
	.cfi_startproc
	@ args = 0, pretend = 0, frame = 0
	@ frame_needed = 0, uses_anonymous_args = 0
	@ link register save eliminated.
.LVL14:
	.loc 3 170 0
	mov	r3, r2
	.loc 3 171 0
	mov	r2, #0
.LVL15:
	bx	r3
.LVL16:
	.cfi_endproc
.LFE498:
	.size	just_tie_break, .-just_tie_break
	.align	2
	.syntax unified
	.arm
	.type	largest_child_comparator, %function
largest_child_comparator:
.LFB511:
	.loc 3 534 0
	.cfi_startproc
	@ args = 0, pretend = 0, frame = 0
	@ frame_needed = 0, uses_anonymous_args = 0
	@ link register save eliminated.
.LVL17:
	.loc 3 537 0
	mvn	r0, #0
.LVL18:
	bx	lr
	.cfi_endproc
.LFE511:
	.size	largest_child_comparator, .-largest_child_comparator
	.align	2
	.syntax unified
	.arm
	.type	tie_break_comparator, %function
tie_break_comparator:
.LFB484:
	.loc 3 49 0
	.cfi_startproc
	@ args = 0, pretend = 0, frame = 0
	@ frame_needed = 0, uses_anonymous_args = 0
.LVL19:
.LBB5168:
.LBB5169:
.LBB5170:
	.file 4 "./arch/object/structures_gen.h"
	.loc 4 469 0
	ldr	r3, [r0, #12]
.LBE5170:
.LBE5169:
.LBB5172:
.LBB5173:
	ldr	ip, [r1, #12]
.LBE5173:
.LBE5172:
.LBB5175:
.LBB5171:
	and	r3, r3, #31
.LBE5171:
.LBE5175:
.LBB5176:
.LBB5174:
	and	ip, ip, #31
.LBE5174:
.LBE5176:
	.loc 3 52 0
	cmp	ip, r3
	beq	.L48
	.loc 3 52 0 is_stmt 0 discriminator 1
	bcs	.L60
	.loc 3 52 0
	mov	r0, #1
.LVL20:
	bx	lr
.LVL21:
.L48:
.LBE5168:
.LBB5177:
.LBB5178:
	.loc 3 56 0 is_stmt 1
	cmp	r2, #0
.LBE5178:
.LBE5177:
	.loc 3 49 0
	push	{r4, r5, r6, lr}
	.cfi_def_cfa_offset 16
	.cfi_offset 4, -16
	.cfi_offset 5, -12
	.cfi_offset 6, -8
	.cfi_offset 14, -4
	mov	lr, r0
	mov	r5, r1
	mov	r4, r0
.LVL22:
.LBB5183:
.LBB5181:
	.loc 3 56 0
	beq	.L52
.LVL23:
	.loc 3 57 0
	blx	r2
.LVL24:
	.loc 3 58 0
	cmp	r0, #0
	popne	{r4, r5, r6, pc}
.LVL25:
.L52:
.LBB5179:
	.loc 3 63 0
	cmp	r4, r5
	beq	.L55
	bls	.L61
	mov	r0, #1
	pop	{r4, r5, r6, pc}
.LVL26:
.L60:
	.cfi_def_cfa_offset 0
	.cfi_restore 4
	.cfi_restore 5
	.cfi_restore 6
	.cfi_restore 14
.LBE5179:
.LBE5181:
.LBE5183:
.LBB5184:
	.loc 3 52 0
	mvn	r0, #0
.LVL27:
.LBE5184:
	.loc 3 64 0
	bx	lr
.LVL28:
.L61:
	.cfi_def_cfa_offset 16
	.cfi_offset 4, -16
	.cfi_offset 5, -12
	.cfi_offset 6, -8
	.cfi_offset 14, -4
.LBB5185:
.LBB5182:
.LBB5180:
	.loc 3 63 0
	mvn	r0, #0
	pop	{r4, r5, r6, pc}
.L55:
	mov	r0, #0
	pop	{r4, r5, r6, pc}
.LBE5180:
.LBE5182:
.LBE5185:
	.cfi_endproc
.LFE484:
	.size	tie_break_comparator, .-tie_break_comparator
	.align	2
	.syntax unified
	.arm
	.type	slot_eq_comparator, %function
slot_eq_comparator:
.LFB506:
	.loc 3 389 0
	.cfi_startproc
	@ args = 0, pretend = 0, frame = 0
	@ frame_needed = 0, uses_anonymous_args = 0
	@ link register save eliminated.
.LVL29:
.LBB5198:
.LBB5199:
.LBB5200:
	.loc 4 469 0
	ldr	r3, [r0, #12]
.LBE5200:
.LBE5199:
.LBB5202:
.LBB5203:
	ldr	ip, [r1, #12]
.LBE5203:
.LBE5202:
.LBB5205:
.LBB5201:
	and	r3, r3, #31
.LBE5201:
.LBE5205:
.LBB5206:
.LBB5204:
	and	ip, ip, #31
.LBE5204:
.LBE5206:
	.loc 3 392 0
	cmp	ip, r3
	beq	.L63
	.loc 3 392 0 is_stmt 0 discriminator 1
	bcs	.L69
	.loc 3 392 0
	mov	r0, #1
.LVL30:
	bx	lr
.LVL31:
.L63:
.LBE5198:
	.loc 3 396 0 is_stmt 1
	cmp	r2, #0
	beq	.L70
.LVL32:
.LBB5207:
.LBB5208:
	.loc 3 397 0
	bx	r2
.LVL33:
.L69:
.LBE5208:
.LBE5207:
.LBB5209:
	.loc 3 392 0
	mvn	r0, #0
.LVL34:
	bx	lr
.LVL35:
.L70:
.LBE5209:
	.loc 3 403 0
	mov	r0, r2
.LVL36:
	.loc 3 404 0
	bx	lr
	.cfi_endproc
.LFE506:
	.size	slot_eq_comparator, .-slot_eq_comparator
	.align	2
	.syntax unified
	.arm
	.type	slot_lt_comparator, %function
slot_lt_comparator:
.LFB512:
	.loc 3 540 0
	.cfi_startproc
	@ args = 0, pretend = 0, frame = 0
	@ frame_needed = 0, uses_anonymous_args = 0
.LVL37:
.LBB5222:
.LBB5223:
.LBB5224:
	.loc 4 469 0
	ldr	r3, [r0, #12]
.LBE5224:
.LBE5223:
.LBB5226:
.LBB5227:
	ldr	ip, [r1, #12]
.LBE5227:
.LBE5226:
.LBB5229:
.LBB5225:
	and	r3, r3, #31
.LBE5225:
.LBE5229:
.LBB5230:
.LBB5228:
	and	ip, ip, #31
.LBE5228:
.LBE5230:
	.loc 3 543 0
	cmp	ip, r3
	beq	.L72
	.loc 3 543 0 is_stmt 0 discriminator 1
	bcs	.L82
	.loc 3 543 0
	mov	r0, #1
.LVL38:
	bx	lr
.LVL39:
.L72:
.LBE5222:
	.loc 3 547 0 is_stmt 1
	cmp	r2, #0
	beq	.L82
.LVL40:
	.loc 3 540 0
	push	{r4, lr}
	.cfi_def_cfa_offset 8
	.cfi_offset 4, -8
	.cfi_offset 14, -4
.LBB5231:
.LBB5232:
	.loc 3 548 0
	blx	r2
.LVL41:
	.loc 3 549 0
	cmp	r0, #0
	.loc 3 554 0
	mvneq	r0, #0
.LVL42:
	pop	{r4, pc}
.LVL43:
.L82:
	.cfi_def_cfa_offset 0
	.cfi_restore 4
	.cfi_restore 14
	mvn	r0, #0
.LVL44:
.LBE5232:
.LBE5231:
	.loc 3 555 0
	bx	lr
	.cfi_endproc
.LFE512:
	.size	slot_lt_comparator, .-slot_lt_comparator
	.align	2
	.syntax unified
	.arm
	.type	getDecodedChar, %function
getDecodedChar:
.LFB381:
	.loc 1 27 0
	.cfi_startproc
	@ args = 0, pretend = 0, frame = 0
	@ frame_needed = 0, uses_anonymous_args = 0
	@ link register save eliminated.
.LVL45:
.LBB5243:
.LBB5244:
	.loc 2 125 0
	mvn	r2, #1040384
.L84:
	ldr	r3, [r2, #-3943]
	tst	r3, #1
	beq	.L84
	.loc 2 126 0
	ldr	r3, [r2, #-4095]
	uxtb	r3, r3
.LBE5244:
.LBE5243:
	.loc 1 30 0
	cmp	r3, #255
	beq	.L93
	.loc 1 33 0
	cmp	r3, #170
	beq	.L101
.L86:
	.loc 1 55 0
	strb	r3, [r0]
	.loc 1 56 0
	mov	r3, #0
.L85:
	.loc 1 58 0
	mov	r0, r3
.LVL46:
	bx	lr
.LVL47:
.L101:
.LBB5245:
.LBB5246:
.LBB5247:
.LBB5248:
	.loc 2 125 0
	mvn	r2, #1040384
.L87:
	ldr	r3, [r2, #-3943]
	tst	r3, #1
	beq	.L87
	.loc 2 126 0
	ldr	r3, [r2, #-4095]
	uxtb	r3, r3
.LBE5248:
.LBE5247:
	.loc 1 35 0
	cmp	r3, #255
	bne	.L102
.L93:
.LBE5246:
.LBE5245:
	.loc 1 31 0
	mov	r3, #1
	.loc 1 58 0
	mov	r0, r3
.LVL48:
	bx	lr
.LVL49:
.L102:
.LBB5250:
.LBB5249:
	.loc 1 38 0
	cmp	r3, #161
	beq	.L89
	cmp	r3, #162
	beq	.L90
	cmp	r3, #160
	beq	.L103
	.loc 1 49 0
	sub	r3, r3, #20
	uxtb	r3, r3
	cmp	r3, #19
	.loc 1 53 0
	movhi	r3, #0
	.loc 1 49 0
	bhi	.L85
	b	.L86
.L89:
	.loc 1 40 0
	mvn	r2, #85
	.loc 1 53 0
	mov	r3, #0
	.loc 1 40 0
	strb	r2, [r0]
	b	.L85
.L103:
	.loc 1 43 0
	mvn	r2, #0
	.loc 1 53 0
	mov	r3, #0
	.loc 1 43 0
	strb	r2, [r0]
	b	.L85
.L90:
	.loc 1 46 0
	mvn	r2, #68
	.loc 1 53 0
	mov	r3, #0
	.loc 1 46 0
	strb	r2, [r0]
	b	.L85
.LBE5249:
.LBE5250:
	.cfi_endproc
.LFE381:
	.size	getDecodedChar, .-getDecodedChar
	.align	2
	.syntax unified
	.arm
	.type	frame_cap_comparator, %function
frame_cap_comparator:
.LFB982:
	.cfi_startproc
	@ args = 0, pretend = 0, frame = 0
	@ frame_needed = 0, uses_anonymous_args = 0
	@ link register save eliminated.
	mov	r3, r2
	movw	r2, #:lower16:cap_extra_comp
	movt	r2, #:upper16:cap_extra_comp
	bx	r3
	.cfi_endproc
.LFE982:
	.size	frame_cap_comparator, .-frame_cap_comparator
	.align	2
	.syntax unified
	.arm
	.type	page_table_comparator, %function
page_table_comparator:
.LFB980:
	.cfi_startproc
	@ args = 0, pretend = 0, frame = 0
	@ frame_needed = 0, uses_anonymous_args = 0
	@ link register save eliminated.
	mov	r3, r2
	movw	r2, #:lower16:cap_extra_comp
	movt	r2, #:upper16:cap_extra_comp
	bx	r3
	.cfi_endproc
.LFE980:
	.size	page_table_comparator, .-page_table_comparator
	.align	2
	.syntax unified
	.arm
	.type	print_unsigned_long.part.58.constprop.314, %function
print_unsigned_long.part.58.constprop.314:
.LFB983:
	.file 5 "/home/mint/seL4/dhs-demo-feb-2018/kernel/src/machine/io.c"
	.loc 5 55 0
	.cfi_startproc
	@ args = 0, pretend = 0, frame = 16
	@ frame_needed = 0, uses_anonymous_args = 0
.LVL50:
	.loc 5 74 0
	cmp	r0, #0
	bxeq	lr
.LVL51:
.LBB5268:
.LBB5269:
	.loc 5 46 0
	and	r3, r0, #15
.LBE5269:
.LBE5268:
	.loc 5 55 0
	push	{r4, lr}
	.cfi_def_cfa_offset 8
	.cfi_offset 4, -8
	.cfi_offset 14, -4
	cmp	r3, #9
	sub	sp, sp, #16
	.cfi_def_cfa_offset 24
	addhi	r2, r3, #87
	addls	r2, r3, #48
	.loc 5 74 0
	lsrs	r3, r0, #4
	strb	r2, [sp, #4]
.LVL52:
	beq	.L114
.LVL53:
.LBB5276:
.LBB5270:
	.loc 5 46 0
	and	r3, r3, #15
	cmp	r3, #9
	addhi	r2, r3, #87
	addls	r2, r3, #48
.LBE5270:
.LBE5276:
	.loc 5 74 0
	lsrs	r3, r0, #8
	strb	r2, [sp, #5]
.LVL54:
	beq	.L115
.LVL55:
.LBB5277:
.LBB5271:
	.loc 5 46 0
	and	r3, r3, #15
	cmp	r3, #9
	addhi	r2, r3, #87
	addls	r2, r3, #48
.LBE5271:
.LBE5277:
	.loc 5 74 0
	lsrs	r3, r0, #12
	strb	r2, [sp, #6]
.LVL56:
	beq	.L116
.LVL57:
.LBB5278:
.LBB5272:
	.loc 5 46 0
	and	r3, r3, #15
	cmp	r3, #9
	addhi	r2, r3, #87
	addls	r2, r3, #48
.LBE5272:
.LBE5278:
	.loc 5 74 0
	lsrs	r3, r0, #16
	strb	r2, [sp, #7]
.LVL58:
	beq	.L117
.LVL59:
.LBB5279:
.LBB5273:
	.loc 5 46 0
	and	r3, r3, #15
	cmp	r3, #9
	addhi	r2, r3, #87
	addls	r2, r3, #48
.LBE5273:
.LBE5279:
	.loc 5 74 0
	lsrs	r3, r0, #20
	strb	r2, [sp, #8]
.LVL60:
	beq	.L118
.LVL61:
.LBB5280:
.LBB5274:
	.loc 5 46 0
	and	r3, r3, #15
	cmp	r3, #9
	addhi	r2, r3, #87
	addls	r2, r3, #48
.LBE5274:
.LBE5280:
	.loc 5 74 0
	lsrs	r3, r0, #24
	strb	r2, [sp, #9]
.LVL62:
	beq	.L119
.LVL63:
.LBB5281:
.LBB5275:
	.loc 5 46 0
	and	r3, r3, #15
	cmp	r3, #9
	addhi	r3, r3, #87
	addls	r3, r3, #48
.LBE5275:
.LBE5281:
	.loc 5 74 0
	lsrs	r2, r0, #28
	strb	r3, [sp, #10]
.LVL64:
	beq	.L120
.LVL65:
	cmp	r2, #9
	mov	r0, #8
	addhi	r2, r2, #87
	addls	r2, r2, #48
	strb	r2, [sp, #11]
.LVL66:
.L108:
	add	lr, sp, #4
.LBB5282:
.LBB5283:
.LBB5284:
.LBB5285:
	.loc 2 119 0
	mvn	r2, #1040384
	add	r1, lr, r0
.LBE5285:
.LBE5284:
.LBB5288:
.LBB5289:
.LBB5290:
	.loc 2 120 0
	mov	r4, #13
.LVL67:
.L112:
.LBE5290:
.LBE5289:
.LBE5288:
.LBE5283:
.LBE5282:
	.loc 5 85 0
	ldrb	ip, [r1, #-1]!	@ zero_extendqisi2
.LVL68:
.L109:
.LBB5298:
.LBB5296:
.LBB5293:
.LBB5286:
	.loc 2 119 0
	ldr	r3, [r2, #-3943]
	tst	r3, #16384
	beq	.L109
.LBE5286:
.LBE5293:
	.loc 2 112 0
	cmp	ip, #10
.LBB5294:
.LBB5287:
	.loc 2 120 0
	str	ip, [r2, #-4031]
.LVL69:
.LBE5287:
.LBE5294:
	.loc 2 112 0
	beq	.L111
.L110:
.LVL70:
.LBE5296:
.LBE5298:
	.loc 5 84 0
	cmp	r1, lr
	bne	.L112
	.loc 5 89 0
	add	sp, sp, #16
	.cfi_remember_state
	.cfi_def_cfa_offset 8
	@ sp needed
	pop	{r4, pc}
.LVL71:
.L111:
	.cfi_restore_state
.LBB5299:
.LBB5297:
.LBB5295:
.LBB5292:
.LBB5291:
	.loc 2 119 0
	ldr	r3, [r2, #-3943]
	tst	r3, #16384
	beq	.L111
	.loc 2 120 0
	str	r4, [r2, #-4031]
	b	.L110
.LVL72:
.L114:
.LBE5291:
.LBE5292:
.LBE5295:
.LBE5297:
.LBE5299:
	.loc 5 74 0
	mov	r0, #1
	b	.L108
.LVL73:
.L115:
	mov	r0, #2
	b	.L108
.LVL74:
.L116:
	mov	r0, #3
	b	.L108
.LVL75:
.L117:
	mov	r0, #4
	b	.L108
.LVL76:
.L118:
	mov	r0, #5
	b	.L108
.LVL77:
.L119:
	mov	r0, #6
	b	.L108
.LVL78:
.L120:
	mov	r0, #7
.LVL79:
	b	.L108
	.cfi_endproc
.LFE983:
	.size	print_unsigned_long.part.58.constprop.314, .-print_unsigned_long.part.58.constprop.314
	.align	2
	.syntax unified
	.arm
	.type	getArg32, %function
getArg32:
.LFB383:
	.loc 1 86 0
	.cfi_startproc
	@ args = 0, pretend = 0, frame = 8
	@ frame_needed = 0, uses_anonymous_args = 0
.LVL80:
.LBB5310:
.LBB5311:
.LBB5312:
.LBB5313:
	.loc 2 125 0
	mvn	r2, #1040384
.LBE5313:
.LBE5312:
.LBE5311:
.LBE5310:
	.loc 1 86 0
	push	{r4, lr}
	.cfi_def_cfa_offset 8
	.cfi_offset 4, -8
	.cfi_offset 14, -4
	.loc 1 88 0
	mov	r3, #0
	.loc 1 86 0
	sub	sp, sp, #8
	.cfi_def_cfa_offset 16
	.loc 1 88 0
	strb	r3, [sp, #5]
	.loc 1 89 0
	strb	r3, [sp, #6]
	.loc 1 90 0
	strb	r3, [sp, #7]
.LVL81:
.L131:
.LBB5322:
.LBB5320:
.LBB5315:
.LBB5314:
	.loc 2 125 0
	ldr	r3, [r2, #-3943]
	tst	r3, #1
	beq	.L131
	.loc 2 126 0
	ldr	r1, [r2, #-4095]
	uxtb	r1, r1
.LBE5314:
.LBE5315:
	.loc 1 30 0
	cmp	r1, #255
	beq	.L136
	.loc 1 33 0
	cmp	r1, #170
	beq	.L157
.L134:
.LVL82:
	mov	r4, r0
.LBE5320:
.LBE5322:
	.loc 1 94 0
	add	r0, sp, #5
.LVL83:
	bl	getDecodedChar
.LVL84:
	cmp	r0, #0
	beq	.L158
.LVL85:
.L136:
	.loc 1 92 0
	mov	r0, #1
.L152:
	.loc 1 105 0
	add	sp, sp, #8
	.cfi_remember_state
	.cfi_def_cfa_offset 8
	@ sp needed
	pop	{r4, pc}
.LVL86:
.L157:
	.cfi_restore_state
.LBB5323:
.LBB5321:
.LBB5316:
.LBB5317:
.LBB5318:
.LBB5319:
	.loc 2 125 0
	mvn	r2, #1040384
.L135:
	ldr	r3, [r2, #-3943]
	tst	r3, #1
	beq	.L135
	.loc 2 126 0
	ldr	r3, [r2, #-4095]
	uxtb	r3, r3
.LBE5319:
.LBE5318:
	.loc 1 35 0
	cmp	r3, #255
	beq	.L136
	.loc 1 38 0
	cmp	r3, #161
	beq	.L134
	cmp	r3, #162
	.loc 1 46 0
	moveq	r1, #187
	.loc 1 38 0
	beq	.L134
	cmp	r3, #160
	.loc 1 43 0
	moveq	r1, #255
	.loc 1 38 0
	beq	.L134
	.loc 1 49 0
	sub	r3, r3, #20
	uxtb	r1, r3
.LBE5317:
.LBE5316:
.LBE5321:
.LBE5323:
	.loc 1 87 0
	cmp	r1, #20
	movcs	r1, #0
	b	.L134
.LVL87:
.L158:
	.loc 1 97 0
	add	r0, sp, #6
	bl	getDecodedChar
.LVL88:
	cmp	r0, #0
	bne	.L136
	.loc 1 100 0
	add	r0, sp, #7
	bl	getDecodedChar
.LVL89:
	cmp	r0, #0
	bne	.L136
	.loc 1 103 0
	ldrb	r2, [sp, #6]	@ zero_extendqisi2
	ldrb	ip, [sp, #5]	@ zero_extendqisi2
	ldrb	r3, [sp, #7]	@ zero_extendqisi2
	lsl	r2, r2, #8
	orr	r2, r2, ip, lsl #16
	orr	r3, r2, r3
	orr	r1, r3, r1, lsl #24
	str	r1, [r4]
	.loc 1 104 0
	b	.L152
	.cfi_endproc
.LFE383:
	.size	getArg32, .-getArg32
	.align	2
	.global	armv_init_ccnt
	.syntax unified
	.arm
	.type	armv_init_ccnt, %function
armv_init_ccnt:
.LFB272:
	.file 6 "/home/mint/seL4/dhs-demo-feb-2018/kernel/src/arch/arm/armv/armv7-a/benchmark.c"
	.loc 6 17 0
	.cfi_startproc
	@ args = 0, pretend = 0, frame = 0
	@ frame_needed = 0, uses_anonymous_args = 0
	@ link register save eliminated.
.LVL90:
	.loc 6 22 0
	mov	r3, #1
	.syntax divided
@ 22 "/home/mint/seL4/dhs-demo-feb-2018/kernel/src/arch/arm/armv/armv7-a/benchmark.c" 1
	mcr p15, 0, r3, c9, c14, 0

@ 0 "" 2
.LVL91:
	.loc 6 30 0
	.arm
	.syntax unified
	mov	r3, #5
	.syntax divided
@ 30 "/home/mint/seL4/dhs-demo-feb-2018/kernel/src/arch/arm/armv/armv7-a/benchmark.c" 1
	mcr p15, 0, r3, c9, c12, 0

@ 0 "" 2
.LVL92:
	.loc 6 38 0
	.arm
	.syntax unified
	mov	r3, #-2147483648
	.syntax divided
@ 38 "/home/mint/seL4/dhs-demo-feb-2018/kernel/src/arch/arm/armv/armv7-a/benchmark.c" 1
	mcr p15, 0, r3, c9, c12, 1

@ 0 "" 2
	.arm
	.syntax unified
	bx	lr
	.cfi_endproc
.LFE272:
	.size	armv_init_ccnt, .-armv_init_ccnt
	.align	2
	.global	clean_D_PoU
	.syntax unified
	.arm
	.type	clean_D_PoU, %function
clean_D_PoU:
.LFB278:
	.file 7 "/home/mint/seL4/dhs-demo-feb-2018/kernel/src/arch/arm/armv/armv7-a/cache.c"
	.loc 7 73 0
	.cfi_startproc
	@ args = 0, pretend = 0, frame = 0
	@ frame_needed = 0, uses_anonymous_args = 0
	push	{r4, r5, r6, r7, r8, r9, r10, lr}
	.cfi_def_cfa_offset 32
	.cfi_offset 4, -32
	.cfi_offset 5, -28
	.cfi_offset 6, -24
	.cfi_offset 7, -20
	.cfi_offset 8, -16
	.cfi_offset 9, -12
	.cfi_offset 10, -8
	.cfi_offset 14, -4
.LBB5324:
.LBB5325:
	.loc 7 32 0
	.syntax divided
@ 32 "/home/mint/seL4/dhs-demo-feb-2018/kernel/src/arch/arm/armv/armv7-a/cache.c" 1
	mrc p15, 1, r8, c0, c0, 1
@ 0 "" 2
.LVL93:
	.arm
	.syntax unified
.LBE5325:
.LBE5324:
	.loc 7 75 0
	ubfx	r7, r8, #27, #3
.LVL94:
	.loc 7 78 0
	cmp	r7, #0
	popeq	{r4, r5, r6, r7, r8, r9, r10, pc}
	mov	r6, #0
	mov	r5, r6
.LVL95:
.L165:
	.loc 7 79 0
	asr	r3, r8, r6
	and	r3, r3, #7
	cmp	r3, #1
	bls	.L162
.LVL96:
.LBB5326:
.LBB5327:
.LBB5328:
	.loc 7 53 0
	.syntax divided
@ 53 "/home/mint/seL4/dhs-demo-feb-2018/kernel/src/arch/arm/armv/armv7-a/cache.c" 1
	mrc p15, 2, r2, c0, c0, 0
@ 0 "" 2
	.loc 7 55 0
	.arm
	.syntax unified
	lsl	r4, r5, #1
	.syntax divided
@ 55 "/home/mint/seL4/dhs-demo-feb-2018/kernel/src/arch/arm/armv/armv7-a/cache.c" 1
	mcr p15, 2, r4, c0, c0, 0
@ 0 "" 2
	.loc 7 57 0
@ 57 "/home/mint/seL4/dhs-demo-feb-2018/kernel/src/arch/arm/armv/armv7-a/cache.c" 1
	mrc p15, 1, r3, c0, c0, 0
@ 0 "" 2
	.loc 7 59 0
@ 59 "/home/mint/seL4/dhs-demo-feb-2018/kernel/src/arch/arm/armv/armv7-a/cache.c" 1
	mcr p15, 2, r2, c0, c0, 0
@ 0 "" 2
.LVL97:
	.arm
	.syntax unified
.LBE5328:
.LBE5327:
	.loc 7 82 0
	ubfx	r9, r3, #3, #10
	.loc 7 81 0
	and	ip, r3, #7
	.loc 7 84 0
	ubfx	r3, r3, #13, #15
	.loc 7 82 0
	add	r10, r9, #1
	.loc 7 81 0
	add	ip, ip, #4
.LVL98:
	.loc 7 84 0
	add	r0, r3, #1
	.loc 7 83 0
	clz	r9, r9
.LVL99:
	.loc 7 87 0
	mov	lr, #0
.LVL100:
.L163:
	orr	r1, r4, lr, lsl r9
.LBE5326:
	.loc 7 78 0
	mov	r3, #0
.LVL101:
.L164:
.LBB5332:
.LBB5329:
.LBB5330:
.LBB5331:
	.loc 7 21 0 discriminator 3
	orr	r2, r1, r3, lsl ip
.LVL102:
	.syntax divided
@ 21 "/home/mint/seL4/dhs-demo-feb-2018/kernel/src/arch/arm/armv/armv7-a/cache.c" 1
	mcr p15, 0, r2, c7, c10, 2
@ 0 "" 2
.LVL103:
	.arm
	.syntax unified
.LBE5331:
.LBE5330:
	.loc 7 90 0 discriminator 3
	add	r3, r3, #1
.LVL104:
	cmp	r0, r3
	bgt	.L164
.LBE5329:
	.loc 7 87 0 discriminator 2
	add	lr, lr, #1
.LVL105:
	cmp	r10, lr
	bgt	.L163
.LVL106:
.L162:
.LBE5332:
	.loc 7 78 0
	add	r5, r5, #1
.LVL107:
	add	r6, r6, #3
	cmp	r7, r5
	bne	.L165
	pop	{r4, r5, r6, r7, r8, r9, r10, pc}
	.cfi_endproc
.LFE278:
	.size	clean_D_PoU, .-clean_D_PoU
	.align	2
	.global	cleanInvalidate_D_PoC
	.syntax unified
	.arm
	.type	cleanInvalidate_D_PoC, %function
cleanInvalidate_D_PoC:
.LFB279:
	.loc 7 101 0
	.cfi_startproc
	@ args = 0, pretend = 0, frame = 0
	@ frame_needed = 0, uses_anonymous_args = 0
	push	{r4, r5, r6, r7, r8, r9, r10, lr}
	.cfi_def_cfa_offset 32
	.cfi_offset 4, -32
	.cfi_offset 5, -28
	.cfi_offset 6, -24
	.cfi_offset 7, -20
	.cfi_offset 8, -16
	.cfi_offset 9, -12
	.cfi_offset 10, -8
	.cfi_offset 14, -4
.LBB5333:
.LBB5334:
	.loc 7 32 0
	.syntax divided
@ 32 "/home/mint/seL4/dhs-demo-feb-2018/kernel/src/arch/arm/armv/armv7-a/cache.c" 1
	mrc p15, 1, r8, c0, c0, 1
@ 0 "" 2
.LVL108:
	.arm
	.syntax unified
.LBE5334:
.LBE5333:
	.loc 7 103 0
	ubfx	r7, r8, #24, #3
.LVL109:
	.loc 7 106 0
	cmp	r7, #0
	popeq	{r4, r5, r6, r7, r8, r9, r10, pc}
	mov	r6, #0
	mov	r5, r6
.LVL110:
.L175:
	.loc 7 107 0
	asr	r3, r8, r6
	and	r3, r3, #7
	cmp	r3, #1
	bls	.L172
.LVL111:
.LBB5335:
.LBB5336:
.LBB5337:
	.loc 7 53 0
	.syntax divided
@ 53 "/home/mint/seL4/dhs-demo-feb-2018/kernel/src/arch/arm/armv/armv7-a/cache.c" 1
	mrc p15, 2, r2, c0, c0, 0
@ 0 "" 2
	.loc 7 55 0
	.arm
	.syntax unified
	lsl	r4, r5, #1
	.syntax divided
@ 55 "/home/mint/seL4/dhs-demo-feb-2018/kernel/src/arch/arm/armv/armv7-a/cache.c" 1
	mcr p15, 2, r4, c0, c0, 0
@ 0 "" 2
	.loc 7 57 0
@ 57 "/home/mint/seL4/dhs-demo-feb-2018/kernel/src/arch/arm/armv/armv7-a/cache.c" 1
	mrc p15, 1, r3, c0, c0, 0
@ 0 "" 2
	.loc 7 59 0
@ 59 "/home/mint/seL4/dhs-demo-feb-2018/kernel/src/arch/arm/armv/armv7-a/cache.c" 1
	mcr p15, 2, r2, c0, c0, 0
@ 0 "" 2
.LVL112:
	.arm
	.syntax unified
.LBE5337:
.LBE5336:
	.loc 7 110 0
	ubfx	r9, r3, #3, #10
	.loc 7 109 0
	and	ip, r3, #7
	.loc 7 112 0
	ubfx	r3, r3, #13, #15
	.loc 7 110 0
	add	r10, r9, #1
	.loc 7 109 0
	add	ip, ip, #4
.LVL113:
	.loc 7 112 0
	add	r0, r3, #1
	.loc 7 111 0
	clz	r9, r9
.LVL114:
	.loc 7 115 0
	mov	lr, #0
.LVL115:
.L173:
	orr	r1, r4, lr, lsl r9
.LBE5335:
	.loc 7 106 0
	mov	r3, #0
.LVL116:
.L174:
.LBB5341:
.LBB5338:
.LBB5339:
.LBB5340:
	.loc 7 26 0 discriminator 3
	orr	r2, r1, r3, lsl ip
.LVL117:
	.syntax divided
@ 26 "/home/mint/seL4/dhs-demo-feb-2018/kernel/src/arch/arm/armv/armv7-a/cache.c" 1
	mcr p15, 0, r2, c7, c14, 2
@ 0 "" 2
.LVL118:
	.arm
	.syntax unified
.LBE5340:
.LBE5339:
	.loc 7 118 0 discriminator 3
	add	r3, r3, #1
.LVL119:
	cmp	r0, r3
	bgt	.L174
.LBE5338:
	.loc 7 115 0 discriminator 2
	add	lr, lr, #1
.LVL120:
	cmp	r10, lr
	bgt	.L173
.LVL121:
.L172:
.LBE5341:
	.loc 7 106 0
	add	r5, r5, #1
.LVL122:
	add	r6, r6, #3
	cmp	r7, r5
	bne	.L175
	pop	{r4, r5, r6, r7, r8, r9, r10, pc}
	.cfi_endproc
.LFE279:
	.size	cleanInvalidate_D_PoC, .-cleanInvalidate_D_PoC
	.align	2
	.global	armv_init_user_access
	.syntax unified
	.arm
	.type	armv_init_user_access, %function
armv_init_user_access:
.LFB282:
	.file 8 "/home/mint/seL4/dhs-demo-feb-2018/kernel/src/arch/arm/armv/armv7-a/user_access.c"
	.loc 8 53 0
	.cfi_startproc
	@ args = 0, pretend = 0, frame = 0
	@ frame_needed = 0, uses_anonymous_args = 0
	@ link register save eliminated.
	.loc 8 56 0
	.syntax divided
@ 56 "/home/mint/seL4/dhs-demo-feb-2018/kernel/src/arch/arm/armv/armv7-a/user_access.c" 1
	mrc   p15, 0,  r3,  c0,  c1, 2
@ 0 "" 2
.LVL123:
	.loc 8 61 0
@ 61 "/home/mint/seL4/dhs-demo-feb-2018/kernel/src/arch/arm/armv/armv7-a/user_access.c" 1
	mrc   p15, 0,  r3,  c0,  c1, 1
@ 0 "" 2
.LVL124:
	.loc 8 62 0
	.arm
	.syntax unified
	tst	r3, #65536
	bxeq	lr
.LBB5342:
.LBB5343:
	.loc 8 41 0
	.syntax divided
@ 41 "/home/mint/seL4/dhs-demo-feb-2018/kernel/src/arch/arm/armv/armv7-a/user_access.c" 1
	mrc   p15, 0,  r3, c14,  c1, 0
@ 0 "" 2
.LVL125:
	.arm
	.syntax unified
.LBB5344:
	.loc 8 48 0
	.syntax divided
@ 48 "/home/mint/seL4/dhs-demo-feb-2018/kernel/src/arch/arm/armv/armv7-a/user_access.c" 1
	mcr   p15, 0,  r3, c14,  c1, 0
@ 0 "" 2
	.arm
	.syntax unified
	bx	lr
.LBE5344:
.LBE5343:
.LBE5342:
	.cfi_endproc
.LFE282:
	.size	armv_init_user_access, .-armv_init_user_access
	.section	.boot.text,"ax",%progbits
	.align	2
	.global	Arch_configureIdleThread
	.syntax unified
	.arm
	.type	Arch_configureIdleThread, %function
Arch_configureIdleThread:
.LFB317:
	.file 9 "/home/mint/seL4/dhs-demo-feb-2018/kernel/src/arch/arm/kernel/thread.c"
	.loc 9 28 0
	.cfi_startproc
	@ args = 0, pretend = 0, frame = 0
	@ frame_needed = 0, uses_anonymous_args = 0
	@ link register save eliminated.
.LVL126:
.LBB5345:
.LBB5346:
	.file 10 "/home/mint/seL4/dhs-demo-feb-2018/kernel/include/machine/registerset.h"
	.loc 10 21 0
	movw	r3, #:lower16:idle_thread
.LVL127:
.LBE5346:
.LBE5345:
.LBB5349:
.LBB5350:
	mov	r2, #83
.LBE5350:
.LBE5349:
.LBB5352:
.LBB5347:
	movt	r3, #:upper16:idle_thread
.LBE5347:
.LBE5352:
.LBB5353:
.LBB5351:
	str	r2, [r0, #64]
.LVL128:
.LBE5351:
.LBE5353:
.LBB5354:
.LBB5348:
	str	r3, [r0, #60]
.LVL129:
	bx	lr
.LBE5348:
.LBE5354:
	.cfi_endproc
.LFE317:
	.size	Arch_configureIdleThread, .-Arch_configureIdleThread
	.text
	.align	2
	.global	Arch_switchToIdleThread
	.syntax unified
	.arm
	.type	Arch_switchToIdleThread, %function
Arch_switchToIdleThread:
.LFB318:
	.loc 9 35 0
	.cfi_startproc
	@ args = 0, pretend = 0, frame = 0
	@ frame_needed = 0, uses_anonymous_args = 0
	@ link register save eliminated.
	.loc 9 36 0
	movw	r3, #:lower16:.LANCHOR0
	mov	r2, #0
	movt	r3, #:upper16:.LANCHOR0
	str	r2, [r3]
	bx	lr
	.cfi_endproc
.LFE318:
	.size	Arch_switchToIdleThread, .-Arch_switchToIdleThread
	.align	2
	.global	Arch_activateIdleThread
	.syntax unified
	.arm
	.type	Arch_activateIdleThread, %function
Arch_activateIdleThread:
.LFB319:
	.loc 9 41 0
	.cfi_startproc
	@ args = 0, pretend = 0, frame = 0
	@ frame_needed = 0, uses_anonymous_args = 0
	@ link register save eliminated.
.LVL130:
	bx	lr
	.cfi_endproc
.LFE319:
	.size	Arch_activateIdleThread, .-Arch_activateIdleThread
	.section	.boot.text
	.align	2
	.global	activate_global_pd
	.syntax unified
	.arm
	.type	activate_global_pd, %function
activate_global_pd:
.LFB325:
	.file 11 "/home/mint/seL4/dhs-demo-feb-2018/kernel/src/arch/arm/kernel/vspace.c"
	.loc 11 296 0
	.cfi_startproc
	@ args = 0, pretend = 0, frame = 0
	@ frame_needed = 0, uses_anonymous_args = 0
	.loc 11 296 0
	push	{r4, lr}
	.cfi_def_cfa_offset 8
	.cfi_offset 4, -8
	.cfi_offset 14, -4
.LBB5384:
.LBB5385:
.LBB5386:
.LBB5387:
	.file 12 "/home/mint/seL4/dhs-demo-feb-2018/kernel/include/arch/arm/armv/armv7-a/armv/machine.h"
	.loc 12 17 0
	.syntax divided
@ 17 "/home/mint/seL4/dhs-demo-feb-2018/kernel/include/arch/arm/armv/armv7-a/armv/machine.h" 1
	dsb
@ 0 "" 2
	.arm
	.syntax unified
.LBE5387:
.LBE5386:
	.file 13 "/home/mint/seL4/dhs-demo-feb-2018/kernel/src/arch/arm/machine/cache.c"
	.loc 13 182 0
	bl	cleanInvalidate_D_PoC
.LVL131:
.LBB5388:
.LBB5389:
	.loc 12 17 0
	.syntax divided
@ 17 "/home/mint/seL4/dhs-demo-feb-2018/kernel/include/arch/arm/armv/armv7-a/armv/machine.h" 1
	dsb
@ 0 "" 2
	.arm
	.syntax unified
.LBE5389:
.LBE5388:
.LBB5390:
.LBB5391:
	.file 14 "/home/mint/seL4/dhs-demo-feb-2018/kernel/include/arch/arm/arch/machine.h"
	.loc 14 253 0
	mov	r2, #0
	.syntax divided
@ 253 "/home/mint/seL4/dhs-demo-feb-2018/kernel/include/arch/arm/arch/machine.h" 1
	mcr p15, 0, r2, c7, c5, 0
@ 0 "" 2
	.arm
	.syntax unified
.LBB5392:
.LBB5393:
	.loc 12 29 0
	.syntax divided
@ 29 "/home/mint/seL4/dhs-demo-feb-2018/kernel/include/arch/arm/armv/armv7-a/armv/machine.h" 1
	isb
@ 0 "" 2
	.arm
	.syntax unified
.LBE5393:
.LBE5392:
.LBE5391:
.LBE5390:
.LBB5394:
.LBB5395:
	.loc 12 17 0
	.syntax divided
@ 17 "/home/mint/seL4/dhs-demo-feb-2018/kernel/include/arch/arm/armv/armv7-a/armv/machine.h" 1
	dsb
@ 0 "" 2
	.arm
	.syntax unified
.LBE5395:
.LBE5394:
.LBE5385:
.LBE5384:
.LBB5396:
.LBB5397:
.LBB5398:
	.syntax divided
@ 17 "/home/mint/seL4/dhs-demo-feb-2018/kernel/include/arch/arm/armv/armv7-a/armv/machine.h" 1
	dsb
@ 0 "" 2
	.arm
	.syntax unified
.LBE5398:
.LBE5397:
.LBB5399:
.LBB5400:
	.loc 14 135 0
	ldr	r3, .L190
	bic	r3, r3, #8128
	bic	r3, r3, #63
	orr	r3, r3, #24
	.syntax divided
@ 135 "/home/mint/seL4/dhs-demo-feb-2018/kernel/include/arch/arm/arch/machine.h" 1
	mcr p15, 0, r3, c2, c0, 0
@ 0 "" 2
	.arm
	.syntax unified
.LBE5400:
.LBE5399:
.LBB5401:
.LBB5402:
	.loc 12 29 0
	.syntax divided
@ 29 "/home/mint/seL4/dhs-demo-feb-2018/kernel/include/arch/arm/armv/armv7-a/armv/machine.h" 1
	isb
@ 0 "" 2
	.arm
	.syntax unified
.LBE5402:
.LBE5401:
.LBE5396:
.LBB5403:
.LBB5404:
.LBB5405:
.LBB5406:
	.loc 12 17 0
	.syntax divided
@ 17 "/home/mint/seL4/dhs-demo-feb-2018/kernel/include/arch/arm/armv/armv7-a/armv/machine.h" 1
	dsb
@ 0 "" 2
	.arm
	.syntax unified
.LBE5406:
.LBE5405:
	.loc 14 156 0
	.syntax divided
@ 156 "/home/mint/seL4/dhs-demo-feb-2018/kernel/include/arch/arm/arch/machine.h" 1
	mcr p15, 0, r2, c8, c7, 0
@ 0 "" 2
	.arm
	.syntax unified
.LBB5407:
.LBB5408:
	.loc 12 17 0
	.syntax divided
@ 17 "/home/mint/seL4/dhs-demo-feb-2018/kernel/include/arch/arm/armv/armv7-a/armv/machine.h" 1
	dsb
@ 0 "" 2
	.arm
	.syntax unified
.LBE5408:
.LBE5407:
.LBB5409:
.LBB5410:
	.loc 12 29 0
	.syntax divided
@ 29 "/home/mint/seL4/dhs-demo-feb-2018/kernel/include/arch/arm/armv/armv7-a/armv/machine.h" 1
	isb
@ 0 "" 2
	.arm
	.syntax unified
.LBE5410:
.LBE5409:
.LBE5404:
.LBE5403:
	.loc 11 303 0
	mov	r0, #-536870912
	bl	lockTLBEntry
.LVL132:
	.loc 11 304 0
	mov	r0, #0
	.loc 11 305 0
	pop	{r4, lr}
	.cfi_restore 14
	.cfi_restore 4
	.cfi_def_cfa_offset 0
	.loc 11 304 0
	movt	r0, 65535
	b	lockTLBEntry
.LVL133:
.L191:
	.align	2
.L190:
	.word	.LANCHOR1+805306384
	.cfi_endproc
.LFE325:
	.size	activate_global_pd, .-activate_global_pd
	.text
	.align	2
	.global	copyGlobalMappings
	.syntax unified
	.arm
	.type	copyGlobalMappings, %function
copyGlobalMappings:
.LFB326:
	.loc 11 311 0
	.cfi_startproc
	@ args = 0, pretend = 0, frame = 0
	@ frame_needed = 0, uses_anonymous_args = 0
	@ link register save eliminated.
.LVL134:
	.loc 11 311 0
	movw	r2, #3585
	mov	r3, #3584
	ldr	ip, .L198
	b	.L193
.LVL135:
.L194:
	add	r3, r3, #1
	add	r2, r2, #1
.L193:
.LVL136:
	.loc 11 316 0
	cmp	r3, #4080
	beq	.L194
	.loc 11 317 0
	ldr	r1, [ip, r3, lsl #2]
	.loc 11 315 0
	cmp	r2, #4096
	.loc 11 317 0
	str	r1, [r0, r3, lsl #2]
.LVL137:
	.loc 11 315 0
	bne	.L194
	.loc 11 320 0
	bx	lr
.L199:
	.align	2
.L198:
	.word	.LANCHOR1+16
	.cfi_endproc
.LFE326:
	.size	copyGlobalMappings, .-copyGlobalMappings
	.align	2
	.global	isValidVTableRoot
	.syntax unified
	.arm
	.type	isValidVTableRoot, %function
isValidVTableRoot:
.LFB341:
	.loc 11 710 0
	.cfi_startproc
	@ args = 0, pretend = 0, frame = 8
	@ frame_needed = 0, uses_anonymous_args = 0
	@ link register save eliminated.
	sub	sp, sp, #8
	.cfi_def_cfa_offset 8
	.loc 11 710 0
	add	r3, sp, #8
	stmdb	r3, {r0, r1}
	ldr	r0, [sp]
.LVL138:
.LBB5411:
.LBB5412:
	.loc 4 997 0
	and	r3, r0, #14
	cmp	r3, #14
	.loc 4 999 0
	uxtbeq	r0, r0
	.loc 4 998 0
	andne	r0, r0, #15
.LBE5412:
.LBE5411:
	.loc 11 712 0
	sub	r0, r0, #5
	clz	r0, r0
	lsr	r0, r0, #5
	add	sp, sp, #8
	.cfi_def_cfa_offset 0
	@ sp needed
	bx	lr
	.cfi_endproc
.LFE341:
	.size	isValidVTableRoot, .-isValidVTableRoot
	.align	2
	.global	maskVMRights
	.syntax unified
	.arm
	.type	maskVMRights, %function
maskVMRights:
.LFB343:
	.loc 11 735 0
	.cfi_startproc
	@ args = 0, pretend = 0, frame = 0
	@ frame_needed = 0, uses_anonymous_args = 0
	@ link register save eliminated.
.LVL139:
	.loc 11 736 0
	cmp	r0, #0
	bxeq	lr
	.loc 11 739 0
	cmp	r0, #2
	beq	.L212
	.loc 11 743 0
	cmp	r0, #3
	beq	.L213
.L210:
	.loc 11 751 0
	mov	r0, #1
.LVL140:
	.loc 11 752 0
	bx	lr
.LVL141:
.L212:
	.loc 11 739 0 discriminator 1
	tst	r1, #2
	.loc 11 741 0 discriminator 1
	moveq	r0, #1
.LVL142:
	movne	r0, #2
	bx	lr
.LVL143:
.L213:
	.loc 11 743 0 discriminator 1
	tst	r1, #2
	beq	.L210
.LVL144:
	.loc 11 745 0
	tst	r1, #1
	.loc 11 748 0
	moveq	r0, #2
.LVL145:
	movne	r0, #3
	bx	lr
	.cfi_endproc
.LFE343:
	.size	maskVMRights, .-maskVMRights
	.align	2
	.global	findFreeHWASID
	.syntax unified
	.arm
	.type	findFreeHWASID, %function
findFreeHWASID:
.LFB346:
	.loc 11 774 0
	.cfi_startproc
	@ args = 0, pretend = 0, frame = 0
	@ frame_needed = 0, uses_anonymous_args = 0
.LVL146:
	str	lr, [sp, #-4]!
	.cfi_def_cfa_offset 4
	.cfi_offset 14, -4
	movw	lr, #:lower16:armKSNextASID
	movt	lr, #:upper16:armKSNextASID
	movw	r1, #:lower16:armKSHWASIDTable
	movt	r1, #:upper16:armKSHWASIDTable
	.loc 11 779 0
	mov	r3, #0
	ldrb	ip, [lr]	@ zero_extendqisi2
.LVL147:
.L216:
	add	r0, ip, r3
	add	r3, r3, #1
.LVL148:
	uxtb	r0, r0
.LVL149:
	.loc 11 783 0
	ldr	r2, [r1, r0, lsl #2]
	cmp	r2, #0
	ldreq	pc, [sp], #4
	.loc 11 779 0
	cmp	r3, #256
	bne	.L216
.LVL150:
.LBB5425:
.LBB5426:
.LBB5427:
.LBB5428:
	.loc 11 425 0
	ldr	r3, [r1, ip, lsl #2]
.LVL151:
	mov	r2, #0
	add	r3, r3, #12288
	str	r2, [r3, #4032]
.LVL152:
.LBE5428:
.LBE5427:
.LBB5429:
.LBB5430:
.LBB5431:
.LBB5432:
	.loc 12 17 0
	.syntax divided
@ 17 "/home/mint/seL4/dhs-demo-feb-2018/kernel/include/arch/arm/armv/armv7-a/armv/machine.h" 1
	dsb
@ 0 "" 2
	.arm
	.syntax unified
.LBE5432:
.LBE5431:
	.loc 14 165 0
	.syntax divided
@ 165 "/home/mint/seL4/dhs-demo-feb-2018/kernel/include/arch/arm/arch/machine.h" 1
	mcr p15, 0, ip, c8, c7, 2
@ 0 "" 2
	.arm
	.syntax unified
.LBB5433:
.LBB5434:
	.loc 12 17 0
	.syntax divided
@ 17 "/home/mint/seL4/dhs-demo-feb-2018/kernel/include/arch/arm/armv/armv7-a/armv/machine.h" 1
	dsb
@ 0 "" 2
	.arm
	.syntax unified
.LBE5434:
.LBE5433:
.LBB5435:
.LBB5436:
	.loc 12 29 0
	.syntax divided
@ 29 "/home/mint/seL4/dhs-demo-feb-2018/kernel/include/arch/arm/armv/armv7-a/armv/machine.h" 1
	isb
@ 0 "" 2
.LVL153:
	.arm
	.syntax unified
.LBE5436:
.LBE5435:
.LBE5430:
.LBE5429:
	.loc 11 798 0
	ldrb	r3, [lr]	@ zero_extendqisi2
	mov	r0, ip
.LVL154:
	.loc 11 795 0
	str	r2, [r1, ip, lsl #2]
	.loc 11 798 0
	add	r3, r3, #1
	strb	r3, [lr]
.LVL155:
.LBE5426:
.LBE5425:
	.loc 11 801 0
	ldr	pc, [sp], #4
	.cfi_endproc
.LFE346:
	.size	findFreeHWASID, .-findFreeHWASID
	.align	2
	.global	cleanCacheRange_PoU
	.syntax unified
	.arm
	.type	cleanCacheRange_PoU, %function
cleanCacheRange_PoU:
.LFB375:
	.loc 13 86 0
	.cfi_startproc
	@ args = 0, pretend = 0, frame = 0
	@ frame_needed = 0, uses_anonymous_args = 0
	@ link register save eliminated.
.LVL156:
	.loc 13 95 0
	lsr	r1, r1, #5
.LVL157:
	lsr	r0, r0, #5
.LVL158:
	add	r1, r1, #1
	cmp	r0, r1
	bxcs	lr
.L225:
.LVL159:
.LBB5437:
.LBB5438:
	.loc 14 212 0 discriminator 3
	lsl	r3, r0, #5
.LVL160:
	.syntax divided
@ 212 "/home/mint/seL4/dhs-demo-feb-2018/kernel/include/arch/arm/arch/machine.h" 1
	mcr p15, 0, r3, c7, c11, 1
@ 0 "" 2
	.arm
	.syntax unified
.LBB5439:
.LBB5440:
	.loc 12 23 0 discriminator 3
	.syntax divided
@ 23 "/home/mint/seL4/dhs-demo-feb-2018/kernel/include/arch/arm/armv/armv7-a/armv/machine.h" 1
	dmb
@ 0 "" 2
.LVL161:
	.arm
	.syntax unified
.LBE5440:
.LBE5439:
.LBE5438:
.LBE5437:
	.loc 13 95 0 discriminator 3
	add	r0, r0, #1
.LVL162:
	cmp	r0, r1
	bne	.L225
	bx	lr
	.cfi_endproc
.LFE375:
	.size	cleanCacheRange_PoU, .-cleanCacheRange_PoU
	.align	2
	.global	invalidateCacheRange_I
	.syntax unified
	.arm
	.type	invalidateCacheRange_I, %function
invalidateCacheRange_I:
.LFB377:
	.loc 13 146 0
	.cfi_startproc
	@ args = 0, pretend = 0, frame = 0
	@ frame_needed = 0, uses_anonymous_args = 0
	@ link register save eliminated.
.LVL163:
	.loc 13 150 0
	lsr	r1, r1, #5
.LVL164:
	lsr	r0, r0, #5
.LVL165:
	add	r1, r1, #1
	cmp	r0, r1
	bxcs	lr
.L230:
.LVL166:
.LBB5441:
.LBB5442:
	.loc 14 240 0 discriminator 3
	lsl	r3, r0, #5
.LVL167:
	.syntax divided
@ 240 "/home/mint/seL4/dhs-demo-feb-2018/kernel/include/arch/arm/arch/machine.h" 1
	mcr p15, 0, r3, c7, c5, 1
@ 0 "" 2
	.arm
	.syntax unified
.LBB5443:
.LBB5444:
	.loc 12 29 0 discriminator 3
	.syntax divided
@ 29 "/home/mint/seL4/dhs-demo-feb-2018/kernel/include/arch/arm/armv/armv7-a/armv/machine.h" 1
	isb
@ 0 "" 2
.LVL168:
	.arm
	.syntax unified
.LBE5444:
.LBE5443:
.LBE5442:
.LBE5441:
	.loc 13 150 0 discriminator 3
	add	r0, r0, #1
.LVL169:
	cmp	r0, r1
	bne	.L230
	bx	lr
	.cfi_endproc
.LFE377:
	.size	invalidateCacheRange_I, .-invalidateCacheRange_I
	.align	2
	.global	branchFlushRange
	.syntax unified
	.arm
	.type	branchFlushRange, %function
branchFlushRange:
.LFB378:
	.loc 13 158 0
	.cfi_startproc
	@ args = 0, pretend = 0, frame = 0
	@ frame_needed = 0, uses_anonymous_args = 0
	@ link register save eliminated.
.LVL170:
	.loc 13 162 0
	lsr	r1, r1, #5
.LVL171:
	lsr	r0, r0, #5
.LVL172:
	add	r1, r1, #1
	cmp	r0, r1
	bxcs	lr
.L235:
.LVL173:
.LBB5445:
.LBB5446:
	.loc 14 277 0 discriminator 3
	lsl	r3, r0, #5
.LVL174:
	.syntax divided
@ 277 "/home/mint/seL4/dhs-demo-feb-2018/kernel/include/arch/arm/arch/machine.h" 1
	mcr p15, 0, r3, c7, c5, 7
@ 0 "" 2
.LVL175:
	.arm
	.syntax unified
.LBE5446:
.LBE5445:
	.loc 13 162 0 discriminator 3
	add	r0, r0, #1
.LVL176:
	cmp	r0, r1
	bne	.L235
	bx	lr
	.cfi_endproc
.LFE378:
	.size	branchFlushRange, .-branchFlushRange
	.align	2
	.global	cleanCaches_PoU
	.syntax unified
	.arm
	.type	cleanCaches_PoU, %function
cleanCaches_PoU:
.LFB379:
	.loc 13 170 0
	.cfi_startproc
	@ args = 0, pretend = 0, frame = 0
	@ frame_needed = 0, uses_anonymous_args = 0
	push	{r4, lr}
	.cfi_def_cfa_offset 8
	.cfi_offset 4, -8
	.cfi_offset 14, -4
.LBB5447:
.LBB5448:
	.loc 12 17 0
	.syntax divided
@ 17 "/home/mint/seL4/dhs-demo-feb-2018/kernel/include/arch/arm/armv/armv7-a/armv/machine.h" 1
	dsb
@ 0 "" 2
	.arm
	.syntax unified
.LBE5448:
.LBE5447:
	.loc 13 172 0
	bl	clean_D_PoU
.LVL177:
.LBB5449:
.LBB5450:
	.loc 12 17 0
	.syntax divided
@ 17 "/home/mint/seL4/dhs-demo-feb-2018/kernel/include/arch/arm/armv/armv7-a/armv/machine.h" 1
	dsb
@ 0 "" 2
	.arm
	.syntax unified
.LBE5450:
.LBE5449:
.LBB5451:
.LBB5452:
	.loc 14 253 0
	mov	r3, #0
	.syntax divided
@ 253 "/home/mint/seL4/dhs-demo-feb-2018/kernel/include/arch/arm/arch/machine.h" 1
	mcr p15, 0, r3, c7, c5, 0
@ 0 "" 2
	.arm
	.syntax unified
.LBB5453:
.LBB5454:
	.loc 12 29 0
	.syntax divided
@ 29 "/home/mint/seL4/dhs-demo-feb-2018/kernel/include/arch/arm/armv/armv7-a/armv/machine.h" 1
	isb
@ 0 "" 2
	.arm
	.syntax unified
.LBE5454:
.LBE5453:
.LBE5452:
.LBE5451:
.LBB5455:
.LBB5456:
	.loc 12 17 0
	.syntax divided
@ 17 "/home/mint/seL4/dhs-demo-feb-2018/kernel/include/arch/arm/armv/armv7-a/armv/machine.h" 1
	dsb
@ 0 "" 2
	.arm
	.syntax unified
	pop	{r4, pc}
.LBE5456:
.LBE5455:
	.cfi_endproc
.LFE379:
	.size	cleanCaches_PoU, .-cleanCaches_PoU
	.align	2
	.global	cleanInvalidateL1Caches
	.syntax unified
	.arm
	.type	cleanInvalidateL1Caches, %function
cleanInvalidateL1Caches:
.LFB380:
	.loc 13 180 0
	.cfi_startproc
	@ args = 0, pretend = 0, frame = 0
	@ frame_needed = 0, uses_anonymous_args = 0
	push	{r4, lr}
	.cfi_def_cfa_offset 8
	.cfi_offset 4, -8
	.cfi_offset 14, -4
.LBB5457:
.LBB5458:
	.loc 12 17 0
	.syntax divided
@ 17 "/home/mint/seL4/dhs-demo-feb-2018/kernel/include/arch/arm/armv/armv7-a/armv/machine.h" 1
	dsb
@ 0 "" 2
	.arm
	.syntax unified
.LBE5458:
.LBE5457:
	.loc 13 182 0
	bl	cleanInvalidate_D_PoC
.LVL178:
.LBB5459:
.LBB5460:
	.loc 12 17 0
	.syntax divided
@ 17 "/home/mint/seL4/dhs-demo-feb-2018/kernel/include/arch/arm/armv/armv7-a/armv/machine.h" 1
	dsb
@ 0 "" 2
	.arm
	.syntax unified
.LBE5460:
.LBE5459:
.LBB5461:
.LBB5462:
	.loc 14 253 0
	mov	r3, #0
	.syntax divided
@ 253 "/home/mint/seL4/dhs-demo-feb-2018/kernel/include/arch/arm/arch/machine.h" 1
	mcr p15, 0, r3, c7, c5, 0
@ 0 "" 2
	.arm
	.syntax unified
.LBB5463:
.LBB5464:
	.loc 12 29 0
	.syntax divided
@ 29 "/home/mint/seL4/dhs-demo-feb-2018/kernel/include/arch/arm/armv/armv7-a/armv/machine.h" 1
	isb
@ 0 "" 2
	.arm
	.syntax unified
.LBE5464:
.LBE5463:
.LBE5462:
.LBE5461:
.LBB5465:
.LBB5466:
	.loc 12 17 0
	.syntax divided
@ 17 "/home/mint/seL4/dhs-demo-feb-2018/kernel/include/arch/arm/armv/armv7-a/armv/machine.h" 1
	dsb
@ 0 "" 2
	.arm
	.syntax unified
	pop	{r4, pc}
.LBE5466:
.LBE5465:
	.cfi_endproc
.LFE380:
	.size	cleanInvalidateL1Caches, .-cleanInvalidateL1Caches
	.align	2
	.global	set_breakpoint
	.syntax unified
	.arm
	.type	set_breakpoint, %function
set_breakpoint:
.LFB405:
	.file 15 "/home/mint/seL4/dhs-demo-feb-2018/kernel/src/arch/arm/machine/debug.c"
	.loc 15 98 0
	.cfi_startproc
	@ args = 0, pretend = 0, frame = 0
	@ frame_needed = 0, uses_anonymous_args = 0
.LVL179:
	.loc 15 101 0
	movw	r3, #:lower16:n_breakpoints
	.loc 15 98 0
	str	lr, [sp, #-4]!
	.cfi_def_cfa_offset 4
	.cfi_offset 14, -4
	.loc 15 101 0
	movt	r3, #:upper16:n_breakpoints
	ldr	r2, [r3]
	cmp	r2, #0
	beq	.L294
	movw	r3, #:lower16:breakpoints
	movt	r3, #:upper16:breakpoints
	ldr	ip, [r3, #4]
	cmp	ip, #0
	beq	.L243
.LVL180:
	cmp	r2, #1
	beq	.L292
	ldr	ip, [r3, #12]
	cmp	ip, #0
	beq	.L265
.LVL181:
	cmp	r2, #2
	beq	.L292
	ldr	ip, [r3, #20]
	cmp	ip, #0
	beq	.L267
.LVL182:
	cmp	r2, #3
	beq	.L292
	ldr	ip, [r3, #28]
	cmp	ip, #0
	beq	.L269
.LVL183:
	cmp	r2, #4
	beq	.L292
	ldr	ip, [r3, #36]
	cmp	ip, #0
	beq	.L271
.LVL184:
	cmp	r2, #5
	beq	.L292
	ldr	ip, [r3, #44]
	cmp	ip, #0
	beq	.L273
.LVL185:
	cmp	r2, #6
	beq	.L292
	ldr	ip, [r3, #52]
	cmp	ip, #0
	beq	.L275
.LVL186:
	cmp	r2, #7
	beq	.L292
	ldr	ip, [r3, #60]
	cmp	ip, #0
	beq	.L277
.LVL187:
	cmp	r2, #8
	beq	.L292
	ldr	ip, [r3, #68]
	cmp	ip, #0
	beq	.L279
.LVL188:
	cmp	r2, #9
	beq	.L292
	ldr	ip, [r3, #76]
	cmp	ip, #0
	beq	.L281
.LVL189:
	cmp	r2, #10
	beq	.L292
	ldr	ip, [r3, #84]
	cmp	ip, #0
	beq	.L283
.LVL190:
	cmp	r2, #11
	beq	.L292
	ldr	ip, [r3, #92]
	cmp	ip, #0
	beq	.L285
.LVL191:
	cmp	r2, #12
	beq	.L292
	ldr	ip, [r3, #100]
	cmp	ip, #0
	beq	.L287
.LVL192:
	cmp	r2, #13
	beq	.L292
	ldr	ip, [r3, #108]
	cmp	ip, #0
	beq	.L289
.LVL193:
	cmp	r2, #14
	beq	.L292
	ldr	ip, [r3, #116]
	cmp	ip, #0
	beq	.L291
.LVL194:
	cmp	r2, #15
	beq	.L292
	ldr	ip, [r3, #124]
	cmp	ip, #0
	movne	ip, #16
	moveq	ip, #15
.LVL195:
.L247:
	.loc 15 103 0
	cmp	ip, r2
	beq	.L294
.L245:
	.loc 15 108 0
	add	lr, r3, ip, lsl #3
	.loc 15 107 0
	str	r0, [r3, ip, lsl #3]
	mov	r2, ip
	.loc 15 108 0
	str	r1, [lr, #4]
.LVL196:
.LBB5471:
.LBB5472:
	.file 16 "/home/mint/seL4/dhs-demo-feb-2018/kernel/include/arch/arm/arch/machine/debug.h"
	.loc 16 170 0
	cmp	ip, #5
	ldrls	pc, [pc, ip, asl #2]
	b	.L248
.L250:
	.word	.L249
	.word	.L251
	.word	.L252
	.word	.L253
	.word	.L254
	.word	.L255
.LVL197:
.L292:
.LBE5472:
.LBE5471:
	.loc 15 101 0
	mov	ip, r2
	b	.L247
.LVL198:
.L255:
.LBB5479:
.LBB5473:
	.loc 16 187 0
	.syntax divided
@ 187 "/home/mint/seL4/dhs-demo-feb-2018/kernel/include/arch/arm/arch/machine/debug.h" 1
	mcr p14, 0, r0, c0, c5, 4
@ 0 "" 2
.LVL199:
	.arm
	.syntax unified
.L261:
.LBE5473:
.LBE5479:
.LBB5480:
.LBB5481:
	.loc 16 255 0
	movw	r3, #487
	.syntax divided
@ 255 "/home/mint/seL4/dhs-demo-feb-2018/kernel/include/arch/arm/arch/machine/debug.h" 1
	mcr p14, 0, r3, c0, c5, 5
@ 0 "" 2
.LVL200:
	.arm
	.syntax unified
.L295:
.LBE5481:
.LBE5480:
	.loc 15 119 0
	mov	r0, r2
.LVL201:
	ldr	pc, [sp], #4
.LVL202:
.L251:
.LBB5488:
.LBB5474:
	.loc 16 175 0
	.syntax divided
@ 175 "/home/mint/seL4/dhs-demo-feb-2018/kernel/include/arch/arm/arch/machine/debug.h" 1
	mcr p14, 0, r0, c0, c1, 4
@ 0 "" 2
.LVL203:
	.arm
	.syntax unified
.L257:
.LBE5474:
.LBE5488:
.LBB5489:
.LBB5482:
	.loc 16 243 0
	movw	r3, #487
	.syntax divided
@ 243 "/home/mint/seL4/dhs-demo-feb-2018/kernel/include/arch/arm/arch/machine/debug.h" 1
	mcr p14, 0, r3, c0, c1, 5
@ 0 "" 2
	.arm
	.syntax unified
.LBE5482:
.LBE5489:
	.loc 15 119 0
	mov	r0, r2
.LVL204:
	ldr	pc, [sp], #4
.LVL205:
.L252:
.LBB5490:
.LBB5475:
	.loc 16 178 0
	.syntax divided
@ 178 "/home/mint/seL4/dhs-demo-feb-2018/kernel/include/arch/arm/arch/machine/debug.h" 1
	mcr p14, 0, r0, c0, c2, 4
@ 0 "" 2
.LVL206:
	.arm
	.syntax unified
.L258:
.LBE5475:
.LBE5490:
.LBB5491:
.LBB5483:
	.loc 16 246 0
	movw	r3, #487
	.syntax divided
@ 246 "/home/mint/seL4/dhs-demo-feb-2018/kernel/include/arch/arm/arch/machine/debug.h" 1
	mcr p14, 0, r3, c0, c2, 5
@ 0 "" 2
	.arm
	.syntax unified
.LBE5483:
.LBE5491:
	.loc 15 119 0
	mov	r0, r2
.LVL207:
	ldr	pc, [sp], #4
.LVL208:
.L253:
.LBB5492:
.LBB5476:
	.loc 16 181 0
	.syntax divided
@ 181 "/home/mint/seL4/dhs-demo-feb-2018/kernel/include/arch/arm/arch/machine/debug.h" 1
	mcr p14, 0, r0, c0, c3, 4
@ 0 "" 2
.LVL209:
	.arm
	.syntax unified
.L259:
.LBE5476:
.LBE5492:
.LBB5493:
.LBB5484:
	.loc 16 249 0
	movw	r3, #487
	.syntax divided
@ 249 "/home/mint/seL4/dhs-demo-feb-2018/kernel/include/arch/arm/arch/machine/debug.h" 1
	mcr p14, 0, r3, c0, c3, 5
@ 0 "" 2
	.arm
	.syntax unified
.LBE5484:
.LBE5493:
	.loc 15 119 0
	mov	r0, r2
.LVL210:
	ldr	pc, [sp], #4
.LVL211:
.L254:
.LBB5494:
.LBB5477:
	.loc 16 184 0
	.syntax divided
@ 184 "/home/mint/seL4/dhs-demo-feb-2018/kernel/include/arch/arm/arch/machine/debug.h" 1
	mcr p14, 0, r0, c0, c4, 4
@ 0 "" 2
.LVL212:
	.arm
	.syntax unified
.L260:
.LBE5477:
.LBE5494:
.LBB5495:
.LBB5485:
	.loc 16 252 0
	movw	r3, #487
	.syntax divided
@ 252 "/home/mint/seL4/dhs-demo-feb-2018/kernel/include/arch/arm/arch/machine/debug.h" 1
	mcr p14, 0, r3, c0, c4, 5
@ 0 "" 2
	.arm
	.syntax unified
.LBE5485:
.LBE5495:
	.loc 15 119 0
	mov	r0, r2
.LVL213:
	ldr	pc, [sp], #4
.LVL214:
.L243:
	.loc 15 108 0
	mov	r2, ip
	.loc 15 107 0
	str	r0, [r3]
	.loc 15 108 0
	str	r1, [r3, #4]
.LVL215:
.L249:
.LBB5496:
.LBB5478:
	.loc 16 172 0
	.syntax divided
@ 172 "/home/mint/seL4/dhs-demo-feb-2018/kernel/include/arch/arm/arch/machine/debug.h" 1
	mcr p14, 0, r0, c0, c0, 4
@ 0 "" 2
.LVL216:
	.arm
	.syntax unified
.L256:
.LBE5478:
.LBE5496:
.LBB5497:
.LBB5486:
	.loc 16 240 0
	movw	r3, #487
	.syntax divided
@ 240 "/home/mint/seL4/dhs-demo-feb-2018/kernel/include/arch/arm/arch/machine/debug.h" 1
	mcr p14, 0, r3, c0, c0, 5
@ 0 "" 2
	.arm
	.syntax unified
.LBE5486:
.LBE5497:
	.loc 15 119 0
	mov	r0, r2
.LVL217:
	ldr	pc, [sp], #4
.LVL218:
.L248:
.LBB5498:
.LBB5487:
	.loc 16 238 0
	cmp	ip, #5
	ldrls	pc, [pc, ip, asl #2]
	b	.L295
.L262:
	.word	.L256
	.word	.L257
	.word	.L258
	.word	.L259
	.word	.L260
	.word	.L261
.LVL219:
.L294:
.LBE5487:
.LBE5498:
	.loc 15 104 0
	mvn	r2, #0
	b	.L295
.LVL220:
.L265:
	.loc 15 101 0
	mov	ip, #1
	b	.L245
.LVL221:
.L275:
	mov	ip, #6
	b	.L247
.LVL222:
.L273:
	mov	ip, #5
	b	.L247
.LVL223:
.L271:
	mov	ip, #4
	b	.L247
.LVL224:
.L269:
	mov	ip, #3
	b	.L247
.LVL225:
.L291:
	mov	ip, #14
	b	.L247
.LVL226:
.L267:
	mov	ip, #2
	b	.L247
.LVL227:
.L277:
	mov	ip, #7
	b	.L247
.LVL228:
.L281:
	mov	ip, #9
	b	.L247
.LVL229:
.L279:
	mov	ip, #8
	b	.L247
.LVL230:
.L289:
	mov	ip, #13
	b	.L247
.LVL231:
.L287:
	mov	ip, #12
	b	.L247
.LVL232:
.L285:
	mov	ip, #11
	b	.L247
.LVL233:
.L283:
	mov	ip, #10
	b	.L247
	.cfi_endproc
.LFE405:
	.size	set_breakpoint, .-set_breakpoint
	.align	2
	.global	clear_breakpoint
	.syntax unified
	.arm
	.type	clear_breakpoint, %function
clear_breakpoint:
.LFB406:
	.loc 15 123 0
	.cfi_startproc
	@ args = 0, pretend = 0, frame = 0
	@ frame_needed = 0, uses_anonymous_args = 0
	@ link register save eliminated.
.LVL234:
	.loc 15 126 0
	movw	r3, #:lower16:n_breakpoints
	movt	r3, #:upper16:n_breakpoints
	ldr	r2, [r3]
	cmp	r2, #0
	bxeq	lr
	.loc 15 127 0
	movw	r3, #:lower16:breakpoints
	movt	r3, #:upper16:breakpoints
	ldr	r1, [r3]
	cmp	r1, r0
	beq	.L409
.L299:
.LVL235:
	.loc 15 126 0
	cmp	r2, #1
	bxeq	lr
.L438:
	.loc 15 127 0
	ldr	r1, [r3, #8]
	cmp	r0, r1
	beq	.L410
.L301:
.LVL236:
	.loc 15 126 0
	cmp	r2, #2
	bxeq	lr
.L437:
	.loc 15 127 0
	ldr	r1, [r3, #16]
	cmp	r0, r1
	beq	.L411
.L302:
.LVL237:
	.loc 15 126 0
	cmp	r2, #3
	bxeq	lr
.L436:
	.loc 15 127 0
	ldr	r1, [r3, #24]
	cmp	r0, r1
	beq	.L412
.L303:
.LVL238:
	.loc 15 126 0
	cmp	r2, #4
	bxeq	lr
.L435:
	.loc 15 127 0
	ldr	r1, [r3, #32]
	cmp	r0, r1
	beq	.L413
.L304:
.LVL239:
	.loc 15 126 0
	cmp	r2, #5
	bxeq	lr
.L434:
	.loc 15 127 0
	ldr	r1, [r3, #40]
	cmp	r0, r1
	beq	.L414
.L305:
.LVL240:
	.loc 15 126 0
	cmp	r2, #6
	bxeq	lr
.L433:
	.loc 15 127 0
	ldr	r1, [r3, #48]
	cmp	r0, r1
	beq	.L415
.LVL241:
	.loc 15 126 0
	cmp	r2, #7
	bxeq	lr
.L432:
	.loc 15 127 0
	ldr	r1, [r3, #56]
	cmp	r0, r1
	beq	.L416
.LVL242:
	.loc 15 126 0
	cmp	r2, #8
	bxeq	lr
.L431:
	.loc 15 127 0
	ldr	r1, [r3, #64]
	cmp	r0, r1
	beq	.L417
.LVL243:
	.loc 15 126 0
	cmp	r2, #9
	bxeq	lr
.L430:
	.loc 15 127 0
	ldr	r1, [r3, #72]
	cmp	r0, r1
	beq	.L418
.LVL244:
	.loc 15 126 0
	cmp	r2, #10
	bxeq	lr
.L429:
	.loc 15 127 0
	ldr	r1, [r3, #80]
	cmp	r0, r1
	beq	.L419
.LVL245:
	.loc 15 126 0
	cmp	r2, #11
	bxeq	lr
.L428:
	.loc 15 127 0
	ldr	r1, [r3, #88]
	cmp	r0, r1
	beq	.L420
.LVL246:
	.loc 15 126 0
	cmp	r2, #12
	bxeq	lr
.L427:
	.loc 15 127 0
	ldr	r1, [r3, #96]
	cmp	r0, r1
	beq	.L421
.LVL247:
	.loc 15 126 0
	cmp	r2, #13
	bxeq	lr
.L426:
	.loc 15 127 0
	ldr	r1, [r3, #104]
	cmp	r0, r1
	beq	.L422
.LVL248:
	.loc 15 126 0
	cmp	r2, #14
	bxeq	lr
.L425:
	.loc 15 127 0
	ldr	r1, [r3, #112]
	cmp	r0, r1
	beq	.L423
.LVL249:
	.loc 15 126 0
	cmp	r2, #15
	bxeq	lr
.L424:
	.loc 15 127 0
	ldr	r2, [r3, #120]
	cmp	r2, r0
	bxne	lr
	.loc 15 127 0 is_stmt 0 discriminator 1
	ldr	r2, [r3, #124]
	cmp	r2, #0
	.loc 15 130 0 is_stmt 1 discriminator 1
	movne	r2, #0
	strne	r2, [r3, #124]
.LVL250:
	bx	lr
.LVL251:
.L423:
	.loc 15 127 0
	ldr	r1, [r3, #116]
	cmp	r1, #0
	.loc 15 130 0
	movne	r1, #0
	strne	r1, [r3, #116]
.LVL252:
	.loc 15 126 0
	cmp	r2, #15
	bne	.L424
	bx	lr
.LVL253:
.L422:
	.loc 15 127 0
	ldr	r1, [r3, #108]
	cmp	r1, #0
	.loc 15 130 0
	movne	r1, #0
	strne	r1, [r3, #108]
.LVL254:
	.loc 15 126 0
	cmp	r2, #14
	bne	.L425
	bx	lr
.LVL255:
.L421:
	.loc 15 127 0
	ldr	r1, [r3, #100]
	cmp	r1, #0
	.loc 15 130 0
	movne	r1, #0
	strne	r1, [r3, #100]
.LVL256:
	.loc 15 126 0
	cmp	r2, #13
	bne	.L426
	bx	lr
.LVL257:
.L420:
	.loc 15 127 0
	ldr	r1, [r3, #92]
	cmp	r1, #0
	.loc 15 130 0
	movne	r1, #0
	strne	r1, [r3, #92]
.LVL258:
	.loc 15 126 0
	cmp	r2, #12
	bne	.L427
	bx	lr
.LVL259:
.L419:
	.loc 15 127 0
	ldr	r1, [r3, #84]
	cmp	r1, #0
	.loc 15 130 0
	movne	r1, #0
	strne	r1, [r3, #84]
.LVL260:
	.loc 15 126 0
	cmp	r2, #11
	bne	.L428
	bx	lr
.LVL261:
.L418:
	.loc 15 127 0
	ldr	r1, [r3, #76]
	cmp	r1, #0
	.loc 15 130 0
	movne	r1, #0
	strne	r1, [r3, #76]
.LVL262:
	.loc 15 126 0
	cmp	r2, #10
	bne	.L429
	bx	lr
.LVL263:
.L417:
	.loc 15 127 0
	ldr	r1, [r3, #68]
	cmp	r1, #0
	.loc 15 130 0
	movne	r1, #0
	strne	r1, [r3, #68]
.LVL264:
	.loc 15 126 0
	cmp	r2, #9
	bne	.L430
	bx	lr
.LVL265:
.L416:
	.loc 15 127 0
	ldr	r1, [r3, #60]
	cmp	r1, #0
	.loc 15 130 0
	movne	r1, #0
	strne	r1, [r3, #60]
.LVL266:
	.loc 15 126 0
	cmp	r2, #8
	bne	.L431
	bx	lr
.LVL267:
.L415:
	.loc 15 127 0
	ldr	r1, [r3, #52]
	cmp	r1, #0
	.loc 15 130 0
	movne	r1, #0
	strne	r1, [r3, #52]
.LVL268:
	.loc 15 126 0
	cmp	r2, #7
	bne	.L432
	bx	lr
.LVL269:
.L414:
	.loc 15 127 0
	ldr	r1, [r3, #44]
	cmp	r1, #0
	beq	.L305
.LVL270:
.LBB5501:
.LBB5502:
	.loc 16 255 0
	mov	r1, #0
	.syntax divided
@ 255 "/home/mint/seL4/dhs-demo-feb-2018/kernel/include/arch/arm/arch/machine/debug.h" 1
	mcr p14, 0, r1, c0, c5, 5
@ 0 "" 2
.LVL271:
	.arm
	.syntax unified
.LBE5502:
.LBE5501:
	.loc 15 126 0
	cmp	r2, #6
	.loc 15 130 0
	str	r1, [r3, #44]
.LVL272:
	.loc 15 126 0
	bne	.L433
	bx	lr
.LVL273:
.L413:
	.loc 15 127 0
	ldr	r1, [r3, #36]
	cmp	r1, #0
	beq	.L304
.LVL274:
.LBB5508:
.LBB5503:
	.loc 16 252 0
	mov	r1, #0
	.syntax divided
@ 252 "/home/mint/seL4/dhs-demo-feb-2018/kernel/include/arch/arm/arch/machine/debug.h" 1
	mcr p14, 0, r1, c0, c4, 5
@ 0 "" 2
.LVL275:
	.arm
	.syntax unified
.LBE5503:
.LBE5508:
	.loc 15 126 0
	cmp	r2, #5
	.loc 15 130 0
	str	r1, [r3, #36]
.LVL276:
	.loc 15 126 0
	bne	.L434
	bx	lr
.LVL277:
.L412:
	.loc 15 127 0
	ldr	r1, [r3, #28]
	cmp	r1, #0
	beq	.L303
.LVL278:
.LBB5509:
.LBB5504:
	.loc 16 249 0
	mov	r1, #0
	.syntax divided
@ 249 "/home/mint/seL4/dhs-demo-feb-2018/kernel/include/arch/arm/arch/machine/debug.h" 1
	mcr p14, 0, r1, c0, c3, 5
@ 0 "" 2
.LVL279:
	.arm
	.syntax unified
.LBE5504:
.LBE5509:
	.loc 15 126 0
	cmp	r2, #4
	.loc 15 130 0
	str	r1, [r3, #28]
.LVL280:
	.loc 15 126 0
	bne	.L435
	bx	lr
.LVL281:
.L411:
	.loc 15 127 0
	ldr	r1, [r3, #20]
	cmp	r1, #0
	beq	.L302
.LVL282:
.LBB5510:
.LBB5505:
	.loc 16 246 0
	mov	r1, #0
	.syntax divided
@ 246 "/home/mint/seL4/dhs-demo-feb-2018/kernel/include/arch/arm/arch/machine/debug.h" 1
	mcr p14, 0, r1, c0, c2, 5
@ 0 "" 2
.LVL283:
	.arm
	.syntax unified
.LBE5505:
.LBE5510:
	.loc 15 126 0
	cmp	r2, #3
	.loc 15 130 0
	str	r1, [r3, #20]
.LVL284:
	.loc 15 126 0
	bne	.L436
	bx	lr
.LVL285:
.L410:
	.loc 15 127 0
	ldr	r1, [r3, #12]
	cmp	r1, #0
	beq	.L301
.LVL286:
.LBB5511:
.LBB5506:
	.loc 16 243 0
	mov	r1, #0
	.syntax divided
@ 243 "/home/mint/seL4/dhs-demo-feb-2018/kernel/include/arch/arm/arch/machine/debug.h" 1
	mcr p14, 0, r1, c0, c1, 5
@ 0 "" 2
.LVL287:
	.arm
	.syntax unified
.LBE5506:
.LBE5511:
	.loc 15 126 0
	cmp	r2, #2
	.loc 15 130 0
	str	r1, [r3, #12]
.LVL288:
	.loc 15 126 0
	bne	.L437
	bx	lr
.LVL289:
.L409:
	.loc 15 127 0
	ldr	r1, [r3, #4]
	cmp	r1, #0
	beq	.L299
.LVL290:
.LBB5512:
.LBB5507:
	.loc 16 240 0
	mov	r1, #0
	.syntax divided
@ 240 "/home/mint/seL4/dhs-demo-feb-2018/kernel/include/arch/arm/arch/machine/debug.h" 1
	mcr p14, 0, r1, c0, c0, 5
@ 0 "" 2
.LVL291:
	.arm
	.syntax unified
.LBE5507:
.LBE5512:
	.loc 15 126 0
	cmp	r2, #1
	.loc 15 130 0
	str	r1, [r3, #4]
.LVL292:
	.loc 15 126 0
	bne	.L438
	bx	lr
	.cfi_endproc
.LFE406:
	.size	clear_breakpoint, .-clear_breakpoint
	.align	2
	.global	set_catch_handler
	.syntax unified
	.arm
	.type	set_catch_handler, %function
set_catch_handler:
.LFB407:
	.loc 15 139 0
	.cfi_startproc
	@ args = 0, pretend = 0, frame = 0
	@ frame_needed = 0, uses_anonymous_args = 0
	@ link register save eliminated.
.LVL293:
	.loc 15 140 0
	movw	r3, #:lower16:catch_handler
	movt	r3, #:upper16:catch_handler
	str	r0, [r3]
	bx	lr
	.cfi_endproc
.LFE407:
	.size	set_catch_handler, .-set_catch_handler
	.align	2
	.global	catch_vector
	.syntax unified
	.arm
	.type	catch_vector, %function
catch_vector:
.LFB408:
	.loc 15 145 0
	.cfi_startproc
	@ args = 0, pretend = 0, frame = 0
	@ frame_needed = 0, uses_anonymous_args = 0
	@ link register save eliminated.
.LVL294:
.LBB5513:
.LBB5514:
	.loc 16 124 0
	.syntax divided
@ 124 "/home/mint/seL4/dhs-demo-feb-2018/kernel/include/arch/arm/arch/machine/debug.h" 1
	mrc p14, 0, r3, c0, c7, 0
@ 0 "" 2
	.arm
	.syntax unified
.LBE5514:
.LBE5513:
.LBB5515:
.LBB5516:
	.loc 16 132 0
	mov	r2, #1
	orr	r0, r3, r2, lsl r0
.LVL295:
	.syntax divided
@ 132 "/home/mint/seL4/dhs-demo-feb-2018/kernel/include/arch/arm/arch/machine/debug.h" 1
	mcr p14, 0, r0, c0, c7, 0
@ 0 "" 2
	.arm
	.syntax unified
	bx	lr
.LBE5516:
.LBE5515:
	.cfi_endproc
.LFE408:
	.size	catch_vector, .-catch_vector
	.align	2
	.global	uncatch_vector
	.syntax unified
	.arm
	.type	uncatch_vector, %function
uncatch_vector:
.LFB409:
	.loc 15 155 0
	.cfi_startproc
	@ args = 0, pretend = 0, frame = 0
	@ frame_needed = 0, uses_anonymous_args = 0
	@ link register save eliminated.
.LVL296:
.LBB5517:
.LBB5518:
	.loc 16 124 0
	.syntax divided
@ 124 "/home/mint/seL4/dhs-demo-feb-2018/kernel/include/arch/arm/arch/machine/debug.h" 1
	mrc p14, 0, r3, c0, c7, 0
@ 0 "" 2
	.arm
	.syntax unified
.LBE5518:
.LBE5517:
.LBB5519:
.LBB5520:
	.loc 16 132 0
	mov	r2, #1
	bic	r0, r3, r2, lsl r0
.LVL297:
	.syntax divided
@ 132 "/home/mint/seL4/dhs-demo-feb-2018/kernel/include/arch/arm/arch/machine/debug.h" 1
	mcr p14, 0, r0, c0, c7, 0
@ 0 "" 2
	.arm
	.syntax unified
	bx	lr
.LBE5520:
.LBE5519:
	.cfi_endproc
.LFE409:
	.size	uncatch_vector, .-uncatch_vector
	.section	.boot.text
	.align	2
	.global	arm_errata
	.syntax unified
	.arm
	.type	arm_errata, %function
arm_errata:
.LFB410:
	.file 17 "/home/mint/seL4/dhs-demo-feb-2018/kernel/src/arch/arm/machine/errata.c"
	.loc 17 71 0
	.cfi_startproc
	@ args = 0, pretend = 0, frame = 0
	@ frame_needed = 0, uses_anonymous_args = 0
	@ link register save eliminated.
	bx	lr
	.cfi_endproc
.LFE410:
	.size	arm_errata, .-arm_errata
	.align	2
	.global	initIRQController
	.syntax unified
	.arm
	.type	initIRQController, %function
initIRQController:
.LFB423:
	.file 18 "/home/mint/seL4/dhs-demo-feb-2018/kernel/src/arch/arm/machine/gic_pl390.c"
	.loc 18 288 0
	.cfi_startproc
	@ args = 0, pretend = 0, frame = 0
	@ frame_needed = 0, uses_anonymous_args = 0
.LBB5525:
.LBB5526:
	.loc 18 219 0
	movw	ip, #:lower16:.LANCHOR2
	.loc 18 220 0
	mov	r1, #0
	.loc 18 219 0
	movt	ip, #:upper16:.LANCHOR2
.LBE5526:
.LBE5525:
	.loc 18 288 0
	push	{r4, lr}
	.cfi_def_cfa_offset 8
	.cfi_offset 4, -8
	.cfi_offset 14, -4
.LBB5530:
.LBB5527:
	.loc 18 219 0
	ldr	r3, [ip]
	.loc 18 222 0
	mov	r0, r1
	.loc 18 224 0
	mvn	lr, #0
	.loc 18 219 0
	ldr	r2, [r3, #4]
	.loc 18 220 0
	str	r1, [r3]
	.loc 18 219 0
	and	r2, r2, #31
	add	r2, r2, #1
	lsl	r2, r2, #5
.LVL298:
.L444:
	asr	r1, r0, #5
	.loc 18 222 0
	add	r0, r0, #32
.LVL299:
	cmp	r2, r0
	add	r1, r3, r1, lsl #2
	.loc 18 224 0
	str	lr, [r1, #384]
	.loc 18 226 0
	str	lr, [r1, #640]
	.loc 18 222 0
	bgt	.L444
.LVL300:
	.loc 18 230 0
	cmp	r2, #32
	movne	r1, #32
	.loc 18 231 0
	movne	lr, #0
	.loc 18 230 0
	beq	.L448
.LVL301:
.L447:
	.loc 18 231 0
	asr	r0, r1, #2
	.loc 18 230 0
	add	r1, r1, #4
.LVL302:
	cmp	r2, r1
	.loc 18 231 0
	add	r0, r0, #256
	str	lr, [r3, r0, lsl #2]
	.loc 18 230 0
	bgt	.L447
.LVL303:
.L448:
	.loc 18 239 0
	movw	lr, #257
	.loc 18 230 0
	mov	r1, #0
	.loc 18 239 0
	movt	lr, 257
.L446:
.LVL304:
	asr	r0, r1, #2
	.loc 18 238 0
	add	r1, r1, #4
.LVL305:
	cmp	r2, r1
	.loc 18 239 0
	add	r0, r0, #512
	str	lr, [r3, r0, lsl #2]
	.loc 18 238 0
	bgt	.L446
.LVL306:
	.loc 18 243 0
	cmp	r2, #64
	.loc 18 244 0
	movwgt	lr, #21845
	.loc 18 243 0
	movgt	r1, #64
	.loc 18 244 0
	movtgt	lr, 21845
	.loc 18 243 0
	ble	.L452
.LVL307:
.L451:
	.loc 18 244 0
	asr	r0, r1, #5
	.loc 18 243 0
	add	r1, r1, #32
.LVL308:
	cmp	r2, r1
	.loc 18 244 0
	add	r0, r0, #768
	str	lr, [r3, r0, lsl #2]
	.loc 18 243 0
	bgt	.L451
.LVL309:
.L452:
	mov	r1, #0
	.loc 18 248 0
	mov	lr, r1
.L450:
.LVL310:
	asr	r0, r1, #5
	.loc 18 247 0
	add	r1, r1, #32
.LVL311:
	cmp	r2, r1
	.loc 18 248 0
	add	r0, r0, #32
	str	lr, [r3, r0, lsl #2]
	.loc 18 247 0
	bgt	.L450
.LBE5527:
.LBE5530:
.LBB5531:
.LBB5532:
	.loc 18 273 0
	ldr	r2, [ip, #4]
.LVL312:
	.loc 18 263 0
	mvn	r1, #0
.LVL313:
.LBE5532:
.LBE5531:
.LBB5535:
.LBB5528:
	.loc 18 251 0
	mov	r0, #1
.LBE5528:
.LBE5535:
.LBB5536:
.LBB5533:
	.loc 18 274 0
	mov	r4, #240
	.loc 18 275 0
	mov	ip, #3
.LBE5533:
.LBE5536:
.LBB5537:
.LBB5529:
	.loc 18 251 0
	str	r0, [r3]
.LBE5529:
.LBE5537:
.LBB5538:
.LBB5534:
	.loc 18 263 0
	str	r1, [r3, #384]
	.loc 18 277 0
	movw	r0, #1023
	.loc 18 264 0
	str	r1, [r3, #640]
	.loc 18 265 0
	str	lr, [r3, #1024]
.LVL314:
	.loc 18 270 0
	str	r1, [r3, #3856]
.LVL315:
	str	r1, [r3, #3860]
.LVL316:
	str	r1, [r3, #3864]
.LVL317:
	str	r1, [r3, #3868]
.LVL318:
	.loc 18 273 0
	str	lr, [r2]
	.loc 18 274 0
	str	r4, [r2, #4]
	.loc 18 275 0
	str	ip, [r2, #8]
	.loc 18 277 0
	ldr	r3, [r2, #12]
.LVL319:
	ubfx	r1, r3, #0, #10
	cmp	r1, r0
	beq	.L455
.L454:
	.loc 18 278 0
	str	r3, [r2, #16]
	.loc 18 277 0
	ldr	r3, [r2, #12]
.LVL320:
	ubfx	r1, r3, #0, #10
	cmp	r1, r0
	bne	.L454
.L455:
	.loc 18 280 0
	mov	r3, #1
.LVL321:
	str	r3, [r2]
.LBE5534:
.LBE5538:
	.loc 18 291 0
	pop	{r4, pc}
	.cfi_endproc
.LFE423:
	.size	initIRQController, .-initIRQController
	.text
	.align	2
	.global	getActiveIRQ
	.syntax unified
	.arm
	.type	getActiveIRQ, %function
getActiveIRQ:
.LFB424:
	.loc 18 309 0
	.cfi_startproc
	@ args = 0, pretend = 0, frame = 0
	@ frame_needed = 0, uses_anonymous_args = 0
	@ link register save eliminated.
	.loc 18 311 0
	movw	r3, #:lower16:.LANCHOR2
	movt	r3, #:upper16:.LANCHOR2
	ldr	r0, [r3, #8]
	ubfx	r0, r0, #0, #10
	cmp	r0, #1020
	bcc	.L465
	.loc 18 312 0
	ldr	r2, [r3, #4]
	ldr	r2, [r2, #12]
	.loc 18 315 0
	ubfx	r0, r2, #0, #10
	.loc 18 312 0
	str	r2, [r3, #8]
	.loc 18 315 0
	cmp	r0, #1020
	bcc	.L465
	movw	r0, #65535
	bx	lr
.L465:
	uxth	r0, r0
	.loc 18 322 0
	bx	lr
	.cfi_endproc
.LFE424:
	.size	getActiveIRQ, .-getActiveIRQ
	.align	2
	.global	isIRQPending
	.syntax unified
	.arm
	.type	isIRQPending, %function
isIRQPending:
.LFB425:
	.loc 18 334 0
	.cfi_startproc
	@ args = 0, pretend = 0, frame = 0
	@ frame_needed = 0, uses_anonymous_args = 0
	@ link register save eliminated.
	.loc 18 335 0
	movw	r3, #:lower16:.LANCHOR2
	movt	r3, #:upper16:.LANCHOR2
	ldr	r3, [r3, #4]
	ldr	r0, [r3, #24]
	ubfx	r0, r0, #0, #10
	.loc 18 336 0
	cmp	r0, #1020
	movcs	r0, #0
	movcc	r0, #1
	bx	lr
	.cfi_endproc
.LFE425:
	.size	isIRQPending, .-isIRQPending
	.align	2
	.global	maskInterrupt
	.syntax unified
	.arm
	.type	maskInterrupt, %function
maskInterrupt:
.LFB426:
	.loc 18 344 0
	.cfi_startproc
	@ args = 0, pretend = 0, frame = 0
	@ frame_needed = 0, uses_anonymous_args = 0
	@ link register save eliminated.
.LVL322:
.LBB5547:
.LBB5548:
.LBB5549:
	.loc 18 199 0
	movw	r2, #:lower16:.LANCHOR2
	.loc 18 196 0
	lsr	r3, r1, #5
.LVL323:
	.loc 18 199 0
	movt	r2, #:upper16:.LANCHOR2
.LBE5549:
.LBE5548:
.LBE5547:
	.loc 18 345 0
	cmp	r0, #0
.LBB5554:
.LBB5552:
.LBB5550:
	.loc 18 199 0
	and	r1, r1, #31
.LVL324:
	ldr	r0, [r2]
.LVL325:
	mov	r2, #1
.LBE5550:
.LBE5552:
.LBE5554:
.LBB5555:
.LBB5556:
	.loc 18 207 0
	lsl	r1, r2, r1
.LVL326:
.LBE5556:
.LBE5555:
.LBB5558:
.LBB5553:
.LBB5551:
	.loc 18 199 0
	addne	r3, r3, #96
.LVL327:
.LBE5551:
.LBE5553:
.LBE5558:
.LBB5559:
.LBB5557:
	.loc 18 207 0
	addeq	r3, r3, #64
	str	r1, [r0, r3, lsl #2]
	bx	lr
.LBE5557:
.LBE5559:
	.cfi_endproc
.LFE426:
	.size	maskInterrupt, .-maskInterrupt
	.align	2
	.global	handleSpuriousIRQ
	.syntax unified
	.arm
	.type	handleSpuriousIRQ, %function
handleSpuriousIRQ:
.LFB428:
	.loc 18 368 0
	.cfi_startproc
	@ args = 0, pretend = 0, frame = 0
	@ frame_needed = 0, uses_anonymous_args = 0
	@ link register save eliminated.
	bx	lr
	.cfi_endproc
.LFE428:
	.size	handleSpuriousIRQ, .-handleSpuriousIRQ
	.align	2
	.global	getRestartPC
	.syntax unified
	.arm
	.type	getRestartPC, %function
getRestartPC:
.LFB429:
	.file 19 "/home/mint/seL4/dhs-demo-feb-2018/kernel/src/arch/arm/machine/hardware.c"
	.loc 19 17 0
	.cfi_startproc
	@ args = 0, pretend = 0, frame = 0
	@ frame_needed = 0, uses_anonymous_args = 0
	@ link register save eliminated.
.LVL328:
	.loc 19 19 0
	ldr	r0, [r0, #68]
.LVL329:
	bx	lr
	.cfi_endproc
.LFE429:
	.size	getRestartPC, .-getRestartPC
	.align	2
	.global	setNextPC
	.syntax unified
	.arm
	.type	setNextPC, %function
setNextPC:
.LFB430:
	.loc 19 23 0
	.cfi_startproc
	@ args = 0, pretend = 0, frame = 0
	@ frame_needed = 0, uses_anonymous_args = 0
	@ link register save eliminated.
.LVL330:
.LBB5560:
.LBB5561:
	.loc 10 21 0
	str	r1, [r0, #60]
.LVL331:
	bx	lr
.LBE5561:
.LBE5560:
	.cfi_endproc
.LFE430:
	.size	setNextPC, .-setNextPC
	.section	.boot.text
	.align	2
	.global	initL2Cache
	.syntax unified
	.arm
	.type	initL2Cache, %function
initL2Cache:
.LFB431:
	.file 20 "/home/mint/seL4/dhs-demo-feb-2018/kernel/src/arch/arm/machine/l2c_310.c"
	.loc 20 255 0
	.cfi_startproc
	@ args = 0, pretend = 0, frame = 0
	@ frame_needed = 0, uses_anonymous_args = 0
	@ link register save eliminated.
.LVL332:
	.loc 20 297 0
	movw	r3, #:lower16:.LANCHOR2
	mov	r1, #0
	movt	r3, #:upper16:.LANCHOR2
	movt	r1, 15367
	ldr	r2, [r3, #12]
	.loc 20 300 0
	mov	ip, #805306368
	.loc 20 298 0
	movw	r3, #289
	.loc 20 305 0
	movw	r0, #65535
	.loc 20 297 0
	str	r1, [r2, #260]
	.loc 20 298 0
	str	r3, [r2, #264]
	.loc 20 299 0
	str	r3, [r2, #268]
	.loc 20 300 0
	str	ip, [r2, #3936]
	.loc 20 305 0
	str	r0, [r2, #1916]
.L477:
	.loc 20 306 0 discriminator 1
	ldr	r3, [r2, #1916]
	ands	r3, r3, #1
	bne	.L477
	.loc 20 309 0
	ldr	r1, [r2, #4]
	and	r1, r1, #503316480
	cmp	r1, #469762048
	beq	.L481
.L478:
	.loc 20 328 0
	ldr	r3, [r2, #4]
	.loc 20 334 0
	mov	r1, #0
	.loc 20 328 0
	and	r3, r3, #503316480
	cmp	r3, #503316480
	.loc 20 330 0
	moveq	r3, #0
	streq	r3, [r2, #2384]
	.loc 20 336 0
	movw	r3, #511
	.loc 20 334 0
	str	r1, [r2, #532]
	.loc 20 336 0
	str	r3, [r2, #544]
	.loc 20 344 0
	ldr	r3, [r2, #256]
	orr	r3, r3, #1
	str	r3, [r2, #256]
	bx	lr
.L481:
	.loc 20 311 0
	str	r3, [r2, #2304]
	.loc 20 312 0
	str	r3, [r2, #2308]
	.loc 20 313 0
	str	r3, [r2, #2312]
	.loc 20 314 0
	str	r3, [r2, #2316]
	.loc 20 315 0
	str	r3, [r2, #2320]
	.loc 20 316 0
	str	r3, [r2, #2324]
	.loc 20 317 0
	str	r3, [r2, #2328]
	.loc 20 318 0
	str	r3, [r2, #2332]
	.loc 20 319 0
	str	r3, [r2, #2336]
	.loc 20 320 0
	str	r3, [r2, #2340]
	.loc 20 321 0
	str	r3, [r2, #2344]
	.loc 20 322 0
	str	r3, [r2, #2348]
	.loc 20 323 0
	str	r3, [r2, #2352]
	.loc 20 324 0
	str	r3, [r2, #2356]
	.loc 20 325 0
	str	r3, [r2, #2360]
	.loc 20 326 0
	str	r3, [r2, #2364]
	b	.L478
	.cfi_endproc
.LFE431:
	.size	initL2Cache, .-initL2Cache
	.text
	.align	2
	.global	plat_cleanCache
	.syntax unified
	.arm
	.type	plat_cleanCache, %function
plat_cleanCache:
.LFB433:
	.loc 20 358 0
	.cfi_startproc
	@ args = 0, pretend = 0, frame = 0
	@ frame_needed = 0, uses_anonymous_args = 0
	@ link register save eliminated.
	.loc 20 361 0
	movw	r1, #:lower16:.LANCHOR2
	movw	r3, #65535
	movt	r1, #:upper16:.LANCHOR2
	ldr	r2, [r1, #12]
	str	r3, [r2, #1980]
.L483:
	.loc 20 362 0 discriminator 1
	ldr	r3, [r2, #1980]
	ands	r3, r3, #1
	bne	.L483
.LBB5562:
.LBB5563:
.LBB5564:
.LBB5565:
	.loc 12 23 0
	.syntax divided
@ 23 "/home/mint/seL4/dhs-demo-feb-2018/kernel/include/arch/arm/armv/armv7-a/armv/machine.h" 1
	dmb
@ 0 "" 2
	.arm
	.syntax unified
.LBE5565:
.LBE5564:
	.loc 20 353 0
	ldr	r2, [r1, #12]
	str	r3, [r2, #1840]
.L484:
	.loc 20 354 0
	ldr	r3, [r2, #1840]
	tst	r3, #1
	bne	.L484
.LBE5563:
.LBE5562:
	.loc 20 365 0
	bx	lr
	.cfi_endproc
.LFE433:
	.size	plat_cleanCache, .-plat_cleanCache
	.section	.boot.text
	.align	2
	.global	initTimer
	.syntax unified
	.arm
	.type	initTimer, %function
initTimer:
.LFB437:
	.file 21 "/home/mint/seL4/dhs-demo-feb-2018/kernel/src/arch/arm/machine/priv_timer.c"
	.loc 21 41 0
	.cfi_startproc
	@ args = 0, pretend = 0, frame = 0
	@ frame_needed = 0, uses_anonymous_args = 0
	@ link register save eliminated.
	.loc 21 43 0
	movw	r3, #:lower16:.LANCHOR2
	.loc 21 47 0
	mov	r2, #4608
	.loc 21 43 0
	movt	r3, #:upper16:.LANCHOR2
	mov	r1, #0
	ldr	r3, [r3, #16]
	.loc 21 47 0
	movt	r2, 122
	.loc 21 43 0
	str	r1, [r3, #8]
	.loc 21 44 0
	str	r1, [r3, #12]
	.loc 21 47 0
	str	r2, [r3]
	.loc 21 48 0
	ldr	r2, [r3, #8]
	orr	r2, r2, #6
	str	r2, [r3, #8]
	.loc 21 52 0
	ldr	r2, [r3, #8]
	orr	r2, r2, #1
	str	r2, [r3, #8]
	bx	lr
	.cfi_endproc
.LFE437:
	.size	initTimer, .-initTimer
	.text
	.align	2
	.global	resetTimer
	.syntax unified
	.arm
	.type	resetTimer, %function
resetTimer:
.LFB438:
	.loc 21 60 0
	.cfi_startproc
	@ args = 0, pretend = 0, frame = 0
	@ frame_needed = 0, uses_anonymous_args = 0
	@ link register save eliminated.
	.loc 21 61 0
	movw	r3, #:lower16:.LANCHOR2
	mov	r2, #1
	movt	r3, #:upper16:.LANCHOR2
	ldr	r3, [r3, #16]
	str	r2, [r3, #12]
	bx	lr
	.cfi_endproc
.LFE438:
	.size	resetTimer, .-resetTimer
	.align	2
	.global	Arch_decodeInterruptControl
	.syntax unified
	.arm
	.type	Arch_decodeInterruptControl, %function
Arch_decodeInterruptControl:
.LFB439:
	.file 22 "/home/mint/seL4/dhs-demo-feb-2018/kernel/src/arch/arm/object/interrupt.c"
	.loc 22 18 0
	.cfi_startproc
	@ args = 0, pretend = 0, frame = 16
	@ frame_needed = 0, uses_anonymous_args = 0
.LVL333:
	str	lr, [sp, #-4]!
	.cfi_def_cfa_offset 4
	.cfi_offset 14, -4
	.loc 22 19 0
	movw	ip, #:lower16:current_syscall_error
	.loc 22 18 0
	sub	sp, sp, #20
	.cfi_def_cfa_offset 24
	.loc 22 19 0
	mov	r0, #3
.LVL334:
	movt	ip, #:upper16:current_syscall_error
	.loc 22 18 0
	add	lr, sp, #16
	stmdb	lr, {r1, r2, r3}
	.loc 22 19 0
	str	r0, [ip, #24]
	.loc 22 21 0
	add	sp, sp, #20
	.cfi_def_cfa_offset 4
	@ sp needed
	ldr	pc, [sp], #4
	.cfi_endproc
.LFE439:
	.size	Arch_decodeInterruptControl, .-Arch_decodeInterruptControl
	.align	2
	.global	Arch_updateCapData
	.syntax unified
	.arm
	.type	Arch_updateCapData, %function
Arch_updateCapData:
.LFB441:
	.file 23 "/home/mint/seL4/dhs-demo-feb-2018/kernel/src/arch/arm/object/objecttype.c"
	.loc 23 49 0
	.cfi_startproc
	@ args = 12, pretend = 8, frame = 0
	@ frame_needed = 0, uses_anonymous_args = 0
	@ link register save eliminated.
.LVL335:
	sub	sp, sp, #8
	.cfi_def_cfa_offset 8
	.loc 23 49 0
	mov	ip, r0
	sub	r2, sp, #4
.LVL336:
	.loc 23 51 0
	add	sp, sp, #8
	.cfi_def_cfa_offset 0
	.loc 23 49 0
	str	r3, [r2, #8]!
	.loc 23 50 0
	ldm	r2, {r0, r1}
.LVL337:
	stm	ip, {r0, r1}
	.loc 23 51 0
	mov	r0, ip
	bx	lr
	.cfi_endproc
.LFE441:
	.size	Arch_updateCapData, .-Arch_updateCapData
	.align	2
	.global	Arch_prepareThreadDelete
	.syntax unified
	.arm
	.type	Arch_prepareThreadDelete, %function
Arch_prepareThreadDelete:
.LFB976:
	.cfi_startproc
	@ args = 0, pretend = 0, frame = 0
	@ frame_needed = 0, uses_anonymous_args = 0
	@ link register save eliminated.
	bx	lr
	.cfi_endproc
.LFE976:
	.size	Arch_prepareThreadDelete, .-Arch_prepareThreadDelete
	.align	2
	.global	Arch_isFrameType
	.syntax unified
	.arm
	.type	Arch_isFrameType, %function
Arch_isFrameType:
.LFB453:
	.loc 23 371 0
	.cfi_startproc
	@ args = 0, pretend = 0, frame = 0
	@ frame_needed = 0, uses_anonymous_args = 0
	@ link register save eliminated.
.LVL338:
	.loc 23 372 0
	sub	r0, r0, #5
.LVL339:
	.loc 23 381 0
	cmp	r0, #3
	movhi	r0, #0
.LVL340:
	movls	r0, #1
	bx	lr
	.cfi_endproc
.LFE453:
	.size	Arch_isFrameType, .-Arch_isFrameType
	.align	2
	.global	Arch_decodeTransfer
	.syntax unified
	.arm
	.type	Arch_decodeTransfer, %function
Arch_decodeTransfer:
.LFB458:
	.file 24 "/home/mint/seL4/dhs-demo-feb-2018/kernel/src/arch/arm/object/tcb.c"
	.loc 24 179 0
	.cfi_startproc
	@ args = 0, pretend = 0, frame = 0
	@ frame_needed = 0, uses_anonymous_args = 0
	@ link register save eliminated.
.LVL341:
	.loc 24 181 0
	mov	r0, #0
.LVL342:
	bx	lr
	.cfi_endproc
.LFE458:
	.size	Arch_decodeTransfer, .-Arch_decodeTransfer
	.align	2
	.global	Arch_performTransfer
	.syntax unified
	.arm
	.type	Arch_performTransfer, %function
Arch_performTransfer:
.LFB459:
	.loc 24 185 0
	.cfi_startproc
	@ args = 0, pretend = 0, frame = 0
	@ frame_needed = 0, uses_anonymous_args = 0
	@ link register save eliminated.
.LVL343:
	.loc 24 187 0
	mov	r0, #0
.LVL344:
	bx	lr
	.cfi_endproc
.LFE459:
	.size	Arch_performTransfer, .-Arch_performTransfer
	.align	2
	.global	Arch_leaveVMAsyncTransfer
	.syntax unified
	.arm
	.type	Arch_leaveVMAsyncTransfer, %function
Arch_leaveVMAsyncTransfer:
.LFB460:
	.loc 24 191 0
	.cfi_startproc
	@ args = 0, pretend = 0, frame = 0
	@ frame_needed = 0, uses_anonymous_args = 0
	@ link register save eliminated.
.LVL345:
	bx	lr
	.cfi_endproc
.LFE460:
	.size	Arch_leaveVMAsyncTransfer, .-Arch_leaveVMAsyncTransfer
	.section	.boot.text
	.align	2
	.global	bi_finalise
	.syntax unified
	.arm
	.type	bi_finalise, %function
bi_finalise:
.LFB482:
	.file 25 "/home/mint/seL4/dhs-demo-feb-2018/kernel/src/kernel/boot.c"
	.loc 25 528 0
	.cfi_startproc
	@ args = 0, pretend = 0, frame = 0
	@ frame_needed = 0, uses_anonymous_args = 0
	@ link register save eliminated.
.LVL346:
	.loc 25 530 0
	movw	r3, #:lower16:.LANCHOR3
	movt	r3, #:upper16:.LANCHOR3
	ldr	r1, [r3, #24]
.LVL347:
	.loc 25 531 0
	ldr	r2, [r3, #16]
	ldr	r3, [r3, #20]
	str	r1, [r2, #20]
.LVL348:
	str	r3, [r2, #16]
	bx	lr
	.cfi_endproc
.LFE482:
	.size	bi_finalise, .-bi_finalise
	.text
	.align	2
	.global	doPollFailedTransfer
	.syntax unified
	.arm
	.type	doPollFailedTransfer, %function
doPollFailedTransfer:
.LFB562:
	.file 26 "/home/mint/seL4/dhs-demo-feb-2018/kernel/src/kernel/thread.c"
	.loc 26 271 0
	.cfi_startproc
	@ args = 0, pretend = 0, frame = 0
	@ frame_needed = 0, uses_anonymous_args = 0
	@ link register save eliminated.
.LVL349:
.LBB5566:
.LBB5567:
	.loc 10 21 0
	mov	r3, #0
	str	r3, [r0]
.LVL350:
	bx	lr
.LBE5567:
.LBE5566:
	.cfi_endproc
.LFE562:
	.size	doPollFailedTransfer, .-doPollFailedTransfer
	.align	2
	.global	switchToIdleThread
	.syntax unified
	.arm
	.type	switchToIdleThread, %function
switchToIdleThread:
.LFB567:
	.loc 26 351 0
	.cfi_startproc
	@ args = 0, pretend = 0, frame = 0
	@ frame_needed = 0, uses_anonymous_args = 0
	@ link register save eliminated.
	.loc 26 353 0
	movw	r1, #:lower16:ksIdleThread
	movw	r3, #:lower16:ksCurThread
	movt	r1, #:upper16:ksIdleThread
.LBB5568:
.LBB5569:
	.loc 9 36 0
	movw	r2, #:lower16:.LANCHOR0
.LBE5569:
.LBE5568:
	.loc 26 353 0
	ldr	r1, [r1]
	movt	r3, #:upper16:ksCurThread
.LBB5571:
.LBB5570:
	.loc 9 36 0
	movt	r2, #:upper16:.LANCHOR0
	mov	r0, #0
	str	r0, [r2]
.LBE5570:
.LBE5571:
	.loc 26 353 0
	str	r1, [r3]
	bx	lr
	.cfi_endproc
.LFE567:
	.size	switchToIdleThread, .-switchToIdleThread
	.align	2
	.global	print_unsigned_long
	.syntax unified
	.arm
	.type	print_unsigned_long, %function
print_unsigned_long:
.LFB580:
	.loc 5 56 0
	.cfi_startproc
	@ args = 0, pretend = 0, frame = 16
	@ frame_needed = 0, uses_anonymous_args = 0
.LVL351:
	.loc 5 65 0
	cmp	r1, #10
	cmpne	r1, #16
	movne	r2, #1
	moveq	r2, #0
	bne	.L522
	.loc 5 69 0
	cmp	r0, #0
.LBB5594:
.LBB5595:
.LBB5596:
	.loc 2 119 0
	mvneq	r2, #1040384
.LBE5596:
.LBE5595:
.LBE5594:
	.loc 5 69 0
	beq	.L506
.LVL352:
.LBB5601:
.LBB5602:
.LBB5603:
.LBB5604:
	.loc 5 44 0
	cmp	r1, #10
.LBE5604:
.LBE5603:
.LBE5602:
.LBE5601:
	.loc 5 56 0
	push	{r4, r5, lr}
	.cfi_def_cfa_offset 12
	.cfi_offset 4, -12
	.cfi_offset 5, -8
	.cfi_offset 14, -4
	sub	sp, sp, #20
	.cfi_def_cfa_offset 32
.LBB5636:
.LBB5633:
.LBB5608:
.LBB5605:
	.loc 5 44 0
	beq	.L524
	cmp	r1, #16
	movne	lr, #1
	movne	r3, #48
	beq	.L551
.LVL353:
.L549:
.LBE5605:
.LBE5608:
	.loc 5 77 0
	mov	ip, lr
.LBB5609:
.LBB5610:
	.loc 5 31 0
	cmp	r1, #10
	add	lr, sp, #16
	add	r2, lr, r2
	strb	r3, [r2, #-12]
.LVL354:
	bne	.L552
.LVL355:
	.loc 5 35 0
	movw	r2, #52429
	movt	r2, 52428
	umull	r2, r3, r0, r2
.LVL356:
.LBE5610:
.LBE5609:
	.loc 5 74 0
	lsrs	r0, r3, #3
.LVL357:
	beq	.L513
	add	lr, ip, #1
.LVL358:
	mov	r2, ip
.LVL359:
.L508:
	movw	r4, #52429
	movt	r4, 52428
	umull	r4, r5, r0, r4
	lsr	r3, r5, #3
	add	r3, r3, r3, lsl #2
	sub	r3, r0, r3, lsl #1
	add	r3, r3, #48
	uxtb	r3, r3
	b	.L549
.LVL360:
.L506:
	.cfi_def_cfa_offset 0
	.cfi_restore 4
	.cfi_restore 5
	.cfi_restore 14
.LBE5633:
.LBE5636:
.LBB5637:
.LBB5599:
.LBB5597:
	.loc 2 119 0
	ldr	r3, [r2, #-3943]
	tst	r3, #16384
	beq	.L506
	.loc 2 120 0
	mov	r3, #48
.LBE5597:
.LBE5599:
.LBE5637:
	.loc 5 71 0
	mov	r0, #1
.LVL361:
.LBB5638:
.LBB5600:
.LBB5598:
	.loc 2 120 0
	str	r3, [r2, #-4031]
.LBE5598:
.LBE5600:
.LBE5638:
	.loc 5 89 0
	bx	lr
.LVL362:
.L522:
	.loc 5 66 0
	mov	r0, #0
.LVL363:
	bx	lr
.LVL364:
.L552:
	.cfi_def_cfa_offset 32
	.cfi_offset 4, -12
	.cfi_offset 5, -8
	.cfi_offset 14, -4
.LBB5639:
.LBB5634:
.LBB5612:
.LBB5611:
	.loc 5 31 0
	cmp	r1, #16
	beq	.L512
.LVL365:
.L513:
.LBE5611:
.LBE5612:
	.loc 5 84 0
	cmp	ip, #0
	addne	lr, sp, #4
.LBB5613:
.LBB5614:
.LBB5615:
.LBB5616:
	.loc 2 119 0
	mvnne	r2, #1040384
	addne	r1, lr, ip
.LVL366:
.LBE5616:
.LBE5615:
.LBB5619:
.LBB5620:
.LBB5621:
	.loc 2 120 0
	movne	r4, #13
.LBE5621:
.LBE5620:
.LBE5619:
.LBE5614:
.LBE5613:
	.loc 5 84 0
	beq	.L520
.LVL367:
.L519:
	.loc 5 85 0
	ldrb	r0, [r1, #-1]!	@ zero_extendqisi2
.LVL368:
.L516:
.LBB5629:
.LBB5627:
.LBB5624:
.LBB5617:
	.loc 2 119 0
	ldr	r3, [r2, #-3943]
	tst	r3, #16384
	beq	.L516
.LBE5617:
.LBE5624:
	.loc 2 112 0
	cmp	r0, #10
.LBB5625:
.LBB5618:
	.loc 2 120 0
	str	r0, [r2, #-4031]
.LVL369:
.LBE5618:
.LBE5625:
	.loc 2 112 0
	beq	.L518
.L517:
.LVL370:
.LBE5627:
.LBE5629:
	.loc 5 84 0
	cmp	r1, lr
	bne	.L519
.LVL371:
.L520:
	mov	r0, ip
.LBE5634:
.LBE5639:
	.loc 5 89 0
	add	sp, sp, #20
	.cfi_remember_state
	.cfi_def_cfa_offset 12
	@ sp needed
	pop	{r4, r5, pc}
.LVL372:
.L518:
	.cfi_restore_state
.LBB5640:
.LBB5635:
.LBB5630:
.LBB5628:
.LBB5626:
.LBB5623:
.LBB5622:
	.loc 2 119 0
	ldr	r3, [r2, #-3943]
	tst	r3, #16384
	beq	.L518
	.loc 2 120 0
	str	r4, [r2, #-4031]
	b	.L517
.LVL373:
.L554:
	add	lr, ip, #1
.L509:
.LVL374:
.LBE5622:
.LBE5623:
.LBE5626:
.LBE5628:
.LBE5630:
.LBB5631:
.LBB5606:
	.loc 5 46 0
	and	r3, r0, #15
.LVL375:
.LBE5606:
.LBE5631:
	.loc 5 77 0
	cmp	r3, #9
	bls	.L553
	add	r2, sp, #16
	add	r3, r3, #87
	add	ip, r2, ip
.LVL376:
	strb	r3, [ip, #-12]
.LVL377:
	mov	ip, lr
.L512:
.LVL378:
	.loc 5 74 0
	lsrs	r0, r0, #4
.LVL379:
	bne	.L554
	b	.L513
.LVL380:
.L553:
	.loc 5 77 0
	mov	r2, ip
	add	r3, r3, #48
	b	.L549
.LVL381:
.L551:
.LBB5632:
.LBB5607:
	.loc 5 44 0
	mov	ip, r2
	mov	lr, #1
	b	.L509
.L524:
	mov	lr, #1
	b	.L508
.LBE5607:
.LBE5632:
.LBE5635:
.LBE5640:
	.cfi_endproc
.LFE580:
	.size	print_unsigned_long, .-print_unsigned_long
	.align	2
	.global	puts
	.syntax unified
	.arm
	.type	puts, %function
puts:
.LFB583:
	.loc 5 222 0
	.cfi_startproc
	@ args = 0, pretend = 0, frame = 0
	@ frame_needed = 0, uses_anonymous_args = 0
	@ link register save eliminated.
.LVL382:
	.loc 5 223 0
	ldrb	r1, [r0]	@ zero_extendqisi2
	cmp	r1, #0
.LBB5661:
.LBB5662:
.LBB5663:
.LBB5664:
	.loc 2 119 0
	mvnne	r2, #1040384
.LBE5664:
.LBE5663:
.LBB5667:
.LBB5668:
.LBB5669:
	.loc 2 120 0
	movne	ip, #13
.LBE5669:
.LBE5668:
.LBE5667:
.LBE5662:
.LBE5661:
	.loc 5 223 0
	beq	.L562
.LVL383:
.L558:
.LBB5677:
.LBB5675:
.LBB5672:
.LBB5665:
	.loc 2 119 0
	ldr	r3, [r2, #-3943]
	tst	r3, #16384
	beq	.L558
.LBE5665:
.LBE5672:
	.loc 2 112 0
	cmp	r1, #10
.LBB5673:
.LBB5666:
	.loc 2 120 0
	str	r1, [r2, #-4031]
.LBE5666:
.LBE5673:
	.loc 2 112 0
	beq	.L560
.L559:
.LVL384:
.LBE5675:
.LBE5677:
	.loc 5 223 0 discriminator 2
	ldrb	r1, [r0, #1]!	@ zero_extendqisi2
.LVL385:
	cmp	r1, #0
	bne	.L558
.LVL386:
.L562:
.LBB5678:
.LBB5679:
.LBB5680:
	.loc 2 119 0
	mvn	r1, #1040384
.L557:
	ldr	r3, [r1, #-3943]
	tst	r3, #16384
	beq	.L557
.LBE5680:
.LBE5679:
.LBB5682:
.LBB5683:
.LBB5684:
	mvn	r2, #1040384
.LBE5684:
.LBE5683:
.LBE5682:
.LBB5689:
.LBB5681:
	.loc 2 120 0
	mov	r3, #10
	str	r3, [r1, #-4031]
.LVL387:
.L563:
.LBE5681:
.LBE5689:
.LBB5690:
.LBB5687:
.LBB5685:
	.loc 2 119 0
	ldr	r3, [r2, #-3943]
	tst	r3, #16384
	beq	.L563
	.loc 2 120 0
	mov	r3, #13
.LBE5685:
.LBE5687:
.LBE5690:
.LBE5678:
	.loc 5 228 0
	mov	r0, #0
.LBB5692:
.LBB5691:
.LBB5688:
.LBB5686:
	.loc 2 120 0
	str	r3, [r2, #-4031]
.LVL388:
.LBE5686:
.LBE5688:
.LBE5691:
.LBE5692:
	.loc 5 228 0
	bx	lr
.L560:
.LBB5693:
.LBB5676:
.LBB5674:
.LBB5671:
.LBB5670:
	.loc 2 119 0
	ldr	r3, [r2, #-3943]
	tst	r3, #16384
	beq	.L560
	.loc 2 120 0
	str	ip, [r2, #-4031]
	b	.L559
.LBE5670:
.LBE5671:
.LBE5674:
.LBE5676:
.LBE5693:
	.cfi_endproc
.LFE583:
	.size	puts, .-puts
	.align	2
	.global	kprintf
	.syntax unified
	.arm
	.type	kprintf, %function
kprintf:
.LFB584:
	.loc 5 232 0
	.cfi_startproc
	@ args = 4, pretend = 16, frame = 40
	@ frame_needed = 0, uses_anonymous_args = 1
.LVL389:
	push	{r0, r1, r2, r3}
	.cfi_def_cfa_offset 16
	.cfi_offset 0, -16
	.cfi_offset 1, -12
	.cfi_offset 2, -8
	.cfi_offset 3, -4
	push	{r4, r5, r6, r7, r8, r9, r10, fp, lr}
	.cfi_def_cfa_offset 52
	.cfi_offset 4, -52
	.cfi_offset 5, -48
	.cfi_offset 6, -44
	.cfi_offset 7, -40
	.cfi_offset 8, -36
	.cfi_offset 9, -32
	.cfi_offset 10, -28
	.cfi_offset 11, -24
	.cfi_offset 14, -20
	sub	sp, sp, #44
	.cfi_def_cfa_offset 96
	.loc 5 236 0
	add	r3, sp, #84
	.loc 5 232 0
	ldr	r4, [sp, #80]
	.loc 5 236 0
	str	r3, [sp, #24]
.LVL390:
.LBB5824:
.LBB5825:
	.loc 5 133 0
	cmp	r4, #0
	beq	.L635
	mov	r0, #0
.LBB5826:
.LBB5827:
.LBB5828:
.LBB5829:
	.loc 5 80 0
	movw	r8, #52429
.LBB5830:
.LBB5831:
	.loc 5 35 0
	movw	r9, #34079
	movw	r10, #19923
	movw	fp, #5977
	mov	r6, r3
	movw	r2, #56963
	movw	r3, #23237
.LVL391:
.LBE5831:
.LBE5830:
.LBE5829:
.LBE5828:
.LBE5827:
.LBE5826:
	.loc 5 133 0
	mov	r5, r0
.LBB5876:
.LBB5872:
.LBB5863:
.LBB5860:
	.loc 5 80 0
	movt	r8, 52428
.LBB5837:
.LBB5832:
	.loc 5 35 0
	movt	r9, 20971
	movt	r10, 4194
	movt	fp, 53687
	movt	r3, 2684
	movt	r2, 17179
	str	r3, [sp, #4]
	str	r2, [sp, #16]
.LVL392:
.L575:
.LBE5832:
.LBE5837:
.LBE5860:
.LBE5863:
.LBE5872:
.LBE5876:
	.loc 5 139 0
	ldrb	r2, [r4]	@ zero_extendqisi2
	cmp	r2, #0
	beq	.L713
.L632:
	.loc 5 140 0
	cmp	r0, #0
	beq	.L576
	.loc 5 141 0
	cmp	r2, #112
	beq	.L578
	bhi	.L579
	cmp	r2, #100
	beq	.L580
	cmp	r2, #108
	beq	.L581
	cmp	r2, #37
.LBB5877:
.LBB5878:
.LBB5879:
	.loc 2 119 0
	mvneq	r2, #1040384
.LBE5879:
.LBE5878:
.LBE5877:
	.loc 5 141 0
	beq	.L582
.LVL393:
.L577:
	.loc 5 197 0
	add	r4, r4, #1
.LVL394:
	.loc 5 139 0
	ldrb	r2, [r4]	@ zero_extendqisi2
	.loc 5 201 0
	mov	r0, #0
.LVL395:
	.loc 5 139 0
	cmp	r2, #0
	bne	.L632
.L713:
	.loc 5 218 0
	mov	r0, r5
.LVL396:
.LBE5825:
.LBE5824:
	.loc 5 240 0
	add	sp, sp, #44
	.cfi_remember_state
	.cfi_def_cfa_offset 52
	@ sp needed
	pop	{r4, r5, r6, r7, r8, r9, r10, fp, lr}
	.cfi_restore 14
	.cfi_restore 11
	.cfi_restore 10
	.cfi_restore 9
	.cfi_restore 8
	.cfi_restore 7
	.cfi_restore 6
	.cfi_restore 5
	.cfi_restore 4
	.cfi_def_cfa_offset 16
.LVL397:
	add	sp, sp, #16
	.cfi_restore 3
	.cfi_restore 2
	.cfi_restore 1
	.cfi_restore 0
	.cfi_def_cfa_offset 0
	bx	lr
.LVL398:
.L582:
	.cfi_restore_state
.LBB6060:
.LBB6058:
.LBB5884:
.LBB5882:
.LBB5880:
	.loc 2 119 0
	ldr	r3, [r2, #-3943]
	tst	r3, #16384
	beq	.L582
	.loc 2 120 0
	mov	r3, #37
.LBE5880:
.LBE5882:
.LBE5884:
	.loc 5 144 0
	add	r5, r5, #1
.LVL399:
	.loc 5 145 0
	add	r4, r4, #1
.LVL400:
.LBB5885:
.LBB5883:
.LBB5881:
	.loc 2 120 0
	str	r3, [r2, #-4031]
.LVL401:
.LBE5881:
.LBE5883:
.LBE5885:
	.loc 5 201 0
	mov	r0, #0
.LVL402:
	b	.L575
.LVL403:
.L576:
	.loc 5 203 0
	cmp	r2, #37
.LBB5886:
.LBB5887:
.LBB5888:
.LBB5889:
	.loc 2 119 0
	mvnne	r1, #1040384
.LBE5889:
.LBE5888:
.LBE5887:
.LBE5886:
	.loc 5 206 0
	addeq	r4, r4, #1
.LVL404:
	.loc 5 205 0
	moveq	r0, #1
.LVL405:
	.loc 5 203 0
	beq	.L575
.L628:
.LBB5899:
.LBB5897:
.LBB5892:
.LBB5890:
	.loc 2 119 0
	ldr	r3, [r1, #-3943]
	tst	r3, #16384
	beq	.L628
.LBE5890:
.LBE5892:
	.loc 2 112 0
	cmp	r2, #10
.LBB5893:
.LBB5891:
	.loc 2 120 0
	str	r2, [r1, #-4031]
.LBE5891:
.LBE5893:
	.loc 2 112 0
	beq	.L714
.L630:
.LBE5897:
.LBE5899:
	.loc 5 211 0
	add	r5, r5, #1
.LVL406:
	.loc 5 212 0
	add	r4, r4, #1
.LVL407:
	b	.L575
.LVL408:
.L579:
	.loc 5 141 0
	cmp	r2, #117
	beq	.L583
	cmp	r2, #120
	beq	.L584
	cmp	r2, #115
	bne	.L577
	.loc 5 185 0
	ldr	ip, [r6]
	add	r6, r6, #4
.LVL409:
.LBB5900:
.LBB5901:
	.loc 5 21 0
	ldrb	r1, [ip]	@ zero_extendqisi2
	cmp	r1, #0
	beq	.L636
	add	r0, ip, #1
.LVL410:
.LBB5902:
.LBB5903:
.LBB5904:
.LBB5905:
	.loc 2 119 0
	mvn	r2, #1040384
.LBE5905:
.LBE5904:
.LBB5908:
.LBB5909:
.LBB5910:
	.loc 2 120 0
	mov	lr, #13
.LVL411:
.L617:
.LBE5910:
.LBE5909:
.LBE5908:
.LBB5913:
.LBB5906:
	.loc 2 119 0
	ldr	r3, [r2, #-3943]
	tst	r3, #16384
	beq	.L617
.LBE5906:
.LBE5913:
	.loc 2 112 0
	cmp	r1, #10
.LBB5914:
.LBB5907:
	.loc 2 120 0
	str	r1, [r2, #-4031]
.LBE5907:
.LBE5914:
	.loc 2 112 0
	beq	.L619
.L618:
.LVL412:
	sub	r3, r0, ip
.LVL413:
.LBE5903:
.LBE5902:
	.loc 5 21 0
	ldrb	r1, [r0], #1	@ zero_extendqisi2
.LVL414:
	cmp	r1, #0
	bne	.L617
.LVL415:
.L616:
.LBE5901:
.LBE5900:
	.loc 5 185 0
	add	r5, r5, r3
.LVL416:
	.loc 5 186 0
	add	r4, r4, #1
.LVL417:
	.loc 5 201 0
	mov	r0, #0
	b	.L575
.L619:
.LBB5920:
.LBB5918:
.LBB5917:
.LBB5916:
.LBB5915:
.LBB5912:
.LBB5911:
	.loc 2 119 0
	ldr	r3, [r2, #-3943]
	tst	r3, #16384
	beq	.L619
	.loc 2 120 0
	str	lr, [r2, #-4031]
	b	.L618
.LVL418:
.L584:
.LBE5911:
.LBE5912:
.LBE5915:
.LBE5916:
.LBE5917:
.LBE5918:
.LBE5920:
	.loc 5 168 0
	ldr	r0, [r6]
.LVL419:
	add	r6, r6, #4
.LVL420:
.LBB5921:
.LBB5922:
	.loc 5 69 0
	cmp	r0, #0
.LBB5923:
.LBB5924:
.LBB5925:
	.loc 2 119 0
	mvneq	r2, #1040384
.LBE5925:
.LBE5924:
.LBE5923:
	.loc 5 69 0
	bne	.L715
.L604:
.LBB5930:
.LBB5928:
.LBB5926:
	.loc 2 119 0
	ldr	r3, [r2, #-3943]
	tst	r3, #16384
	beq	.L604
.LVL421:
.L710:
.LBE5926:
.LBE5928:
.LBE5930:
	.loc 5 71 0
	mov	r0, #1
.LBB5931:
.LBB5929:
.LBB5927:
	.loc 2 120 0
	mov	r3, #48
	str	r3, [r2, #-4031]
.LVL422:
.L709:
.LBE5927:
.LBE5929:
.LBE5931:
.LBE5922:
.LBE5921:
.LBB5933:
	.loc 5 178 0
	add	r5, r5, r0
.LVL423:
	b	.L577
.LVL424:
.L583:
.LBE5933:
	.loc 5 163 0
	ldr	ip, [r6]
	add	r6, r6, #4
.LVL425:
.LBB5976:
.LBB5873:
	.loc 5 69 0
	cmp	ip, #0
.LBB5864:
.LBB5865:
.LBB5866:
	.loc 2 119 0
	mvneq	r2, #1040384
.LBE5866:
.LBE5865:
.LBE5864:
	.loc 5 69 0
	bne	.L716
.L597:
.LBB5869:
.LBB5868:
.LBB5867:
	.loc 2 119 0
	ldr	r3, [r2, #-3943]
	tst	r3, #16384
	bne	.L710
	ldr	r3, [r2, #-3943]
	tst	r3, #16384
	beq	.L597
	b	.L710
.LVL426:
.L578:
.LBE5867:
.LBE5868:
.LBE5869:
.LBE5873:
.LBE5976:
.LBB5977:
	.loc 5 173 0
	ldr	r0, [r6]
.LVL427:
	add	r6, r6, #4
.LVL428:
	.loc 5 174 0
	cmp	r0, #0
	bne	.L606
	movw	ip, #:lower16:.LC1
	mov	r1, #40
	movt	ip, #:upper16:.LC1
.LBB5934:
.LBB5935:
.LBB5936:
.LBB5937:
.LBB5938:
.LBB5939:
	.loc 2 119 0
	mvn	r2, #1040384
.LBE5939:
.LBE5938:
.LBB5942:
.LBB5943:
.LBB5944:
	.loc 2 120 0
	mov	lr, #13
.LVL429:
.L607:
.LBE5944:
.LBE5943:
.LBE5942:
.LBB5947:
.LBB5940:
	.loc 2 119 0
	ldr	r3, [r2, #-3943]
	tst	r3, #16384
	beq	.L607
.LBE5940:
.LBE5947:
	.loc 2 112 0
	cmp	r1, #10
.LBB5948:
.LBB5941:
	.loc 2 120 0
	str	r1, [r2, #-4031]
.LBE5941:
.LBE5948:
	.loc 2 112 0
	beq	.L609
.L608:
.LVL430:
.LBE5937:
.LBE5936:
	.loc 5 21 0
	ldrb	r1, [ip, #1]!	@ zero_extendqisi2
	add	r0, r0, #1
.LVL431:
	cmp	r1, #0
	bne	.L607
	b	.L709
.LVL432:
.L581:
.LBE5935:
.LBE5934:
.LBE5977:
	.loc 5 190 0
	ldrb	r3, [r4, #1]	@ zero_extendqisi2
	cmp	r3, #108
	beq	.L717
.LVL433:
.L621:
	.loc 5 194 0
	add	r4, r4, #3
.LVL434:
	.loc 5 201 0
	mov	r0, #0
	b	.L575
.LVL435:
.L580:
.LBB5978:
	.loc 5 149 0
	ldr	ip, [r6]
	add	r6, r6, #4
.LVL436:
	.loc 5 151 0
	cmp	ip, #0
	blt	.L718
.LVL437:
.LBB5979:
.LBB5980:
.LBB5981:
.LBB5982:
.LBB5983:
	.loc 2 119 0
	mvneq	r2, #1040384
.LBE5983:
.LBE5982:
.LBE5981:
	.loc 5 69 0
	bne	.L589
.L683:
.LBB5986:
.LBB5985:
.LBB5984:
	.loc 2 119 0
	ldr	r3, [r2, #-3943]
	tst	r3, #16384
	beq	.L683
	b	.L710
.LVL438:
.L606:
	movw	ip, #:lower16:.LC2
.LBE5984:
.LBE5985:
.LBE5986:
.LBE5980:
.LBE5979:
.LBE5978:
.LBB6023:
	.loc 5 174 0
	mov	r7, #0
	movt	ip, #:upper16:.LC2
	mov	r1, #48
.LBB5953:
.LBB5954:
.LBB5955:
.LBB5956:
.LBB5957:
.LBB5958:
	.loc 2 119 0
	mvn	r2, #1040384
.LBE5958:
.LBE5957:
.LBB5961:
.LBB5962:
.LBB5963:
	.loc 2 120 0
	mov	lr, #13
.L612:
.LBE5963:
.LBE5962:
.LBE5961:
.LBB5966:
.LBB5959:
	.loc 2 119 0
	ldr	r3, [r2, #-3943]
	tst	r3, #16384
	beq	.L612
.LBE5959:
.LBE5966:
	.loc 2 112 0
	cmp	r1, #10
.LBB5967:
.LBB5960:
	.loc 2 120 0
	str	r1, [r2, #-4031]
.LBE5960:
.LBE5967:
	.loc 2 112 0
	beq	.L614
.L613:
.LVL439:
.LBE5956:
.LBE5955:
	.loc 5 21 0
	ldrb	r1, [ip, #1]!	@ zero_extendqisi2
	add	r7, r7, #1
.LVL440:
	cmp	r1, #0
	bne	.L612
.LVL441:
.LBE5954:
.LBE5953:
.LBB5972:
.LBB5973:
	bl	print_unsigned_long.part.58.constprop.314
.LVL442:
.LBE5973:
.LBE5972:
	.loc 5 178 0
	add	r0, r0, r7
	b	.L709
.LVL443:
.L614:
.LBB5974:
.LBB5971:
.LBB5970:
.LBB5969:
.LBB5968:
.LBB5965:
.LBB5964:
	.loc 2 119 0
	ldr	r3, [r2, #-3943]
	tst	r3, #16384
	beq	.L614
	.loc 2 120 0
	str	lr, [r2, #-4031]
	b	.L613
.LVL444:
.L609:
.LBE5964:
.LBE5965:
.LBE5968:
.LBE5969:
.LBE5970:
.LBE5971:
.LBE5974:
.LBB5975:
.LBB5952:
.LBB5951:
.LBB5950:
.LBB5949:
.LBB5946:
.LBB5945:
	.loc 2 119 0
	ldr	r3, [r2, #-3943]
	tst	r3, #16384
	beq	.L609
	.loc 2 120 0
	str	lr, [r2, #-4031]
	b	.L608
.L714:
.LBE5945:
.LBE5946:
.LBE5949:
.LBE5950:
.LBE5951:
.LBE5952:
.LBE5975:
.LBE6023:
.LBB6024:
.LBB5898:
.LBB5894:
.LBB5895:
.LBB5896:
	.loc 2 119 0
	mvn	r2, #1040384
.L631:
	ldr	r3, [r2, #-3943]
	tst	r3, #16384
	beq	.L631
	.loc 2 120 0
	mov	r3, #13
	str	r3, [r2, #-4031]
	b	.L630
.LVL445:
.L716:
.LBE5896:
.LBE5895:
.LBE5894:
.LBE5898:
.LBE6024:
.LBB6025:
.LBB5874:
.LBB5870:
.LBB5861:
	.loc 5 80 0
	umull	r2, r3, ip, r8
	lsr	r1, r3, #3
	add	r3, r1, r1, lsl #2
	.loc 5 74 0
	cmp	r1, #0
	moveq	r0, #1
.LVL446:
	.loc 5 80 0
	sub	r3, ip, r3, lsl #1
	add	r3, r3, #48
	strb	r3, [sp, #28]
.LVL447:
	.loc 5 74 0
	bne	.L719
.LVL448:
.L634:
	add	r3, sp, #40
	add	ip, sp, #27
.LVL449:
	add	r1, r3, r0
.LBB5838:
.LBB5839:
.LBB5840:
.LBB5841:
	.loc 2 119 0
	mvn	r2, #1040384
	sub	r1, r1, #13
.LBE5841:
.LBE5840:
.LBB5844:
.LBB5845:
.LBB5846:
	.loc 2 120 0
	mov	lr, #13
.LVL450:
.L602:
.LBE5846:
.LBE5845:
.LBE5844:
.LBE5839:
.LBE5838:
	.loc 5 85 0
	ldrb	r7, [r1], #-1	@ zero_extendqisi2
.LVL451:
.L599:
.LBB5854:
.LBB5852:
.LBB5849:
.LBB5842:
	.loc 2 119 0
	ldr	r3, [r2, #-3943]
	tst	r3, #16384
	beq	.L599
.LBE5842:
.LBE5849:
	.loc 2 112 0
	cmp	r7, #10
.LBB5850:
.LBB5843:
	.loc 2 120 0
	str	r7, [r2, #-4031]
.LVL452:
.LBE5843:
.LBE5850:
	.loc 2 112 0
	beq	.L601
.L600:
.LVL453:
.LBE5852:
.LBE5854:
	.loc 5 84 0
	cmp	r1, ip
	bne	.L602
	b	.L709
.LVL454:
.L601:
.LBB5855:
.LBB5853:
.LBB5851:
.LBB5848:
.LBB5847:
	.loc 2 119 0
	ldr	r3, [r2, #-3943]
	tst	r3, #16384
	beq	.L601
	.loc 2 120 0
	str	lr, [r2, #-4031]
	b	.L600
.LVL455:
.L715:
.LBE5847:
.LBE5848:
.LBE5851:
.LBE5853:
.LBE5855:
.LBE5861:
.LBE5870:
.LBE5874:
.LBE6025:
.LBB6026:
.LBB5932:
	bl	print_unsigned_long.part.58.constprop.314
.LVL456:
	b	.L709
.LVL457:
.L717:
.LBE5932:
.LBE6026:
	.loc 5 190 0
	ldrb	r3, [r4, #2]	@ zero_extendqisi2
	cmp	r3, #120
	bne	.L621
.LBB6027:
	.loc 5 191 0
	add	r6, r6, #7
.LVL458:
	bic	r3, r6, #7
.LBB6028:
.LBB6029:
	.loc 5 105 0
	ldr	r2, [r3, #4]
.LBE6029:
.LBE6028:
	.loc 5 191 0
	add	r6, r3, #8
.LVL459:
	ldr	r1, [r3]
.LVL460:
.LBB6052:
.LBB6050:
	.loc 5 105 0
	mov	r3, #0
.LVL461:
	str	r3, [sp, #12]
.LVL462:
	str	r2, [sp, #8]
.LVL463:
	.loc 5 109 0
	ldrd	r2, [sp, #8]
	orrs	r3, r2, r3
	bne	.L720
.LVL464:
.LBB6030:
.LBB6031:
	.loc 5 69 0
	cmp	r1, #0
.LBB6032:
.LBB6033:
.LBB6034:
	.loc 2 119 0
	mvneq	r3, #1040384
.LBE6034:
.LBE6033:
.LBE6032:
	.loc 5 69 0
	bne	.L721
.L626:
.LBB6037:
.LBB6036:
.LBB6035:
	.loc 2 119 0
	ldr	r2, [r3, #-3943]
	tst	r2, #16384
	beq	.L626
	.loc 2 120 0
	mov	r0, #1
.LVL465:
	mov	r2, #48
	str	r2, [r3, #-4031]
.LVL466:
.L627:
.LBE6035:
.LBE6036:
.LBE6037:
.LBE6031:
.LBE6030:
.LBE6050:
.LBE6052:
	.loc 5 192 0
	add	r5, r5, r0
.LVL467:
	b	.L621
.LVL468:
.L718:
.LBE6027:
.LBB6054:
.LBB6016:
.LBB6017:
.LBB6018:
	.loc 2 119 0
	mvn	r2, #1040384
.L682:
	ldr	r3, [r2, #-3943]
	tst	r3, #16384
	beq	.L682
.LBE6018:
.LBE6017:
.LBE6016:
	.loc 5 153 0
	add	r5, r5, #1
.LVL469:
	.loc 5 157 0
	rsb	ip, ip, #0
.LVL470:
.LBB6021:
.LBB6020:
.LBB6019:
	.loc 2 120 0
	mov	r3, #45
	str	r3, [r2, #-4031]
.LVL471:
.L589:
.LBE6019:
.LBE6020:
.LBE6021:
.LBB6022:
.LBB6015:
.LBB5987:
.LBB5988:
	.loc 5 80 0
	umull	r2, r3, ip, r8
	lsr	r1, r3, #3
	add	r3, r1, r1, lsl #2
	.loc 5 74 0
	cmp	r1, #0
	moveq	r0, #1
.LVL472:
	.loc 5 80 0
	sub	r3, ip, r3, lsl #1
	add	r3, r3, #48
	strb	r3, [sp, #28]
.LVL473:
	.loc 5 74 0
	bne	.L722
.LVL474:
.L633:
	add	r3, sp, #40
	add	ip, sp, #27
.LVL475:
	add	r1, r3, r0
.LBB5989:
.LBB5990:
.LBB5991:
.LBB5992:
	.loc 2 119 0
	mvn	r2, #1040384
	sub	r1, r1, #13
.LBE5992:
.LBE5991:
.LBB5995:
.LBB5996:
.LBB5997:
	.loc 2 120 0
	mov	lr, #13
.LVL476:
.L595:
.LBE5997:
.LBE5996:
.LBE5995:
.LBE5990:
.LBE5989:
	.loc 5 85 0
	ldrb	r7, [r1], #-1	@ zero_extendqisi2
.LVL477:
.L592:
.LBB6005:
.LBB6003:
.LBB6000:
.LBB5993:
	.loc 2 119 0
	ldr	r3, [r2, #-3943]
	tst	r3, #16384
	beq	.L592
.LBE5993:
.LBE6000:
	.loc 2 112 0
	cmp	r7, #10
.LBB6001:
.LBB5994:
	.loc 2 120 0
	str	r7, [r2, #-4031]
.LVL478:
.LBE5994:
.LBE6001:
	.loc 2 112 0
	beq	.L594
.L593:
.LVL479:
.LBE6003:
.LBE6005:
	.loc 5 84 0
	cmp	r1, ip
	bne	.L595
	b	.L709
.LVL480:
.L594:
.LBB6006:
.LBB6004:
.LBB6002:
.LBB5999:
.LBB5998:
	.loc 2 119 0
	ldr	r3, [r2, #-3943]
	tst	r3, #16384
	beq	.L594
	.loc 2 120 0
	str	lr, [r2, #-4031]
	b	.L593
.LVL481:
.L722:
.LBE5998:
.LBE5999:
.LBE6002:
.LBE6004:
.LBE6006:
	.loc 5 80 0
	umull	r2, r3, r1, r8
	lsr	lr, r3, #3
	.loc 5 74 0
	umull	r2, r3, ip, r9
	.loc 5 80 0
	add	lr, lr, lr, lsl #2
	.loc 5 74 0
	lsrs	r0, r3, #5
	.loc 5 80 0
	sub	r3, r1, lr, lsl #1
	add	r3, r3, #48
	.loc 5 74 0
	moveq	r0, #2
	.loc 5 80 0
	strb	r3, [sp, #29]
.LVL482:
	.loc 5 74 0
	beq	.L633
	.loc 5 80 0
	umull	r2, r3, r0, r8
	lsr	lr, r3, #3
	.loc 5 74 0
	umull	r2, r3, ip, r10
	.loc 5 80 0
	add	lr, lr, lr, lsl #2
	.loc 5 74 0
	lsrs	r1, r3, #6
	.loc 5 80 0
	sub	r3, r0, lr, lsl #1
	add	r3, r3, #48
	.loc 5 74 0
	moveq	r0, #3
	.loc 5 80 0
	strb	r3, [sp, #30]
.LVL483:
	.loc 5 74 0
	beq	.L633
	.loc 5 80 0
	umull	r2, r3, r1, r8
	lsr	r0, r3, #3
	.loc 5 74 0
	umull	r2, r3, ip, fp
	.loc 5 80 0
	add	r0, r0, r0, lsl #2
	.loc 5 74 0
	lsrs	lr, r3, #13
	.loc 5 80 0
	sub	r3, r1, r0, lsl #1
	add	r3, r3, #48
	.loc 5 74 0
	moveq	r0, #4
	.loc 5 80 0
	strb	r3, [sp, #31]
.LVL484:
	.loc 5 74 0
	beq	.L633
	.loc 5 80 0
	umull	r0, r1, lr, r8
.LBB6007:
.LBB6008:
	.loc 5 35 0
	ldr	r3, [sp, #4]
	lsr	r2, ip, #5
	umull	r2, r3, r2, r3
.LBE6008:
.LBE6007:
	.loc 5 80 0
	lsr	r2, r1, #3
	add	r2, r2, r2, lsl #2
	.loc 5 74 0
	lsrs	r1, r3, #7
	.loc 5 80 0
	sub	r3, lr, r2, lsl #1
	add	r3, r3, #48
	.loc 5 74 0
	moveq	r0, #5
	.loc 5 80 0
	strb	r3, [sp, #32]
.LVL485:
	.loc 5 74 0
	beq	.L633
	.loc 5 80 0
	umull	r2, r3, r1, r8
.LVL486:
	lsr	r0, r3, #3
	.loc 5 74 0
	ldr	r3, [sp, #16]
	.loc 5 80 0
	add	r0, r0, r0, lsl #2
	.loc 5 74 0
	umull	r2, r3, ip, r3
	lsrs	lr, r3, #18
	.loc 5 80 0
	sub	r3, r1, r0, lsl #1
	add	r3, r3, #48
	.loc 5 74 0
	moveq	r0, #6
	.loc 5 80 0
	strb	r3, [sp, #33]
.LVL487:
	.loc 5 74 0
	beq	.L633
	.loc 5 80 0
	umull	r2, r3, lr, r8
.LBB6012:
.LBB6009:
	.loc 5 35 0
	movw	r0, #51819
	movt	r0, 27487
	umull	r0, r1, ip, r0
.LBE6009:
.LBE6012:
	.loc 5 80 0
	lsr	r3, r3, #3
	add	r3, r3, r3, lsl #2
	.loc 5 74 0
	lsrs	r7, r1, #22
	.loc 5 80 0
	sub	r3, lr, r3, lsl #1
	.loc 5 74 0
	moveq	r0, #7
	.loc 5 80 0
	add	r3, r3, #48
	strb	r3, [sp, #34]
.LVL488:
	.loc 5 74 0
	beq	.L633
	.loc 5 80 0
	umull	r2, r3, r7, r8
.LBB6013:
.LBB6010:
	.loc 5 35 0
	movw	r0, #15241
	movt	r0, 21990
	umull	r0, r1, ip, r0
.LBE6010:
.LBE6013:
	.loc 5 80 0
	lsr	r3, r3, #3
	add	r3, r3, r3, lsl #2
	.loc 5 74 0
	lsrs	lr, r1, #25
	.loc 5 80 0
	sub	r3, r7, r3, lsl #1
	.loc 5 74 0
	moveq	r0, #8
	.loc 5 80 0
	add	r3, r3, #48
	strb	r3, [sp, #35]
.LVL489:
	.loc 5 74 0
	beq	.L633
	.loc 5 80 0
	umull	r0, r1, lr, r8
.LBB6014:
.LBB6011:
	.loc 5 35 0
	lsr	r2, ip, #9
	movw	r3, #19331
	movt	r3, 4
	umull	r2, r3, r2, r3
.LBE6011:
.LBE6014:
	.loc 5 80 0
	lsr	r2, r1, #3
	add	r2, r2, r2, lsl #2
	.loc 5 74 0
	lsrs	r1, r3, #7
	.loc 5 80 0
	sub	r3, lr, r2, lsl #1
	.loc 5 74 0
	moveq	r0, #9
	.loc 5 80 0
	add	r3, r3, #48
	strb	r3, [sp, #36]
.LVL490:
	.loc 5 74 0
	.loc 5 80 0
	addne	r3, r1, #48
	.loc 5 74 0
	movne	r0, #10
	.loc 5 80 0
	strbne	r3, [sp, #37]
.LVL491:
	b	.L633
.LVL492:
.L719:
.LBE5988:
.LBE5987:
.LBE6015:
.LBE6022:
.LBE6054:
.LBB6055:
.LBB5875:
.LBB5871:
.LBB5862:
	umull	r2, r3, r1, r8
	lsr	lr, r3, #3
	.loc 5 74 0
	umull	r2, r3, ip, r9
	.loc 5 80 0
	add	lr, lr, lr, lsl #2
	.loc 5 74 0
	lsrs	r0, r3, #5
	.loc 5 80 0
	sub	r3, r1, lr, lsl #1
	add	r3, r3, #48
	.loc 5 74 0
	moveq	r0, #2
	.loc 5 80 0
	strb	r3, [sp, #29]
.LVL493:
	.loc 5 74 0
	beq	.L634
	.loc 5 80 0
	umull	r2, r3, r0, r8
	lsr	lr, r3, #3
	.loc 5 74 0
	umull	r2, r3, ip, r10
	.loc 5 80 0
	add	lr, lr, lr, lsl #2
	.loc 5 74 0
	lsrs	r1, r3, #6
	.loc 5 80 0
	sub	r3, r0, lr, lsl #1
	add	r3, r3, #48
	.loc 5 74 0
	moveq	r0, #3
	.loc 5 80 0
	strb	r3, [sp, #30]
.LVL494:
	.loc 5 74 0
	beq	.L634
	.loc 5 80 0
	umull	r2, r3, r1, r8
	lsr	r0, r3, #3
	.loc 5 74 0
	umull	r2, r3, ip, fp
	.loc 5 80 0
	add	r0, r0, r0, lsl #2
	.loc 5 74 0
	lsrs	lr, r3, #13
	.loc 5 80 0
	sub	r3, r1, r0, lsl #1
	add	r3, r3, #48
	.loc 5 74 0
	moveq	r0, #4
	.loc 5 80 0
	strb	r3, [sp, #31]
.LVL495:
	.loc 5 74 0
	beq	.L634
	.loc 5 80 0
	umull	r2, r3, lr, r8
.LBB5856:
.LBB5833:
	.loc 5 35 0
	ldr	r1, [sp, #4]
	lsr	r0, ip, #5
	umull	r0, r1, r0, r1
.LBE5833:
.LBE5856:
	.loc 5 80 0
	lsr	r3, r3, #3
	add	r3, r3, r3, lsl #2
	.loc 5 74 0
	lsrs	r1, r1, #7
	.loc 5 80 0
	sub	r3, lr, r3, lsl #1
	add	r3, r3, #48
	.loc 5 74 0
	moveq	r0, #5
	.loc 5 80 0
	strb	r3, [sp, #32]
.LVL496:
	.loc 5 74 0
	beq	.L634
	.loc 5 80 0
	umull	r2, r3, r1, r8
	lsr	r0, r3, #3
	.loc 5 74 0
	ldr	r3, [sp, #16]
	.loc 5 80 0
	add	r0, r0, r0, lsl #2
	.loc 5 74 0
	umull	r2, r3, ip, r3
	lsrs	lr, r3, #18
	.loc 5 80 0
	sub	r3, r1, r0, lsl #1
	add	r3, r3, #48
	.loc 5 74 0
	moveq	r0, #6
	.loc 5 80 0
	strb	r3, [sp, #33]
.LVL497:
	.loc 5 74 0
	beq	.L634
	.loc 5 80 0
	umull	r2, r3, lr, r8
.LBB5857:
.LBB5834:
	.loc 5 35 0
	movw	r0, #51819
	movt	r0, 27487
	umull	r0, r1, ip, r0
.LBE5834:
.LBE5857:
	.loc 5 80 0
	lsr	r3, r3, #3
	add	r3, r3, r3, lsl #2
	.loc 5 74 0
	lsrs	r7, r1, #22
	.loc 5 80 0
	sub	r3, lr, r3, lsl #1
	.loc 5 74 0
	moveq	r0, #7
	.loc 5 80 0
	add	r3, r3, #48
	strb	r3, [sp, #34]
.LVL498:
	.loc 5 74 0
	beq	.L634
	.loc 5 80 0
	umull	r2, r3, r7, r8
.LBB5858:
.LBB5835:
	.loc 5 35 0
	movw	r0, #15241
	movt	r0, 21990
	umull	r0, r1, ip, r0
.LBE5835:
.LBE5858:
	.loc 5 80 0
	lsr	r3, r3, #3
	add	r3, r3, r3, lsl #2
	.loc 5 74 0
	lsrs	lr, r1, #25
	.loc 5 80 0
	sub	r3, r7, r3, lsl #1
	.loc 5 74 0
	moveq	r0, #8
	.loc 5 80 0
	add	r3, r3, #48
	strb	r3, [sp, #35]
.LVL499:
	.loc 5 74 0
	beq	.L634
	.loc 5 80 0
	umull	r0, r1, lr, r8
.LBB5859:
.LBB5836:
	.loc 5 35 0
	lsr	r2, ip, #9
	movw	r3, #19331
	movt	r3, 4
	umull	r2, r3, r2, r3
.LBE5836:
.LBE5859:
	.loc 5 80 0
	lsr	r2, r1, #3
	add	r2, r2, r2, lsl #2
	.loc 5 74 0
	lsrs	r1, r3, #7
	.loc 5 80 0
	sub	r3, lr, r2, lsl #1
	.loc 5 74 0
	moveq	r0, #9
	.loc 5 80 0
	add	r3, r3, #48
	strb	r3, [sp, #36]
.LVL500:
	.loc 5 74 0
	.loc 5 80 0
	addne	r3, r1, #48
	.loc 5 74 0
	movne	r0, #10
	.loc 5 80 0
	strbne	r3, [sp, #37]
.LVL501:
	b	.L634
.LVL502:
.L635:
.LBE5862:
.LBE5871:
.LBE5875:
.LBE6055:
	.loc 5 133 0
	mov	r0, r4
.LVL503:
.LBE6058:
.LBE6060:
	.loc 5 240 0
	add	sp, sp, #44
	.cfi_remember_state
	.cfi_def_cfa_offset 52
	@ sp needed
	pop	{r4, r5, r6, r7, r8, r9, r10, fp, lr}
	.cfi_restore 4
	.cfi_restore 5
	.cfi_restore 6
	.cfi_restore 7
	.cfi_restore 8
	.cfi_restore 9
	.cfi_restore 10
	.cfi_restore 11
	.cfi_restore 14
	.cfi_def_cfa_offset 16
	add	sp, sp, #16
	.cfi_restore 0
	.cfi_restore 1
	.cfi_restore 2
	.cfi_restore 3
	.cfi_def_cfa_offset 0
	bx	lr
.LVL504:
.L636:
	.cfi_restore_state
.LBB6061:
.LBB6059:
.LBB6056:
.LBB5919:
	.loc 5 21 0
	mov	r3, r1
	b	.L616
.LVL505:
.L721:
.LBE5919:
.LBE6056:
.LBB6057:
.LBB6053:
.LBB6051:
	.loc 5 96 0
	mov	r7, #0
.LVL506:
.L623:
.LBB6039:
.LBB6038:
	mov	r0, r1
	bl	print_unsigned_long.part.58.constprop.314
.LVL507:
	add	r0, r0, r7
	b	.L627
.LVL508:
.L720:
.LBE6038:
.LBE6039:
.LBB6040:
.LBB6041:
	ldr	r0, [sp, #8]
.LVL509:
	str	r1, [sp, #20]
	bl	print_unsigned_long.part.58.constprop.314
.LVL510:
.LBE6041:
.LBE6040:
	.loc 5 113 0
	ldr	r1, [sp, #20]
.LBB6043:
.LBB6042:
	mov	r7, r0
.LVL511:
.LBE6042:
.LBE6043:
	tst	r1, #-268435456
	bne	.L623
	mov	r0, #-268435456
.LVL512:
.LBB6044:
.LBB6045:
.LBB6046:
	.loc 2 119 0
	mvn	r2, #1040384
	.loc 2 120 0
	mov	ip, #48
.LVL513:
.L624:
	.loc 2 119 0
	ldr	r3, [r2, #-3943]
	tst	r3, #16384
	beq	.L624
.LBE6046:
.LBE6045:
.LBE6044:
	.loc 5 116 0
	lsr	r0, r0, #4
.LBB6049:
.LBB6048:
.LBB6047:
	.loc 2 120 0
	str	ip, [r2, #-4031]
.LBE6047:
.LBE6048:
.LBE6049:
	.loc 5 115 0
	add	r7, r7, #1
.LVL514:
	.loc 5 113 0
	tst	r1, r0
	beq	.L624
	b	.L623
.LBE6051:
.LBE6053:
.LBE6057:
.LBE6059:
.LBE6061:
	.cfi_endproc
.LFE584:
	.size	kprintf, .-kprintf
	.align	2
	.global	checkValidIPCBuffer
	.syntax unified
	.arm
	.type	checkValidIPCBuffer, %function
checkValidIPCBuffer:
.LFB342:
	.loc 11 716 0
	.cfi_startproc
	@ args = 0, pretend = 0, frame = 8
	@ frame_needed = 0, uses_anonymous_args = 0
.LVL515:
	push	{r4, lr}
	.cfi_def_cfa_offset 8
	.cfi_offset 4, -8
	.cfi_offset 14, -4
	sub	sp, sp, #16
	.cfi_def_cfa_offset 24
	.loc 11 716 0
	add	r3, sp, #16
	mov	r4, r0
	stmdb	r3, {r1, r2}
	ldr	r3, [sp, #8]
.LVL516:
.LBB6077:
.LBB6078:
	.loc 4 997 0
	and	r2, r3, #14
	cmp	r2, #14
	.loc 4 999 0
	uxtbeq	r3, r3
.LVL517:
	.loc 4 998 0
	andne	r3, r3, #15
.LBE6078:
.LBE6077:
	.loc 11 717 0
	cmp	r3, #1
	bne	.L732
	.loc 11 723 0
	ubfx	r0, r0, #0, #9
.LVL518:
	cmp	r0, #0
	bne	.L733
.L727:
	.loc 11 731 0
	add	sp, sp, #16
	.cfi_remember_state
	.cfi_def_cfa_offset 8
	@ sp needed
	pop	{r4, pc}
.LVL519:
.L732:
	.cfi_restore_state
	.loc 11 718 0
	movw	r3, #:lower16:ksCurThread
	movw	r1, #:lower16:.LANCHOR4
	movt	r3, #:upper16:ksCurThread
	movw	r0, #:lower16:.LC3
.LVL520:
	ldr	r3, [r3]
	movt	r1, #:upper16:.LANCHOR4
	movw	r2, #718
	movt	r0, #:upper16:.LC3
	ldr	ip, [r3, #68]
	add	lr, r3, #140
	str	lr, [sp]
	str	ip, [sp, #4]
	bl	kprintf
.LVL521:
	movw	r0, #:lower16:.LC4
	movt	r0, #:upper16:.LC4
	bl	kprintf
.LVL522:
	movw	r0, #:lower16:.LC5
	movt	r0, #:upper16:.LC5
	bl	kprintf
.LVL523:
	.loc 11 719 0
	movw	r3, #:lower16:current_syscall_error
	mov	r2, #3
	movt	r3, #:upper16:current_syscall_error
	.loc 11 720 0
	mov	r0, r2
	.loc 11 719 0
	str	r2, [r3, #24]
	.loc 11 731 0
	add	sp, sp, #16
	.cfi_remember_state
	.cfi_def_cfa_offset 8
	@ sp needed
	pop	{r4, pc}
.LVL524:
.L733:
	.cfi_restore_state
.LBB6079:
.LBB6080:
	.loc 11 724 0
	movw	r3, #:lower16:ksCurThread
	movw	r1, #:lower16:.LANCHOR4
	movt	r3, #:upper16:ksCurThread
	movw	r0, #:lower16:.LC3
	ldr	r3, [r3]
	movw	r2, #725
	movt	r1, #:upper16:.LANCHOR4
	movt	r0, #:upper16:.LC3
	ldr	ip, [r3, #68]
	add	lr, r3, #140
	str	lr, [sp]
	str	ip, [sp, #4]
	bl	kprintf
.LVL525:
	movw	r0, #:lower16:.LC6
	mov	r1, r4
	movt	r0, #:upper16:.LC6
	bl	kprintf
.LVL526:
	movw	r0, #:lower16:.LC5
	movt	r0, #:upper16:.LC5
	bl	kprintf
.LVL527:
	.loc 11 726 0
	movw	r3, #:lower16:current_syscall_error
	mov	r2, #5
	movt	r3, #:upper16:current_syscall_error
	mov	r0, #3
	str	r2, [r3, #24]
.LVL528:
	b	.L727
.LBE6080:
.LBE6079:
	.cfi_endproc
.LFE342:
	.size	checkValidIPCBuffer, .-checkValidIPCBuffer
	.align	2
	.global	kernelPrefetchAbort
	.syntax unified
	.arm
	.type	kernelPrefetchAbort, %function
kernelPrefetchAbort:
.LFB370:
	.loc 11 1809 0
	.cfi_startproc
	@ args = 0, pretend = 0, frame = 0
	@ frame_needed = 0, uses_anonymous_args = 0
.LVL529:
	push	{r4, r5, r6, lr}
	.cfi_def_cfa_offset 16
	.cfi_offset 4, -16
	.cfi_offset 5, -12
	.cfi_offset 6, -8
	.cfi_offset 14, -4
	.loc 11 1809 0
	mov	r5, r0
.LBB6081:
.LBB6082:
	.loc 14 308 0
	.syntax divided
@ 308 "/home/mint/seL4/dhs-demo-feb-2018/kernel/include/arch/arm/arch/machine.h" 1
	mrc p15, 0, r4, c5, c0, 1
@ 0 "" 2
	.arm
	.syntax unified
.LBE6082:
.LBE6081:
	.loc 11 1812 0
	movw	r0, #:lower16:.LC7
.LVL530:
	movt	r0, #:upper16:.LC7
	bl	kprintf
.LVL531:
	.loc 11 1813 0
	movw	r0, #:lower16:.LC8
	mov	r1, r5
	movt	r0, #:upper16:.LC8
	bl	kprintf
.LVL532:
	.loc 11 1814 0
	movw	r0, #:lower16:.LC9
	mov	r1, r4
	movt	r0, #:upper16:.LC9
	bl	kprintf
.LVL533:
	.loc 11 1816 0
	bl	halt
.LVL534:
	.cfi_endproc
.LFE370:
	.size	kernelPrefetchAbort, .-kernelPrefetchAbort
	.align	2
	.global	kernelDataAbort
	.syntax unified
	.arm
	.type	kernelDataAbort, %function
kernelDataAbort:
.LFB371:
	.loc 11 1821 0
	.cfi_startproc
	@ args = 0, pretend = 0, frame = 0
	@ frame_needed = 0, uses_anonymous_args = 0
.LVL535:
	push	{r4, r5, r6, lr}
	.cfi_def_cfa_offset 16
	.cfi_offset 4, -16
	.cfi_offset 5, -12
	.cfi_offset 6, -8
	.cfi_offset 14, -4
	.loc 11 1821 0
	mov	r6, r0
.LBB6083:
.LBB6084:
	.loc 14 316 0
	.syntax divided
@ 316 "/home/mint/seL4/dhs-demo-feb-2018/kernel/include/arch/arm/arch/machine.h" 1
	mrc p15, 0, r5, c5, c0, 0
@ 0 "" 2
	.arm
	.syntax unified
.LBE6084:
.LBE6083:
.LBB6085:
.LBB6086:
	.loc 14 324 0
	.syntax divided
@ 324 "/home/mint/seL4/dhs-demo-feb-2018/kernel/include/arch/arm/arch/machine.h" 1
	mrc p15, 0, r4, c6, c0, 0
@ 0 "" 2
	.arm
	.syntax unified
.LBE6086:
.LBE6085:
	.loc 11 1825 0
	movw	r0, #:lower16:.LC10
.LVL536:
	movt	r0, #:upper16:.LC10
	bl	kprintf
.LVL537:
	.loc 11 1826 0
	movw	r0, #:lower16:.LC8
	mov	r1, r6
	movt	r0, #:upper16:.LC8
	bl	kprintf
.LVL538:
	.loc 11 1827 0
	movw	r0, #:lower16:.LC11
	mov	r2, r5
	mov	r1, r4
	movt	r0, #:upper16:.LC11
	bl	kprintf
.LVL539:
	.loc 11 1829 0
	bl	halt
.LVL540:
	.cfi_endproc
.LFE371:
	.size	kernelDataAbort, .-kernelDataAbort
	.align	2
	.global	debug_init
	.syntax unified
	.arm
	.type	debug_init, %function
debug_init:
.LFB402:
	.loc 15 27 0
	.cfi_startproc
	@ args = 0, pretend = 0, frame = 0
	@ frame_needed = 0, uses_anonymous_args = 0
	push	{r4, lr}
	.cfi_def_cfa_offset 8
	.cfi_offset 4, -8
	.cfi_offset 14, -4
.LBB6095:
.LBB6096:
	.loc 16 70 0
	.syntax divided
@ 70 "/home/mint/seL4/dhs-demo-feb-2018/kernel/include/arch/arm/arch/machine/debug.h" 1
	mrc p14, 0, r1, c0, c0, 0
@ 0 "" 2
	.arm
	.syntax unified
.LBE6096:
.LBE6095:
	.loc 15 33 0
	movw	r4, #:lower16:n_breakpoints
	ubfx	ip, r1, #24, #4
	.loc 15 38 0
	movw	r0, #:lower16:.LC12
	.loc 15 33 0
	add	ip, ip, #1
	.loc 15 38 0
	ubfx	r3, r1, #16, #4
	and	r2, r1, #15
	.loc 15 33 0
	movt	r4, #:upper16:n_breakpoints
	.loc 15 38 0
	ubfx	r1, r1, #4, #4
	movt	r0, #:upper16:.LC12
	.loc 15 33 0
	str	ip, [r4]
.LVL541:
	.loc 15 38 0
	bl	kprintf
.LVL542:
	.loc 15 40 0
	movw	r0, #:lower16:.LC13
	ldr	r1, [r4]
	movt	r0, #:upper16:.LC13
	bl	kprintf
.LVL543:
.LBB6097:
.LBB6098:
	.loc 16 105 0
	mov	r3, #32768
	.syntax divided
@ 105 "/home/mint/seL4/dhs-demo-feb-2018/kernel/include/arch/arm/arch/machine/debug.h" 1
	mcr p14, 0, r3, c0, c1, 0
@ 0 "" 2
.LVL544:
	.arm
	.syntax unified
.LBE6098:
.LBE6097:
	.loc 15 46 0
	ldr	r0, [r4]
	cmp	r0, #0
	movne	r3, #0
	movwne	r1, #:lower16:breakpoints
	.loc 15 47 0
	movne	r2, r3
	movtne	r1, #:upper16:breakpoints
	.loc 15 46 0
	beq	.L749
.LVL545:
.L754:
	.loc 15 47 0 discriminator 3
	add	ip, r1, r3, lsl #3
	str	r2, [ip, #4]
.LVL546:
.LBB6099:
.LBB6100:
	.loc 16 238 0 discriminator 3
	cmp	r3, #5
	ldrls	pc, [pc, r3, asl #2]
	b	.L740
.L742:
	.word	.L741
	.word	.L743
	.word	.L744
	.word	.L745
	.word	.L746
	.word	.L747
.L741:
.LVL547:
	.loc 16 240 0
	.syntax divided
@ 240 "/home/mint/seL4/dhs-demo-feb-2018/kernel/include/arch/arm/arch/machine/debug.h" 1
	mcr p14, 0, r2, c0, c0, 5
@ 0 "" 2
.LVL548:
	.arm
	.syntax unified
.LBE6100:
.LBE6099:
	.loc 15 46 0
	cmp	r0, #1
	beq	.L749
	.loc 15 47 0
	str	r2, [r1, #12]
.LVL549:
.L743:
.LBB6106:
.LBB6101:
	.loc 16 243 0
	.syntax divided
@ 243 "/home/mint/seL4/dhs-demo-feb-2018/kernel/include/arch/arm/arch/machine/debug.h" 1
	mcr p14, 0, r2, c0, c1, 5
@ 0 "" 2
.LVL550:
	.arm
	.syntax unified
.LBE6101:
.LBE6106:
	.loc 15 46 0
	cmp	r0, #2
	bls	.L749
	.loc 15 47 0
	str	r2, [r1, #20]
.LVL551:
.L744:
.LBB6107:
.LBB6102:
	.loc 16 246 0
	.syntax divided
@ 246 "/home/mint/seL4/dhs-demo-feb-2018/kernel/include/arch/arm/arch/machine/debug.h" 1
	mcr p14, 0, r2, c0, c2, 5
@ 0 "" 2
.LVL552:
	.arm
	.syntax unified
.LBE6102:
.LBE6107:
	.loc 15 46 0
	cmp	r0, #3
	bls	.L749
	.loc 15 47 0
	str	r2, [r1, #28]
.LVL553:
.L745:
.LBB6108:
.LBB6103:
	.loc 16 249 0
	.syntax divided
@ 249 "/home/mint/seL4/dhs-demo-feb-2018/kernel/include/arch/arm/arch/machine/debug.h" 1
	mcr p14, 0, r2, c0, c3, 5
@ 0 "" 2
.LVL554:
	.arm
	.syntax unified
.LBE6103:
.LBE6108:
	.loc 15 46 0
	cmp	r0, #4
	bls	.L749
	.loc 15 47 0
	str	r2, [r1, #36]
.LVL555:
.L746:
.LBB6109:
.LBB6104:
	.loc 16 252 0
	.syntax divided
@ 252 "/home/mint/seL4/dhs-demo-feb-2018/kernel/include/arch/arm/arch/machine/debug.h" 1
	mcr p14, 0, r2, c0, c4, 5
@ 0 "" 2
.LVL556:
	.arm
	.syntax unified
.LBE6104:
.LBE6109:
	.loc 15 46 0
	cmp	r0, #5
	bls	.L749
	.loc 15 47 0
	str	r2, [r1, #44]
.LVL557:
.L747:
.LBB6110:
.LBB6105:
	.loc 16 255 0
	.syntax divided
@ 255 "/home/mint/seL4/dhs-demo-feb-2018/kernel/include/arch/arm/arch/machine/debug.h" 1
	mcr p14, 0, r2, c0, c5, 5
@ 0 "" 2
	.arm
	.syntax unified
	mov	r3, #5
.LVL558:
.L740:
.LBE6105:
.LBE6110:
	.loc 15 46 0 discriminator 3
	add	r3, r3, #1
.LVL559:
	cmp	r3, r0
	bcc	.L754
.LVL560:
.L749:
.LBB6111:
.LBB6112:
	.loc 16 132 0
	mov	r3, #0
	.syntax divided
@ 132 "/home/mint/seL4/dhs-demo-feb-2018/kernel/include/arch/arm/arch/machine/debug.h" 1
	mcr p14, 0, r3, c0, c7, 0
@ 0 "" 2
.LVL561:
	.arm
	.syntax unified
.LBE6112:
.LBE6111:
	.loc 15 51 0
	pop	{r4, pc}
	.cfi_endproc
.LFE402:
	.size	debug_init, .-debug_init
	.align	2
	.global	software_breakpoint
	.syntax unified
	.arm
	.type	software_breakpoint, %function
software_breakpoint:
.LFB403:
	.loc 15 55 0
	.cfi_startproc
	@ args = 0, pretend = 0, frame = 0
	@ frame_needed = 0, uses_anonymous_args = 0
.LVL562:
	push	{r4, r5, r6, r7, r8, lr}
	.cfi_def_cfa_offset 24
	.cfi_offset 4, -24
	.cfi_offset 5, -20
	.cfi_offset 6, -16
	.cfi_offset 7, -12
	.cfi_offset 8, -8
	.cfi_offset 14, -4
	.loc 15 55 0
	mov	r7, r1
	.loc 15 58 0
	mov	r1, r0
.LVL563:
	movw	r0, #:lower16:.LC14
.LVL564:
	.loc 15 60 0
	movw	r6, #:lower16:.LC15
	.loc 15 58 0
	movt	r0, #:upper16:.LC14
	sub	r5, r7, #4
	.loc 15 60 0
	movt	r6, #:upper16:.LC15
	.loc 15 59 0
	mov	r4, #0
	.loc 15 58 0
	bl	kprintf
.LVL565:
.L759:
	.loc 15 60 0 discriminator 3
	mov	r1, r4
	ldr	r2, [r5, #4]!
	mov	r0, r6
	.loc 15 59 0 discriminator 3
	add	r4, r4, #1
.LVL566:
	.loc 15 60 0 discriminator 3
	bl	kprintf
.LVL567:
	.loc 15 59 0 discriminator 3
	cmp	r4, #10
	bne	.L759
	.loc 15 63 0
	movw	r6, #:lower16:.LC16
	add	r5, r7, #36
	movt	r6, #:upper16:.LC16
.L760:
	.loc 15 63 0 is_stmt 0 discriminator 3
	mov	r1, r4
	ldr	r2, [r5, #4]!
	mov	r0, r6
	.loc 15 62 0 is_stmt 1 discriminator 3
	add	r4, r4, #1
.LVL568:
	.loc 15 63 0 discriminator 3
	bl	kprintf
.LVL569:
	.loc 15 62 0 discriminator 3
	cmp	r4, #15
	bne	.L760
	.loc 15 65 0
	movw	r0, #:lower16:.LC17
	ldr	r1, [r7, #60]
	movt	r0, #:upper16:.LC17
	movw	r5, #:lower16:ksCurThread
	bl	kprintf
.LVL570:
	.loc 15 66 0
	movw	r0, #:lower16:.LC18
	ldr	r1, [r7, #64]
	movt	r0, #:upper16:.LC18
	.loc 15 70 0
	movw	r6, #:lower16:.LC15
	.loc 15 66 0
	bl	kprintf
.LVL571:
	.loc 15 68 0
	movw	r0, #:lower16:.LC19
	movt	r5, #:upper16:ksCurThread
	movt	r0, #:upper16:.LC19
	.loc 15 70 0
	movt	r6, #:upper16:.LC15
	.loc 15 69 0
	mov	r4, #0
.LVL572:
	.loc 15 68 0
	bl	kprintf
.LVL573:
.L761:
	.loc 15 70 0 discriminator 3
	ldr	r3, [r5]
	mov	r1, r4
	mov	r0, r6
	ldr	r2, [r3, r4, lsl #2]
	.loc 15 69 0 discriminator 3
	add	r4, r4, #1
.LVL574:
	.loc 15 70 0 discriminator 3
	bl	kprintf
.LVL575:
	.loc 15 69 0 discriminator 3
	cmp	r4, #10
	bne	.L761
	.loc 15 74 0 discriminator 3
	movw	r6, #:lower16:.LC16
	movt	r6, #:upper16:.LC16
.L762:
	ldr	r3, [r5]
	mov	r1, r4
	mov	r0, r6
	ldr	r2, [r3, r4, lsl #2]
	.loc 15 73 0 discriminator 3
	add	r4, r4, #1
.LVL576:
	.loc 15 74 0 discriminator 3
	bl	kprintf
.LVL577:
	.loc 15 73 0 discriminator 3
	cmp	r4, #15
	bne	.L762
	.loc 15 77 0
	ldr	r3, [r5]
	movw	r0, #:lower16:.LC17
	movt	r0, #:upper16:.LC17
	ldr	r1, [r3, #60]
	bl	kprintf
.LVL578:
	.loc 15 78 0
	ldr	r3, [r5]
	movw	r0, #:lower16:.LC18
	movt	r0, #:upper16:.LC18
	.loc 15 79 0
	pop	{r4, r5, r6, r7, r8, lr}
	.cfi_restore 14
	.cfi_restore 8
	.cfi_restore 7
	.cfi_restore 6
	.cfi_restore 5
	.cfi_restore 4
	.cfi_def_cfa_offset 0
.LVL579:
	.loc 15 78 0
	ldr	r1, [r3, #64]
	b	kprintf
.LVL580:
	.cfi_endproc
.LFE403:
	.size	software_breakpoint, .-software_breakpoint
	.align	2
	.global	breakpoint_multiplexer
	.syntax unified
	.arm
	.type	breakpoint_multiplexer, %function
breakpoint_multiplexer:
.LFB404:
	.loc 15 83 0
	.cfi_startproc
	@ args = 0, pretend = 0, frame = 0
	@ frame_needed = 0, uses_anonymous_args = 0
.LVL581:
	.loc 15 86 0
	movw	r3, #:lower16:n_breakpoints
	.loc 15 83 0
	mov	ip, r0
	.loc 15 86 0
	movt	r3, #:upper16:n_breakpoints
	ldr	r2, [r3]
	cmp	r2, #0
	beq	.L825
	movw	r3, #:lower16:breakpoints
	.loc 15 83 0
	str	lr, [sp, #-4]!
	.cfi_def_cfa_offset 4
	.cfi_offset 14, -4
	.loc 15 86 0
	movt	r3, #:upper16:breakpoints
	ldr	r0, [r3]
.LVL582:
	cmp	ip, r0
	beq	.L826
.L770:
.LVL583:
	cmp	r2, #1
	beq	.L817
	ldr	r0, [r3, #8]
	cmp	ip, r0
	beq	.L827
.L773:
.LVL584:
	cmp	r2, #2
	beq	.L817
	ldr	r0, [r3, #16]
	cmp	ip, r0
	beq	.L828
.L774:
.LVL585:
	cmp	r2, #3
	beq	.L817
	ldr	r0, [r3, #24]
	cmp	ip, r0
	beq	.L829
.L776:
.LVL586:
	cmp	r2, #4
	beq	.L817
	ldr	r0, [r3, #32]
	cmp	ip, r0
	beq	.L830
.L777:
.LVL587:
	cmp	r2, #5
	beq	.L817
	ldr	r0, [r3, #40]
	cmp	ip, r0
	beq	.L831
.L778:
.LVL588:
	cmp	r2, #6
	beq	.L817
	ldr	r0, [r3, #48]
	cmp	ip, r0
	beq	.L832
.L779:
.LVL589:
	cmp	r2, #7
	beq	.L817
	ldr	r0, [r3, #56]
	cmp	ip, r0
	beq	.L833
.L780:
.LVL590:
	cmp	r2, #8
	beq	.L817
	ldr	r0, [r3, #64]
	cmp	ip, r0
	beq	.L834
.L781:
.LVL591:
	cmp	r2, #9
	beq	.L817
	ldr	lr, [r3, #72]
	cmp	ip, lr
	beq	.L835
.L782:
.LVL592:
	cmp	r2, #10
	beq	.L817
	ldr	lr, [r3, #80]
	cmp	ip, lr
	beq	.L836
.L783:
.LVL593:
	cmp	r2, #11
	beq	.L817
	ldr	lr, [r3, #88]
	cmp	ip, lr
	beq	.L837
.L784:
.LVL594:
	cmp	r2, #12
	beq	.L817
	ldr	lr, [r3, #96]
	cmp	ip, lr
	beq	.L838
.L785:
.LVL595:
	cmp	r2, #13
	beq	.L817
	ldr	lr, [r3, #104]
	cmp	ip, lr
	beq	.L839
.L786:
.LVL596:
	cmp	r2, #14
	beq	.L817
	ldr	lr, [r3, #112]
	cmp	ip, lr
	beq	.L840
.L787:
.LVL597:
	cmp	r2, #15
	beq	.L817
	.loc 15 86 0 is_stmt 0 discriminator 2
	ldr	lr, [r3, #120]
	cmp	lr, ip
	.loc 15 87 0 is_stmt 1 discriminator 2
	movne	lr, #16
	.loc 15 86 0 discriminator 2
	beq	.L841
.LVL598:
.L789:
	.loc 15 89 0
	cmp	lr, r2
	beq	.L842
.L771:
	.loc 15 92 0
	add	r3, r3, lr, lsl #3
	mov	r0, r1
	.loc 15 94 0
	ldr	lr, [sp], #4
	.cfi_remember_state
	.cfi_restore 14
	.cfi_def_cfa_offset 0
	.loc 15 92 0
	ldr	r3, [r3, #4]
	bx	r3	@ indirect register sibling call
.LVL599:
.L817:
	.cfi_restore_state
	.loc 15 87 0
	mov	lr, r2
	.loc 15 89 0
	cmp	lr, r2
	bne	.L771
.L842:
	.loc 15 90 0
	movw	r0, #:lower16:.LC20
	mov	r1, ip
.LVL600:
	movt	r0, #:upper16:.LC20
	.loc 15 94 0
	ldr	lr, [sp], #4
	.cfi_remember_state
	.cfi_restore 14
	.cfi_def_cfa_offset 0
	.loc 15 90 0
	b	kprintf
.LVL601:
.L826:
	.cfi_restore_state
	.loc 15 86 0
	ldr	r0, [r3, #4]
	cmp	r0, #0
	beq	.L770
	mov	lr, #0
	b	.L771
.LVL602:
.L841:
	.loc 15 86 0 is_stmt 0 discriminator 3
	ldr	r0, [r3, #124]
	.loc 15 87 0 is_stmt 1 discriminator 3
	cmp	r0, #0
	moveq	lr, #16
	movne	lr, #15
	b	.L789
.LVL603:
.L840:
	.loc 15 86 0
	ldr	r0, [r3, #116]
	cmp	r0, #0
	beq	.L787
	.loc 15 87 0
	mov	lr, #14
	b	.L789
.LVL604:
.L839:
	.loc 15 86 0
	ldr	r0, [r3, #108]
	cmp	r0, #0
	beq	.L786
	.loc 15 87 0
	mov	lr, #13
	b	.L789
.LVL605:
.L838:
	.loc 15 86 0
	ldr	r0, [r3, #100]
	cmp	r0, #0
	beq	.L785
	.loc 15 87 0
	mov	lr, #12
	b	.L789
.LVL606:
.L837:
	.loc 15 86 0
	ldr	r0, [r3, #92]
	cmp	r0, #0
	beq	.L784
	.loc 15 87 0
	mov	lr, #11
	b	.L789
.LVL607:
.L836:
	.loc 15 86 0
	ldr	r0, [r3, #84]
	cmp	r0, #0
	beq	.L783
	.loc 15 87 0
	mov	lr, #10
	b	.L789
.LVL608:
.L835:
	.loc 15 86 0
	ldr	r0, [r3, #76]
	cmp	r0, #0
	beq	.L782
	.loc 15 87 0
	mov	lr, #9
	b	.L789
.LVL609:
.L834:
	.loc 15 86 0
	ldr	r0, [r3, #68]
	cmp	r0, #0
	beq	.L781
	.loc 15 87 0
	mov	lr, #8
	b	.L789
.LVL610:
.L833:
	.loc 15 86 0
	ldr	r0, [r3, #60]
	cmp	r0, #0
	beq	.L780
	.loc 15 87 0
	mov	lr, #7
	b	.L789
.LVL611:
.L832:
	.loc 15 86 0
	ldr	r0, [r3, #52]
	cmp	r0, #0
	beq	.L779
	.loc 15 87 0
	mov	lr, #6
	b	.L789
.LVL612:
.L831:
	.loc 15 86 0
	ldr	r0, [r3, #44]
	cmp	r0, #0
	beq	.L778
	.loc 15 87 0
	mov	lr, #5
	b	.L789
.LVL613:
.L830:
	.loc 15 86 0
	ldr	r0, [r3, #36]
	cmp	r0, #0
	beq	.L777
	.loc 15 87 0
	mov	lr, #4
	b	.L789
.LVL614:
.L829:
	.loc 15 86 0
	ldr	r0, [r3, #28]
	cmp	r0, #0
	beq	.L776
	.loc 15 87 0
	mov	lr, #3
	b	.L789
.LVL615:
.L828:
	.loc 15 86 0
	ldr	r0, [r3, #20]
	cmp	r0, #0
	beq	.L774
	.loc 15 87 0
	mov	lr, #2
	b	.L789
.LVL616:
.L827:
	.loc 15 86 0
	ldr	r0, [r3, #12]
	cmp	r0, #0
	beq	.L773
	.loc 15 87 0
	mov	lr, #1
	b	.L771
.LVL617:
.L825:
	.cfi_def_cfa_offset 0
	.cfi_restore 14
	.loc 15 90 0
	movw	r0, #:lower16:.LC20
.LVL618:
	mov	r1, ip
.LVL619:
	movt	r0, #:upper16:.LC20
	b	kprintf
.LVL620:
	.cfi_endproc
.LFE404:
	.size	breakpoint_multiplexer, .-breakpoint_multiplexer
	.align	2
	.global	_fail
	.syntax unified
	.arm
	.type	_fail, %function
_fail:
.LFB461:
	.file 27 "/home/mint/seL4/dhs-demo-feb-2018/kernel/src/assert.c"
	.loc 27 21 0
	.cfi_startproc
	@ Volatile: function does not return.
	@ args = 0, pretend = 0, frame = 0
	@ frame_needed = 0, uses_anonymous_args = 0
.LVL621:
	str	lr, [sp, #-4]!
	.cfi_def_cfa_offset 4
	.cfi_offset 14, -4
	sub	sp, sp, #12
	.cfi_def_cfa_offset 16
	.loc 27 22 0
	str	r0, [sp]
	movw	r0, #:lower16:.LC21
.LVL622:
	movt	r0, #:upper16:.LC21
	bl	kprintf
.LVL623:
	.loc 27 29 0
	bl	halt
.LVL624:
	.cfi_endproc
.LFE461:
	.size	_fail, .-_fail
	.align	2
	.syntax unified
	.arm
	.type	pageBitsForSize, %function
pageBitsForSize:
.LFB191:
	.file 28 "/home/mint/seL4/dhs-demo-feb-2018/kernel/include/arch/arm/arch/machine/hardware.h"
	.loc 28 112 0
	.cfi_startproc
	@ args = 0, pretend = 0, frame = 0
	@ frame_needed = 0, uses_anonymous_args = 0
.LVL625:
	.loc 28 113 0
	cmp	r0, #3
	ldrls	pc, [pc, r0, asl #2]
	b	.L846
.L848:
	.word	.L847
	.word	.L849
	.word	.L852
	.word	.L851
.L852:
	.loc 28 121 0
	mov	r0, #20
.LVL626:
	.loc 28 129 0
	bx	lr
.LVL627:
.L849:
	.loc 28 118 0
	mov	r0, #16
.LVL628:
	bx	lr
.LVL629:
.L847:
	.loc 28 115 0
	mov	r0, #12
.LVL630:
	bx	lr
.LVL631:
.L851:
	.loc 28 124 0
	mov	r0, #24
.LVL632:
	bx	lr
.LVL633:
.L846:
.LBB6115:
.LBB6116:
	.loc 28 127 0
	movw	r1, #:lower16:.LC22
	movw	r0, #:lower16:.LC23
.LVL634:
.LBE6116:
.LBE6115:
	.loc 28 112 0
	push	{r4, lr}
.LBB6118:
.LBB6117:
	.loc 28 127 0
	movt	r1, #:upper16:.LC22
	movt	r0, #:upper16:.LC23
	ldr	r3, .L854
	mov	r2, #127
	bl	_fail
.LVL635:
.L855:
	.align	2
.L854:
	.word	.LANCHOR4+20
.LBE6117:
.LBE6118:
	.cfi_endproc
.LFE191:
	.size	pageBitsForSize, .-pageBitsForSize
	.align	2
	.global	Arch_getObjectSize
	.syntax unified
	.arm
	.type	Arch_getObjectSize, %function
Arch_getObjectSize:
.LFB449:
	.loc 23 235 0
	.cfi_startproc
	@ args = 0, pretend = 0, frame = 0
	@ frame_needed = 0, uses_anonymous_args = 0
.LVL636:
	.loc 23 236 0
	sub	r0, r0, #5
.LVL637:
	cmp	r0, #5
	ldrls	pc, [pc, r0, asl #2]
	b	.L857
.L859:
	.word	.L858
	.word	.L860
	.word	.L865
	.word	.L862
	.word	.L863
	.word	.L864
.L865:
	.loc 23 242 0
	mov	r0, #20
.LVL638:
	.loc 23 253 0
	bx	lr
.L862:
	.loc 23 244 0
	mov	r0, #24
	bx	lr
.L863:
	.loc 23 246 0
	mov	r0, #10
	bx	lr
.L864:
	.loc 23 248 0
	mov	r0, #14
	bx	lr
.L858:
	.loc 23 238 0
	mov	r0, #12
	bx	lr
.L860:
	.loc 23 240 0
	mov	r0, #16
	bx	lr
.L857:
.LVL639:
.LBB6121:
.LBB6122:
	.loc 23 250 0
	movw	r1, #:lower16:.LC24
	movw	r0, #:lower16:.LC25
.LBE6122:
.LBE6121:
	.loc 23 235 0
	push	{r4, lr}
.LBB6124:
.LBB6123:
	.loc 23 250 0
	movt	r1, #:upper16:.LC24
	movt	r0, #:upper16:.LC25
	ldr	r3, .L867
	mov	r2, #250
	bl	_fail
.LVL640:
.L868:
	.align	2
.L867:
	.word	.LANCHOR4+36
.LBE6123:
.LBE6124:
	.cfi_endproc
.LFE449:
	.size	Arch_getObjectSize, .-Arch_getObjectSize
	.align	2
	.syntax unified
	.arm
	.type	APFromVMRights, %function
APFromVMRights:
.LFB320:
	.loc 11 71 0
	.cfi_startproc
	@ args = 0, pretend = 0, frame = 0
	@ frame_needed = 0, uses_anonymous_args = 0
.LVL641:
	.loc 11 72 0
	cmp	r0, #3
	ldrls	pc, [pc, r0, asl #2]
	b	.L870
.L872:
	.word	.L871
	.word	.L873
	.word	.L876
	.word	.L875
.L876:
	.loc 11 80 0
	mov	r0, #2
.LVL642:
	.loc 11 88 0
	bx	lr
.LVL643:
.L873:
	.loc 11 77 0
	mov	r0, #1
.LVL644:
	bx	lr
.LVL645:
.L871:
	.loc 11 74 0
	mov	r0, #0
.LVL646:
	bx	lr
.LVL647:
.L875:
	.loc 11 83 0
	mov	r0, #3
.LVL648:
	bx	lr
.LVL649:
.L870:
.LBB6127:
.LBB6128:
	.loc 11 86 0
	movw	r1, #:lower16:.LC26
	movw	r0, #:lower16:.LC27
.LVL650:
.LBE6128:
.LBE6127:
	.loc 11 71 0
	push	{r4, lr}
.LBB6130:
.LBB6129:
	.loc 11 86 0
	movt	r1, #:upper16:.LC26
	movt	r0, #:upper16:.LC27
	ldr	r3, .L878
	mov	r2, #86
	bl	_fail
.LVL651:
.L879:
	.align	2
.L878:
	.word	.LANCHOR4+56
.LBE6129:
.LBE6130:
	.cfi_endproc
.LFE320:
	.size	APFromVMRights, .-APFromVMRights
	.align	2
	.global	_assert_fail
	.syntax unified
	.arm
	.type	_assert_fail, %function
_assert_fail:
.LFB462:
	.loc 27 37 0
	.cfi_startproc
	@ Volatile: function does not return.
	@ args = 0, pretend = 0, frame = 0
	@ frame_needed = 0, uses_anonymous_args = 0
.LVL652:
	str	lr, [sp, #-4]!
	.cfi_def_cfa_offset 4
	.cfi_offset 14, -4
	sub	sp, sp, #12
	.cfi_def_cfa_offset 16
	.loc 27 38 0
	str	r3, [sp]
	mov	r3, r2
.LVL653:
	mov	r2, r1
.LVL654:
	mov	r1, r0
.LVL655:
	movw	r0, #:lower16:.LC28
.LVL656:
	movt	r0, #:upper16:.LC28
	bl	kprintf
.LVL657:
	.loc 27 44 0
	bl	halt
.LVL658:
	.cfi_endproc
.LFE462:
	.size	_assert_fail, .-_assert_fail
	.section	.text.unlikely,"ax",%progbits
	.align	2
	.syntax unified
	.arm
	.type	cap_thread_cap_get_capTCBPtr.isra.64.part.65, %function
cap_thread_cap_get_capTCBPtr.isra.64.part.65:
.LFB779:
	.loc 4 1574 0
	.cfi_startproc
	@ Volatile: function does not return.
	@ args = 0, pretend = 0, frame = 0
	@ frame_needed = 0, uses_anonymous_args = 0
	.loc 4 1576 0
	movw	r1, #:lower16:.LC29
	movw	r0, #:lower16:.LC30
	.loc 4 1574 0
	push	{r4, lr}
	.cfi_def_cfa_offset 8
	.cfi_offset 4, -8
	.cfi_offset 14, -4
	.loc 4 1576 0
	movt	r1, #:upper16:.LC29
	movt	r0, #:upper16:.LC30
	ldr	r3, .L884
	movw	r2, #1577
	bl	_assert_fail
.LVL659:
.L885:
	.align	2
.L884:
	.word	.LANCHOR4+72
	.cfi_endproc
.LFE779:
	.size	cap_thread_cap_get_capTCBPtr.isra.64.part.65, .-cap_thread_cap_get_capTCBPtr.isra.64.part.65
	.align	2
	.syntax unified
	.arm
	.type	cap_reply_cap_get_capReplyMaster.part.68, %function
cap_reply_cap_get_capReplyMaster.part.68:
.LFB782:
	.loc 4 1437 0
	.cfi_startproc
	@ Volatile: function does not return.
	@ args = 0, pretend = 0, frame = 0
	@ frame_needed = 0, uses_anonymous_args = 0
	.loc 4 1439 0
	movw	r1, #:lower16:.LC29
	movw	r0, #:lower16:.LC31
	.loc 4 1437 0
	push	{r4, lr}
	.cfi_def_cfa_offset 8
	.cfi_offset 4, -8
	.cfi_offset 14, -4
	.loc 4 1439 0
	movt	r1, #:upper16:.LC29
	movt	r0, #:upper16:.LC31
	ldr	r3, .L888
	mov	r2, #1440
	bl	_assert_fail
.LVL660:
.L889:
	.align	2
.L888:
	.word	.LANCHOR4+104
	.cfi_endproc
.LFE782:
	.size	cap_reply_cap_get_capReplyMaster.part.68, .-cap_reply_cap_get_capReplyMaster.part.68
	.text
	.align	2
	.syntax unified
	.arm
	.type	cap_reply_cap_get_capTCBPtr.isra.69.part.70, %function
cap_reply_cap_get_capTCBPtr.isra.69.part.70:
.LFB784:
	.loc 4 1451 0
	.cfi_startproc
	@ Volatile: function does not return.
	@ args = 0, pretend = 0, frame = 0
	@ frame_needed = 0, uses_anonymous_args = 0
	.loc 4 1453 0
	movw	r1, #:lower16:.LC29
	movw	r0, #:lower16:.LC31
	.loc 4 1451 0
	push	{r4, lr}
	.cfi_def_cfa_offset 8
	.cfi_offset 4, -8
	.cfi_offset 14, -4
	.loc 4 1453 0
	movt	r1, #:upper16:.LC29
	movt	r0, #:upper16:.LC31
	ldr	r3, .L892
	movw	r2, #1454
	bl	_assert_fail
.LVL661:
.L893:
	.align	2
.L892:
	.word	.LANCHOR4+140
	.cfi_endproc
.LFE784:
	.size	cap_reply_cap_get_capTCBPtr.isra.69.part.70, .-cap_reply_cap_get_capTCBPtr.isra.69.part.70
	.align	2
	.syntax unified
	.arm
	.type	cap_endpoint_cap_get_capCanReceive.part.71, %function
cap_endpoint_cap_get_capCanReceive.part.71:
.LFB785:
	.loc 4 1172 0
	.cfi_startproc
	@ Volatile: function does not return.
	@ args = 0, pretend = 0, frame = 0
	@ frame_needed = 0, uses_anonymous_args = 0
	.loc 4 1174 0
	movw	r1, #:lower16:.LC29
	movw	r0, #:lower16:.LC32
	.loc 4 1172 0
	push	{r4, lr}
	.cfi_def_cfa_offset 8
	.cfi_offset 4, -8
	.cfi_offset 14, -4
	.loc 4 1174 0
	movt	r1, #:upper16:.LC29
	movt	r0, #:upper16:.LC32
	ldr	r3, .L896
	movw	r2, #1175
	bl	_assert_fail
.LVL662:
.L897:
	.align	2
.L896:
	.word	.LANCHOR4+168
	.cfi_endproc
.LFE785:
	.size	cap_endpoint_cap_get_capCanReceive.part.71, .-cap_endpoint_cap_get_capCanReceive.part.71
	.section	.text.unlikely
	.align	2
	.syntax unified
	.arm
	.type	cap_async_endpoint_cap_get_capAEPPtr.isra.72.part.73, %function
cap_async_endpoint_cap_get_capAEPPtr.isra.72.part.73:
.LFB787:
	.loc 4 1354 0
	.cfi_startproc
	@ Volatile: function does not return.
	@ args = 0, pretend = 0, frame = 0
	@ frame_needed = 0, uses_anonymous_args = 0
	.loc 4 1356 0
	movw	r1, #:lower16:.LC29
	movw	r0, #:lower16:.LC33
	.loc 4 1354 0
	push	{r4, lr}
	.cfi_def_cfa_offset 8
	.cfi_offset 4, -8
	.cfi_offset 14, -4
	.loc 4 1356 0
	movt	r1, #:upper16:.LC29
	movt	r0, #:upper16:.LC33
	ldr	r3, .L900
	movw	r2, #1357
	bl	_assert_fail
.LVL663:
.L901:
	.align	2
.L900:
	.word	.LANCHOR4+204
	.cfi_endproc
.LFE787:
	.size	cap_async_endpoint_cap_get_capAEPPtr.isra.72.part.73, .-cap_async_endpoint_cap_get_capAEPPtr.isra.72.part.73
	.align	2
	.syntax unified
	.arm
	.type	cap_async_endpoint_cap_get_capAEPCanReceive.part.74, %function
cap_async_endpoint_cap_get_capAEPCanReceive.part.74:
.LFB788:
	.loc 4 1302 0
	.cfi_startproc
	@ Volatile: function does not return.
	@ args = 0, pretend = 0, frame = 0
	@ frame_needed = 0, uses_anonymous_args = 0
	.loc 4 1304 0
	movw	r1, #:lower16:.LC29
	movw	r0, #:lower16:.LC33
	.loc 4 1302 0
	push	{r4, lr}
	.cfi_def_cfa_offset 8
	.cfi_offset 4, -8
	.cfi_offset 14, -4
	.loc 4 1304 0
	movt	r1, #:upper16:.LC29
	movt	r0, #:upper16:.LC33
	ldr	r3, .L904
	movw	r2, #1305
	bl	_assert_fail
.LVL664:
.L905:
	.align	2
.L904:
	.word	.LANCHOR4+244
	.cfi_endproc
.LFE788:
	.size	cap_async_endpoint_cap_get_capAEPCanReceive.part.74, .-cap_async_endpoint_cap_get_capAEPCanReceive.part.74
	.align	2
	.syntax unified
	.arm
	.type	lookup_fault_missing_capability_new.part.75, %function
lookup_fault_missing_capability_new.part.75:
.LFB789:
	.loc 4 2263 0
	.cfi_startproc
	@ Volatile: function does not return.
	@ args = 0, pretend = 0, frame = 0
	@ frame_needed = 0, uses_anonymous_args = 0
.LVL665:
	.loc 4 2270 0
	movw	r1, #:lower16:.LC29
	movw	r0, #:lower16:.LC34
	.loc 4 2263 0
	push	{r4, lr}
	.cfi_def_cfa_offset 8
	.cfi_offset 4, -8
	.cfi_offset 14, -4
	.loc 4 2270 0
	movt	r1, #:upper16:.LC29
	movt	r0, #:upper16:.LC34
	ldr	r3, .L908
	movw	r2, #2270
	bl	_assert_fail
.LVL666:
.L909:
	.align	2
.L908:
	.word	.LANCHOR4+288
	.cfi_endproc
.LFE789:
	.size	lookup_fault_missing_capability_new.part.75, .-lookup_fault_missing_capability_new.part.75
	.text
	.align	2
	.syntax unified
	.arm
	.type	cap_cnode_cap_get_capCNodeGuardSize.part.77, %function
cap_cnode_cap_get_capCNodeGuardSize.part.77:
.LFB791:
	.loc 4 1491 0
	.cfi_startproc
	@ Volatile: function does not return.
	@ args = 0, pretend = 0, frame = 0
	@ frame_needed = 0, uses_anonymous_args = 0
	.loc 4 1493 0
	movw	r1, #:lower16:.LC29
	movw	r0, #:lower16:.LC35
	.loc 4 1491 0
	push	{r4, lr}
	.cfi_def_cfa_offset 8
	.cfi_offset 4, -8
	.cfi_offset 14, -4
	.loc 4 1493 0
	movt	r1, #:upper16:.LC29
	movt	r0, #:upper16:.LC35
	ldr	r3, .L912
	movw	r2, #1494
	bl	_assert_fail
.LVL667:
.L913:
	.align	2
.L912:
	.word	.LANCHOR4+324
	.cfi_endproc
.LFE791:
	.size	cap_cnode_cap_get_capCNodeGuardSize.part.77, .-cap_cnode_cap_get_capCNodeGuardSize.part.77
	.align	2
	.syntax unified
	.arm
	.type	cap_cnode_cap_get_capCNodeRadix.part.78, %function
cap_cnode_cap_get_capCNodeRadix.part.78:
.LFB792:
	.loc 4 1517 0
	.cfi_startproc
	@ Volatile: function does not return.
	@ args = 0, pretend = 0, frame = 0
	@ frame_needed = 0, uses_anonymous_args = 0
	.loc 4 1519 0
	movw	r1, #:lower16:.LC29
	movw	r0, #:lower16:.LC35
	.loc 4 1517 0
	push	{r4, lr}
	.cfi_def_cfa_offset 8
	.cfi_offset 4, -8
	.cfi_offset 14, -4
	.loc 4 1519 0
	movt	r1, #:upper16:.LC29
	movt	r0, #:upper16:.LC35
	ldr	r3, .L916
	mov	r2, #1520
	bl	_assert_fail
.LVL668:
.L917:
	.align	2
.L916:
	.word	.LANCHOR4+360
	.cfi_endproc
.LFE792:
	.size	cap_cnode_cap_get_capCNodeRadix.part.78, .-cap_cnode_cap_get_capCNodeRadix.part.78
	.align	2
	.syntax unified
	.arm
	.type	cap_cnode_cap_get_capCNodePtr.isra.79.part.80, %function
cap_cnode_cap_get_capCNodePtr.isra.79.part.80:
.LFB794:
	.loc 4 1543 0
	.cfi_startproc
	@ Volatile: function does not return.
	@ args = 0, pretend = 0, frame = 0
	@ frame_needed = 0, uses_anonymous_args = 0
	.loc 4 1545 0
	movw	r1, #:lower16:.LC29
	movw	r0, #:lower16:.LC35
	.loc 4 1543 0
	push	{r4, lr}
	.cfi_def_cfa_offset 8
	.cfi_offset 4, -8
	.cfi_offset 14, -4
	.loc 4 1545 0
	movt	r1, #:upper16:.LC29
	movt	r0, #:upper16:.LC35
	ldr	r3, .L920
	movw	r2, #1546
	bl	_assert_fail
.LVL669:
.L921:
	.align	2
.L920:
	.word	.LANCHOR4+392
	.cfi_endproc
.LFE794:
	.size	cap_cnode_cap_get_capCNodePtr.isra.79.part.80, .-cap_cnode_cap_get_capCNodePtr.isra.79.part.80
	.align	2
	.syntax unified
	.arm
	.type	cap_endpoint_cap_get_capCanSend.part.81, %function
cap_endpoint_cap_get_capCanSend.part.81:
.LFB795:
	.loc 4 1198 0
	.cfi_startproc
	@ Volatile: function does not return.
	@ args = 0, pretend = 0, frame = 0
	@ frame_needed = 0, uses_anonymous_args = 0
	.loc 4 1200 0
	movw	r1, #:lower16:.LC29
	movw	r0, #:lower16:.LC32
	.loc 4 1198 0
	push	{r4, lr}
	.cfi_def_cfa_offset 8
	.cfi_offset 4, -8
	.cfi_offset 14, -4
	.loc 4 1200 0
	movt	r1, #:upper16:.LC29
	movt	r0, #:upper16:.LC32
	ldr	r3, .L924
	movw	r2, #1201
	bl	_assert_fail
.LVL670:
.L925:
	.align	2
.L924:
	.word	.LANCHOR4+424
	.cfi_endproc
.LFE795:
	.size	cap_endpoint_cap_get_capCanSend.part.81, .-cap_endpoint_cap_get_capCanSend.part.81
	.align	2
	.syntax unified
	.arm
	.type	cap_endpoint_cap_get_capEPPtr.part.82, %function
cap_endpoint_cap_get_capEPPtr.part.82:
.LFB796:
	.loc 4 1132 0
	.cfi_startproc
	@ Volatile: function does not return.
	@ args = 0, pretend = 0, frame = 0
	@ frame_needed = 0, uses_anonymous_args = 0
	.loc 4 1134 0
	movw	r1, #:lower16:.LC29
	movw	r0, #:lower16:.LC32
	.loc 4 1132 0
	push	{r4, lr}
	.cfi_def_cfa_offset 8
	.cfi_offset 4, -8
	.cfi_offset 14, -4
	.loc 4 1134 0
	movt	r1, #:upper16:.LC29
	movt	r0, #:upper16:.LC32
	ldr	r3, .L928
	movw	r2, #1135
	bl	_assert_fail
.LVL671:
.L929:
	.align	2
.L928:
	.word	.LANCHOR4+456
	.cfi_endproc
.LFE796:
	.size	cap_endpoint_cap_get_capEPPtr.part.82, .-cap_endpoint_cap_get_capEPPtr.part.82
	.align	2
	.syntax unified
	.arm
	.type	cap_endpoint_cap_get_capCanGrant.part.83, %function
cap_endpoint_cap_get_capCanGrant.part.83:
.LFB797:
	.loc 4 1146 0
	.cfi_startproc
	@ Volatile: function does not return.
	@ args = 0, pretend = 0, frame = 0
	@ frame_needed = 0, uses_anonymous_args = 0
	.loc 4 1148 0
	movw	r1, #:lower16:.LC29
	movw	r0, #:lower16:.LC32
	.loc 4 1146 0
	push	{r4, lr}
	.cfi_def_cfa_offset 8
	.cfi_offset 4, -8
	.cfi_offset 14, -4
	.loc 4 1148 0
	movt	r1, #:upper16:.LC29
	movt	r0, #:upper16:.LC32
	ldr	r3, .L932
	movw	r2, #1149
	bl	_assert_fail
.LVL672:
.L933:
	.align	2
.L932:
	.word	.LANCHOR4+488
	.cfi_endproc
.LFE797:
	.size	cap_endpoint_cap_get_capCanGrant.part.83, .-cap_endpoint_cap_get_capCanGrant.part.83
	.align	2
	.syntax unified
	.arm
	.type	pde_pde_invalid_get_stored_asid_valid.part.84, %function
pde_pde_invalid_get_stored_asid_valid.part.84:
.LFB798:
	.loc 4 790 0
	.cfi_startproc
	@ Volatile: function does not return.
	@ args = 0, pretend = 0, frame = 0
	@ frame_needed = 0, uses_anonymous_args = 0
	.loc 4 792 0
	movw	r1, #:lower16:.LC29
	movw	r0, #:lower16:.LC36
	.loc 4 790 0
	push	{r4, lr}
	.cfi_def_cfa_offset 8
	.cfi_offset 4, -8
	.cfi_offset 14, -4
	.loc 4 792 0
	movt	r1, #:upper16:.LC29
	movt	r0, #:upper16:.LC36
	ldr	r3, .L936
	movw	r2, #793
	bl	_assert_fail
.LVL673:
.L937:
	.align	2
.L936:
	.word	.LANCHOR4+524
	.cfi_endproc
.LFE798:
	.size	pde_pde_invalid_get_stored_asid_valid.part.84, .-pde_pde_invalid_get_stored_asid_valid.part.84
	.align	2
	.syntax unified
	.arm
	.type	cap_endpoint_cap_get_capEPBadge.isra.85.part.86, %function
cap_endpoint_cap_get_capEPBadge.isra.85.part.86:
.LFB800:
	.loc 4 1224 0
	.cfi_startproc
	@ Volatile: function does not return.
	@ args = 0, pretend = 0, frame = 0
	@ frame_needed = 0, uses_anonymous_args = 0
	.loc 4 1226 0
	movw	r1, #:lower16:.LC29
	movw	r0, #:lower16:.LC32
	.loc 4 1224 0
	push	{r4, lr}
	.cfi_def_cfa_offset 8
	.cfi_offset 4, -8
	.cfi_offset 14, -4
	.loc 4 1226 0
	movt	r1, #:upper16:.LC29
	movt	r0, #:upper16:.LC32
	ldr	r3, .L940
	movw	r2, #1227
	bl	_assert_fail
.LVL674:
.L941:
	.align	2
.L940:
	.word	.LANCHOR4+564
	.cfi_endproc
.LFE800:
	.size	cap_endpoint_cap_get_capEPBadge.isra.85.part.86, .-cap_endpoint_cap_get_capEPBadge.isra.85.part.86
	.align	2
	.syntax unified
	.arm
	.type	endpoint_cap_comparator, %function
endpoint_cap_comparator:
.LFB486:
	.loc 3 85 0
	.cfi_startproc
	@ args = 0, pretend = 0, frame = 0
	@ frame_needed = 0, uses_anonymous_args = 0
.LVL675:
	ldr	r3, [r0]
.LVL676:
	push	{r4, lr}
	.cfi_def_cfa_offset 8
	.cfi_offset 4, -8
	.cfi_offset 14, -4
	.loc 3 85 0
	mov	lr, r2
.LBB6143:
.LBB6144:
.LBB6145:
	.loc 4 1226 0
	and	r2, r3, #15
.LVL677:
	cmp	r2, #4
	bne	.L944
	ldr	r2, [r1]
	.loc 4 1229 0
	lsr	r3, r3, #4
.LVL678:
.LBE6145:
.LBE6144:
.LBB6147:
.LBB6148:
	.loc 4 1226 0
	and	ip, r2, #15
	cmp	ip, #4
	bne	.L944
	.loc 4 1229 0
	lsr	r2, r2, #4
.LVL679:
.LBE6148:
.LBE6147:
	.loc 3 88 0
	cmp	r2, r3
	beq	.L945
	.loc 3 88 0 is_stmt 0 discriminator 1
	bcs	.L951
	.loc 3 88 0
	mov	r0, #1
.LVL680:
.LBE6143:
	.loc 3 94 0 is_stmt 1
	pop	{r4, pc}
.LVL681:
.L951:
.LBB6150:
	.loc 3 88 0
	mvn	r0, #0
.LVL682:
	pop	{r4, pc}
.LVL683:
.L945:
.LBE6150:
.LBB6151:
.LBB6152:
	.loc 3 106 0
	mov	r3, lr
	mov	r2, #0
.LBE6152:
.LBE6151:
	.loc 3 94 0
	pop	{r4, lr}
	.cfi_remember_state
	.cfi_restore 14
	.cfi_restore 4
	.cfi_def_cfa_offset 0
.LVL684:
.LBB6154:
.LBB6153:
	.loc 3 106 0
	bx	r3
.LVL685:
.L944:
	.cfi_restore_state
.LBE6153:
.LBE6154:
.LBB6155:
.LBB6149:
.LBB6146:
	bl	cap_endpoint_cap_get_capEPBadge.isra.85.part.86
.LVL686:
.LBE6146:
.LBE6149:
.LBE6155:
	.cfi_endproc
.LFE486:
	.size	endpoint_cap_comparator, .-endpoint_cap_comparator
	.align	2
	.syntax unified
	.arm
	.type	fastpath_copy_mrs, %function
fastpath_copy_mrs:
.LFB300:
	.file 29 "/home/mint/seL4/dhs-demo-feb-2018/kernel/src/arch/arm/fastpath/fastpath.c"
	.loc 29 187 0
	.cfi_startproc
	@ args = 0, pretend = 0, frame = 0
	@ frame_needed = 0, uses_anonymous_args = 0
.LVL687:
	.loc 29 188 0
	cmp	r0, #0
	bxeq	lr
	.loc 29 192 0
	cmp	r0, #4
	bhi	.L967
.LVL688:
.LBB6190:
.LBB6191:
	.loc 10 27 0
	ldr	r3, [r1, #8]
.LVL689:
.LBE6191:
.LBE6190:
	.loc 29 202 0
	cmp	r0, #1
.LBB6192:
.LBB6193:
	.loc 10 21 0
	str	r3, [r2, #8]
.LBE6193:
.LBE6192:
	.loc 29 202 0
	bxeq	lr
.LVL690:
.LBB6194:
.LBB6195:
	.loc 10 27 0
	ldr	r3, [r1, #12]
.LVL691:
.LBE6195:
.LBE6194:
	.loc 29 205 0
	cmp	r0, #2
.LBB6196:
.LBB6197:
	.loc 10 21 0
	str	r3, [r2, #12]
.LBE6197:
.LBE6196:
	.loc 29 205 0
	bxeq	lr
.LVL692:
.LBB6198:
.LBB6199:
	.loc 10 27 0
	ldr	r3, [r1, #16]
.LVL693:
.LBE6199:
.LBE6198:
	.loc 29 208 0
	cmp	r0, #4
.LBB6200:
.LBB6201:
	.loc 10 21 0
	str	r3, [r2, #16]
.LVL694:
.LBE6201:
.LBE6200:
.LBB6202:
.LBB6203:
	.loc 10 27 0
	ldreq	r3, [r1, #20]
.LVL695:
.LBE6203:
.LBE6202:
.LBB6204:
.LBB6205:
	.loc 10 21 0
	streq	r3, [r2, #20]
	bx	lr
.LVL696:
.L967:
.LBE6205:
.LBE6204:
.LBB6206:
.LBB6207:
	.loc 29 192 0
	movw	r1, #:lower16:.LC37
.LVL697:
	movw	r0, #:lower16:.LC38
.LVL698:
.LBE6207:
.LBE6206:
	.loc 29 187 0
	push	{r4, lr}
	.cfi_def_cfa_offset 8
	.cfi_offset 4, -8
	.cfi_offset 14, -4
.LBB6209:
.LBB6208:
	.loc 29 192 0
	movt	r1, #:upper16:.LC37
	movt	r0, #:upper16:.LC38
	ldr	r3, .L968
	mov	r2, #192
.LVL699:
	bl	_assert_fail
.LVL700:
.L969:
	.align	2
.L968:
	.word	.LANCHOR4+596
.LBE6208:
.LBE6209:
	.cfi_endproc
.LFE300:
	.size	fastpath_copy_mrs, .-fastpath_copy_mrs
	.section	.text.unlikely
	.align	2
	.syntax unified
	.arm
	.type	pde_pde_invalid_get_stored_hw_asid.part.89, %function
pde_pde_invalid_get_stored_hw_asid.part.89:
.LFB803:
	.loc 4 776 0
	.cfi_startproc
	@ Volatile: function does not return.
	@ args = 0, pretend = 0, frame = 0
	@ frame_needed = 0, uses_anonymous_args = 0
	.loc 4 778 0
	movw	r1, #:lower16:.LC29
	movw	r0, #:lower16:.LC36
	.loc 4 776 0
	push	{r4, lr}
	.cfi_def_cfa_offset 8
	.cfi_offset 4, -8
	.cfi_offset 14, -4
	.loc 4 778 0
	movt	r1, #:upper16:.LC29
	movt	r0, #:upper16:.LC36
	ldr	r3, .L972
	movw	r2, #779
	bl	_assert_fail
.LVL701:
.L973:
	.align	2
.L972:
	.word	.LANCHOR4+616
	.cfi_endproc
.LFE803:
	.size	pde_pde_invalid_get_stored_hw_asid.part.89, .-pde_pde_invalid_get_stored_hw_asid.part.89
	.section	.vectors.fastpath_call,"ax",%progbits
	.align	2
	.global	fastpath_call
	.syntax unified
	.arm
	.type	fastpath_call, %function
fastpath_call:
.LFB301:
	.loc 29 215 0
	.cfi_startproc
	@ Volatile: function does not return.
	@ args = 0, pretend = 0, frame = 8
	@ frame_needed = 0, uses_anonymous_args = 0
.LVL702:
	.loc 29 238 0
	movw	r4, #:lower16:ksCurThread
	.loc 29 242 0
	ubfx	r2, r1, #0, #9
	.loc 29 238 0
	movt	r4, #:upper16:ksCurThread
	.loc 29 215 0
	mov	r6, r1
.LVL703:
	.loc 29 238 0
	ldr	r1, [r4]
.LVL704:
	.loc 29 215 0
	push	{r7, lr}
	.cfi_def_cfa_offset 8
	.cfi_offset 7, -8
	.cfi_offset 14, -4
	sub	sp, sp, #8
	.cfi_def_cfa_offset 16
	.loc 29 242 0
	ldr	r3, [r1, #88]
	ands	r3, r3, #7
	movne	r3, #1
	cmp	r2, #4
	orrhi	r3, r3, #1
	cmp	r3, #0
	bne	.L977
	.loc 29 248 0
	ldr	r3, [r1, #84]
	cmp	r3, #0
	beq	.L976
.LVL705:
	.loc 29 248 0 is_stmt 0 discriminator 1
	ldr	r3, [r3]
.LVL706:
	and	r3, r3, #3
	cmp	r3, #2
	beq	.L977
.LVL707:
.L976:
	.loc 29 254 0 is_stmt 1
	bic	r3, r1, #508
	bic	r3, r3, #3
	ldr	r5, [r3]
	ldr	r2, [r3, #4]
.LVL708:
.LBB6297:
.LBB6298:
	.loc 29 69 0
	and	ip, r5, #15
	cmp	ip, #10
	bne	.L977
.LVL709:
.LBB6299:
.LBB6300:
	.loc 4 1496 0
	ubfx	lr, r2, #23, #5
.LVL710:
.L979:
.LBE6300:
.LBE6299:
.LBB6301:
.LBB6302:
	.loc 4 1522 0
	ubfx	r2, r2, #18, #5
.LVL711:
.LBE6302:
.LBE6301:
	.loc 29 78 0
	lsl	ip, r0, lr
.LVL712:
	rsb	r7, r2, #32
	lsr	ip, ip, r7
.LVL713:
	bic	r5, r5, #31
.LVL714:
	.loc 29 81 0
	add	lr, lr, r2
.LVL715:
	.loc 29 78 0
	add	r2, r5, ip, lsl #4
.LVL716:
	.loc 29 80 0
	ldr	r5, [r5, ip, lsl #4]
	.loc 29 82 0
	cmp	lr, #31
	.loc 29 80 0
	ldr	r2, [r2, #4]
.LVL717:
	.loc 29 82 0
	and	ip, r5, #15
.LVL718:
	bls	.L1001
.L978:
.LVL719:
.LBE6298:
.LBE6297:
	.loc 29 257 0
	cmp	ip, #4
	bne	.L977
.LVL720:
	tst	r2, #1
	beq	.L977
.LVL721:
	.loc 29 263 0
	bic	ip, r2, #15
.LVL722:
	.loc 29 270 0
	ldr	lr, [ip]
	ldr	r0, [ip, #4]
.LVL723:
	and	lr, lr, #3
	cmp	lr, #2
	.loc 29 267 0
	bic	r7, r0, #15
.LVL724:
	.loc 29 270 0
	bne	.L977
	.loc 29 275 0
	bic	r0, r0, #508
	bic	r0, r0, #3
	ldr	r8, [r0, #16]
.LVL725:
	.loc 29 283 0
	and	lr, r8, #15
	cmp	lr, #5
	bne	.L977
.LVL726:
	.loc 29 291 0
	ldr	r9, [r7, #108]
	ldr	lr, [r1, #108]
	cmp	r9, lr
	bcc	.L977
	ldr	lr, [r7, #80]
.LVL727:
	ubfx	r2, r2, #2, #1
.LVL728:
	eor	r2, r2, #1
	.loc 29 296 0
	orr	r2, r2, lr
	tst	r2, #1
	bne	.L977
.LBB6304:
.LBB6305:
	.loc 29 90 0
	bic	r8, r8, #31
.LVL729:
.LBE6305:
.LBE6304:
	.loc 29 288 0
	add	r2, r8, #12288
	ldr	r9, [r2, #4032]
.LVL730:
.LBB6306:
.LBB6307:
	.loc 4 792 0
	ands	lr, r9, #3
	bne	.L1002
.LVL731:
.LBE6307:
.LBE6306:
	.loc 29 301 0
	tst	r9, #8388608
	beq	.L977
	.loc 29 317 0
	ldr	r2, [r7, #132]
.LVL732:
.LBB6309:
.LBB6310:
	.loc 29 152 0
	mov	r10, #0
.LBE6310:
.LBE6309:
	.loc 29 318 0
	cmp	r2, #0
.LBB6314:
.LBB6315:
	.loc 29 165 0
	str	r2, [ip, #4]
.LVL733:
.LBE6315:
.LBE6314:
.LBB6316:
.LBB6317:
	.loc 29 159 0
	streq	r2, [ip]
.LBE6317:
.LBE6316:
.LBB6318:
.LBB6319:
	.loc 29 123 0
	mov	ip, #5
.LVL734:
.LBE6319:
.LBE6318:
	.loc 29 319 0
	strne	lr, [r2, #136]
.LVL735:
	.loc 29 334 0
	add	r2, r0, #48
.LBB6321:
.LBB6311:
	.loc 29 151 0
	orr	lr, r1, #8
.LBE6311:
.LBE6321:
.LBB6322:
.LBB6320:
	.loc 29 123 0
	str	ip, [r1, #72]
.LVL736:
.LBE6320:
.LBE6322:
.LBB6323:
.LBB6312:
	.loc 29 151 0
	str	lr, [r0, #48]
.LBE6312:
.LBE6323:
.LBB6324:
.LBB6325:
	.loc 29 144 0
	orr	ip, r2, #1
	.loc 29 145 0
	mov	r0, #8
.LBE6325:
.LBE6324:
.LBB6328:
.LBB6313:
	.loc 29 152 0
	str	r10, [r2, #4]
.LVL737:
.LBE6313:
.LBE6328:
.LBB6329:
.LBB6326:
	.loc 29 144 0
	str	ip, [r3, #36]
.LBE6326:
.LBE6329:
	.loc 29 340 0
	mov	r2, r7
.LVL738:
.LBB6330:
.LBB6327:
	.loc 29 145 0
	str	r0, [r3, #32]
.LVL739:
.LBE6327:
.LBE6330:
	.loc 29 340 0
	and	r0, r6, #127
	bl	fastpath_copy_mrs
.LVL740:
.LBB6331:
.LBB6332:
	.loc 29 123 0
	mov	r3, #1
	str	r3, [r7, #72]
.LVL741:
.LBE6332:
.LBE6331:
.LBB6333:
.LBB6334:
.LBB6335:
.LBB6336:
.LBB6337:
.LBB6338:
	.loc 12 17 0
	.syntax divided
@ 17 "/home/mint/seL4/dhs-demo-feb-2018/kernel/include/arch/arm/armv/armv7-a/armv/machine.h" 1
	dsb
@ 0 "" 2
	.arm
	.syntax unified
.LBE6338:
.LBE6337:
.LBB6339:
.LBB6340:
	.loc 14 135 0
	ldr	r2, .L1003
	mov	r3, #57344
	movt	r3, 65535
	and	r2, r2, r3
	orr	r2, r2, #24
	.syntax divided
@ 135 "/home/mint/seL4/dhs-demo-feb-2018/kernel/include/arch/arm/arch/machine.h" 1
	mcr p15, 0, r2, c2, c0, 0
@ 0 "" 2
	.arm
	.syntax unified
.LBE6340:
.LBE6339:
.LBB6341:
.LBB6342:
	.loc 12 29 0
	.syntax divided
@ 29 "/home/mint/seL4/dhs-demo-feb-2018/kernel/include/arch/arm/armv/armv7-a/armv/machine.h" 1
	isb
@ 0 "" 2
.LVL742:
	.arm
	.syntax unified
.LBE6342:
.LBE6341:
.LBB6343:
.LBB6344:
.LBB6345:
	.loc 14 123 0
	lsr	r9, r9, #24
.LVL743:
	.syntax divided
@ 123 "/home/mint/seL4/dhs-demo-feb-2018/kernel/include/arch/arm/arch/machine.h" 1
	mcr p15, 0, r9, c13, c0, 1
@ 0 "" 2
	.arm
	.syntax unified
.LBB6346:
.LBB6347:
	.loc 12 29 0
	.syntax divided
@ 29 "/home/mint/seL4/dhs-demo-feb-2018/kernel/include/arch/arm/armv/armv7-a/armv/machine.h" 1
	isb
@ 0 "" 2
.LVL744:
	.arm
	.syntax unified
.LBE6347:
.LBE6346:
.LBE6345:
.LBE6344:
.LBE6343:
.LBB6348:
.LBB6349:
	.loc 14 135 0
	add	r8, r8, #805306368
.LVL745:
	and	r3, r3, r8
	orr	r3, r3, #24
	.syntax divided
@ 135 "/home/mint/seL4/dhs-demo-feb-2018/kernel/include/arch/arm/arch/machine.h" 1
	mcr p15, 0, r3, c2, c0, 0
@ 0 "" 2
	.arm
	.syntax unified
.LBE6349:
.LBE6348:
.LBB6350:
.LBB6351:
	.loc 12 29 0
	.syntax divided
@ 29 "/home/mint/seL4/dhs-demo-feb-2018/kernel/include/arch/arm/armv/armv7-a/armv/machine.h" 1
	isb
@ 0 "" 2
.LVL746:
	.arm
	.syntax unified
.LBE6351:
.LBE6350:
.LBE6336:
.LBE6335:
	.loc 29 115 0
	ldr	r1, [r7, #120]
	movw	r3, #:lower16:.LANCHOR0
	movt	r3, #:upper16:.LANCHOR0
	.loc 29 116 0
	str	r7, [r4]
.LVL747:
.LBB6352:
.LBB6353:
	.loc 29 99 0
	add	r2, sp, #4
.LBE6353:
.LBE6352:
	.loc 29 115 0
	str	r1, [r3]
.LBB6355:
.LBB6354:
	.loc 29 99 0
	.syntax divided
@ 99 "/home/mint/seL4/dhs-demo-feb-2018/kernel/src/arch/arm/fastpath/fastpath.c" 1
	strex r10, r2, [r2]
@ 0 "" 2
.LVL748:
	.arm
	.syntax unified
.LBE6354:
.LBE6355:
.LBE6334:
.LBE6333:
.LBB6356:
.LBB6357:
	.loc 29 37 0
	lsr	r0, r5, #4
.LVL749:
	.loc 29 38 0
	bic	r1, r6, #3584
	.loc 29 39 0
	.syntax divided
@ 39 "/home/mint/seL4/dhs-demo-feb-2018/kernel/src/arch/arm/fastpath/fastpath.c" 1
	add sp, r7, #60
	ldmdb sp, {r2-lr}^
	rfeia sp
	
@ 0 "" 2
.LVL750:
	.arm
	.syntax unified
.L983:
	b	.L983
.LVL751:
.L977:
.LBE6357:
.LBE6356:
	.loc 29 244 0
	mvn	r0, #0
	bl	slowpath
.LVL752:
.L1001:
.LBB6358:
.LBB6303:
	.loc 29 82 0
	cmp	ip, #10
	beq	.L979
	b	.L978
.LVL753:
.L1002:
.LBE6303:
.LBE6358:
.LBB6359:
.LBB6308:
	bl	pde_pde_invalid_get_stored_asid_valid.part.84
.LVL754:
.L1004:
	.align	2
.L1003:
	.word	.LANCHOR1+805306384
.LBE6308:
.LBE6359:
	.cfi_endproc
.LFE301:
	.size	fastpath_call, .-fastpath_call
	.section	.vectors.fastpath_reply_wait,"ax",%progbits
	.align	2
	.global	fastpath_reply_wait
	.syntax unified
	.arm
	.type	fastpath_reply_wait, %function
fastpath_reply_wait:
.LFB302:
	.loc 29 353 0
	.cfi_startproc
	@ Volatile: function does not return.
	@ args = 0, pretend = 0, frame = 8
	@ frame_needed = 0, uses_anonymous_args = 0
.LVL755:
	.loc 29 379 0
	movw	r4, #:lower16:ksCurThread
	.loc 29 383 0
	ubfx	r2, r1, #0, #9
	.loc 29 379 0
	movt	r4, #:upper16:ksCurThread
	.loc 29 353 0
	mov	r5, r1
.LVL756:
	.loc 29 379 0
	ldr	r1, [r4]
.LVL757:
	.loc 29 353 0
	push	{r7, lr}
	.cfi_def_cfa_offset 8
	.cfi_offset 7, -8
	.cfi_offset 14, -4
	sub	sp, sp, #8
	.cfi_def_cfa_offset 16
	.loc 29 383 0
	ldr	r3, [r1, #88]
	ands	r3, r3, #7
	movne	r3, #1
	cmp	r2, #4
	orrhi	r3, r3, #1
	cmp	r3, #0
	bne	.L1007
	.loc 29 389 0
	bic	r3, r1, #508
	bic	r3, r3, #3
	ldr	ip, [r3]
	ldr	r2, [r3, #4]
.LVL758:
.LBB6447:
.LBB6448:
	.loc 29 69 0
	and	lr, ip, #15
	cmp	lr, #10
	bne	.L1007
.LVL759:
.LBB6449:
.LBB6450:
	.loc 4 1496 0
	ubfx	r6, r2, #23, #5
.LVL760:
.L1009:
.LBE6450:
.LBE6449:
.LBB6451:
.LBB6452:
	.loc 4 1522 0
	ubfx	r2, r2, #18, #5
.LVL761:
.LBE6452:
.LBE6451:
	.loc 29 78 0
	lsl	lr, r0, r6
.LVL762:
	rsb	r7, r2, #32
	lsr	lr, lr, r7
.LVL763:
	bic	ip, ip, #31
	.loc 29 81 0
	add	r6, r6, r2
.LVL764:
	.loc 29 78 0
	add	r2, ip, lr, lsl #4
.LVL765:
	.loc 29 80 0
	ldr	ip, [ip, lr, lsl #4]
	.loc 29 82 0
	cmp	r6, #31
	.loc 29 80 0
	ldr	r2, [r2, #4]
.LVL766:
	.loc 29 82 0
	and	lr, ip, #15
.LVL767:
	bls	.L1039
.L1008:
.LVL768:
.LBE6448:
.LBE6447:
	.loc 29 393 0
	cmp	lr, #4
	bne	.L1007
.LVL769:
	tst	r2, #2
	beq	.L1007
	.loc 29 399 0
	ldr	r0, [r1, #84]
.LVL770:
	cmp	r0, #0
	beq	.L1010
.LVL771:
	.loc 29 399 0 is_stmt 0 discriminator 1
	ldr	r0, [r0]
.LVL772:
	and	r0, r0, #3
	cmp	r0, #2
	beq	.L1007
.LVL773:
.L1010:
.LBB6454:
.LBB6455:
	.loc 4 1137 0 is_stmt 1
	bic	lr, r2, #15
.LVL774:
.LBE6455:
.LBE6454:
	.loc 29 406 0
	add	ip, r3, #48
.LVL775:
	.loc 29 410 0
	ldr	r6, [lr]
	.loc 29 407 0
	ldr	r0, [r3, #48]
.LVL776:
	.loc 29 410 0
	and	r6, r6, #3
	cmp	r6, #1
	beq	.L1007
	.loc 29 415 0
	cmp	r0, #0
	beq	.L1007
.LVL777:
.LBB6456:
.LBB6457:
	.loc 4 1453 0
	and	r6, r0, #15
	cmp	r6, #8
	beq	.L1011
	bl	cap_reply_cap_get_capTCBPtr.isra.69.part.70
.LVL778:
.L1007:
.LBE6457:
.LBE6456:
	.loc 29 385 0
	mvn	r0, #1
	bl	slowpath
.LVL779:
.L1039:
.LBB6458:
.LBB6453:
	.loc 29 82 0
	cmp	lr, #10
	beq	.L1009
	b	.L1008
.LVL780:
.L1011:
.LBE6453:
.LBE6458:
	.loc 29 420 0
	bic	r6, r0, #31
.LVL781:
	.loc 29 423 0
	bic	r0, r0, #508
.LVL782:
	.loc 29 434 0
	ldr	r8, [r6, #88]
	.loc 29 423 0
	bic	r0, r0, #3
.LVL783:
	.loc 29 426 0
	ldr	r7, [r0, #16]
.LVL784:
	.loc 29 434 0
	tst	r8, #7
.LBB6459:
.LBB6460:
	.loc 29 90 0
	bic	r9, r7, #31
.LVL785:
.LBE6460:
.LBE6459:
	.loc 29 434 0
	bne	.L1007
	.loc 29 439 0
	and	r7, r7, #15
.LVL786:
	cmp	r7, #5
	bne	.L1007
.LVL787:
	.loc 29 447 0
	ldr	r8, [r6, #108]
	ldr	r7, [r1, #108]
	cmp	r8, r7
	bcc	.L1007
	.loc 29 444 0
	add	r7, r9, #12288
	ldr	r8, [r7, #4032]
.LVL788:
.LBB6461:
.LBB6462:
	.loc 4 792 0
	tst	r8, #3
	bne	.L1040
.LVL789:
.LBE6462:
.LBE6461:
	.loc 29 452 0
	tst	r8, #8388608
	beq	.L1007
.LVL790:
	and	r2, r2, #1
.LVL791:
.LBB6464:
.LBB6465:
	.loc 29 131 0
	orr	r7, lr, #3
	eor	r2, r2, #1
	str	r7, [r1, #72]
.LVL792:
.LBE6465:
.LBE6464:
.LBB6466:
.LBB6467:
	.loc 29 137 0
	str	r2, [r1, #80]
.LVL793:
.LBE6467:
.LBE6466:
	.loc 29 490 0
	mov	r7, #0
.LBB6468:
.LBB6469:
	.loc 4 384 0
	ldr	r2, [lr]
.LVL794:
.LBE6469:
.LBE6468:
.LBB6470:
.LBB6471:
	.loc 29 144 0
	mov	r10, #1
.LBE6471:
.LBE6470:
	.loc 29 475 0
	bics	r2, r2, #15
.LVL795:
	.loc 29 482 0
	strne	r1, [r2, #132]
	.loc 29 476 0
	streq	r2, [r1, #136]
.LVL796:
	.loc 29 483 0
	strne	r2, [r1, #136]
.LBB6474:
.LBB6475:
	.loc 29 159 0
	orr	r2, r1, #2
.LVL797:
	str	r2, [lr]
.LVL798:
.LBE6475:
.LBE6474:
.LBB6476:
.LBB6472:
	.loc 29 145 0
	mov	r2, #8
.LBE6472:
.LBE6476:
.LBB6477:
.LBB6478:
	.loc 29 165 0
	streq	r1, [lr, #4]
.LBE6478:
.LBE6477:
	.loc 29 490 0
	str	r7, [r1, #132]
.LVL799:
.LBB6479:
.LBB6473:
	.loc 29 144 0
	str	r10, [r0, #36]
	.loc 29 145 0
	str	r2, [r0, #32]
.LVL800:
.LBE6473:
.LBE6479:
	.loc 29 501 0
	mov	r2, r6
	.loc 29 494 0
	str	r7, [r3, #48]
	.loc 29 501 0
	and	r0, r5, #127
.LVL801:
	.loc 29 494 0
	str	r7, [ip, #4]
.LVL802:
	.loc 29 501 0
	bl	fastpath_copy_mrs
.LVL803:
.LBB6480:
.LBB6481:
	.loc 29 123 0
	str	r10, [r6, #72]
.LVL804:
.LBE6481:
.LBE6480:
.LBB6482:
.LBB6483:
.LBB6484:
.LBB6485:
.LBB6486:
.LBB6487:
	.loc 12 17 0
	.syntax divided
@ 17 "/home/mint/seL4/dhs-demo-feb-2018/kernel/include/arch/arm/armv/armv7-a/armv/machine.h" 1
	dsb
@ 0 "" 2
	.arm
	.syntax unified
.LBE6487:
.LBE6486:
.LBB6488:
.LBB6489:
	.loc 14 135 0
	ldr	r2, .L1041
	mov	r3, #57344
	movt	r3, 65535
	and	r2, r2, r3
	orr	r2, r2, #24
	.syntax divided
@ 135 "/home/mint/seL4/dhs-demo-feb-2018/kernel/include/arch/arm/arch/machine.h" 1
	mcr p15, 0, r2, c2, c0, 0
@ 0 "" 2
	.arm
	.syntax unified
.LBE6489:
.LBE6488:
.LBB6490:
.LBB6491:
	.loc 12 29 0
	.syntax divided
@ 29 "/home/mint/seL4/dhs-demo-feb-2018/kernel/include/arch/arm/armv/armv7-a/armv/machine.h" 1
	isb
@ 0 "" 2
.LVL805:
	.arm
	.syntax unified
.LBE6491:
.LBE6490:
.LBB6492:
.LBB6493:
.LBB6494:
	.loc 14 123 0
	lsr	r8, r8, #24
.LVL806:
	.syntax divided
@ 123 "/home/mint/seL4/dhs-demo-feb-2018/kernel/include/arch/arm/arch/machine.h" 1
	mcr p15, 0, r8, c13, c0, 1
@ 0 "" 2
	.arm
	.syntax unified
.LBB6495:
.LBB6496:
	.loc 12 29 0
	.syntax divided
@ 29 "/home/mint/seL4/dhs-demo-feb-2018/kernel/include/arch/arm/armv/armv7-a/armv/machine.h" 1
	isb
@ 0 "" 2
.LVL807:
	.arm
	.syntax unified
.LBE6496:
.LBE6495:
.LBE6494:
.LBE6493:
.LBE6492:
.LBB6497:
.LBB6498:
	.loc 14 135 0
	add	r9, r9, #805306368
.LVL808:
	and	r3, r3, r9
	orr	r3, r3, #24
	.syntax divided
@ 135 "/home/mint/seL4/dhs-demo-feb-2018/kernel/include/arch/arm/arch/machine.h" 1
	mcr p15, 0, r3, c2, c0, 0
@ 0 "" 2
	.arm
	.syntax unified
.LBE6498:
.LBE6497:
.LBB6499:
.LBB6500:
	.loc 12 29 0
	.syntax divided
@ 29 "/home/mint/seL4/dhs-demo-feb-2018/kernel/include/arch/arm/armv/armv7-a/armv/machine.h" 1
	isb
@ 0 "" 2
.LVL809:
	.arm
	.syntax unified
.LBE6500:
.LBE6499:
.LBE6485:
.LBE6484:
	.loc 29 115 0
	ldr	r0, [r6, #120]
	movw	r3, #:lower16:.LANCHOR0
	movt	r3, #:upper16:.LANCHOR0
	.loc 29 116 0
	str	r6, [r4]
.LVL810:
.LBB6501:
.LBB6502:
	.loc 29 99 0
	add	r1, sp, #4
	mov	r2, r7
.LBE6502:
.LBE6501:
	.loc 29 115 0
	str	r0, [r3]
.LBB6504:
.LBB6503:
	.loc 29 99 0
	.syntax divided
@ 99 "/home/mint/seL4/dhs-demo-feb-2018/kernel/src/arch/arm/fastpath/fastpath.c" 1
	strex r2, r1, [r1]
@ 0 "" 2
.LVL811:
	.arm
	.syntax unified
.LBE6503:
.LBE6504:
.LBE6483:
.LBE6482:
.LBB6505:
.LBB6506:
	.loc 29 37 0
	mov	r0, r7
	.loc 29 38 0
	bic	r1, r5, #3584
	.loc 29 39 0
	.syntax divided
@ 39 "/home/mint/seL4/dhs-demo-feb-2018/kernel/src/arch/arm/fastpath/fastpath.c" 1
	add sp, r6, #60
	ldmdb sp, {r2-lr}^
	rfeia sp
	
@ 0 "" 2
	.arm
	.syntax unified
.L1015:
	b	.L1015
.LVL812:
.L1040:
.LBE6506:
.LBE6505:
.LBB6507:
.LBB6463:
	bl	pde_pde_invalid_get_stored_asid_valid.part.84
.LVL813:
.L1042:
	.align	2
.L1041:
	.word	.LANCHOR1+805306384
.LBE6463:
.LBE6507:
	.cfi_endproc
.LFE302:
	.size	fastpath_reply_wait, .-fastpath_reply_wait
	.section	.text.unlikely
	.align	2
	.syntax unified
	.arm
	.type	cap_frame_cap_new.part.90, %function
cap_frame_cap_new.part.90:
.LFB804:
	.loc 4 1588 0
	.cfi_startproc
	@ Volatile: function does not return.
	@ args = 0, pretend = 0, frame = 0
	@ frame_needed = 0, uses_anonymous_args = 0
.LVL814:
	.loc 4 1595 0
	movw	r1, #:lower16:.LC29
	movw	r0, #:lower16:.LC39
	.loc 4 1588 0
	push	{r4, lr}
	.cfi_def_cfa_offset 8
	.cfi_offset 4, -8
	.cfi_offset 14, -4
	.loc 4 1595 0
	movt	r1, #:upper16:.LC29
	movt	r0, #:upper16:.LC39
	ldr	r3, .L1045
	movw	r2, #1595
	bl	_assert_fail
.LVL815:
.L1046:
	.align	2
.L1045:
	.word	.LANCHOR4+652
	.cfi_endproc
.LFE804:
	.size	cap_frame_cap_new.part.90, .-cap_frame_cap_new.part.90
	.align	2
	.syntax unified
	.arm
	.type	cap_page_directory_cap_get_capPDBasePtr.isra.91.part.92, %function
cap_page_directory_cap_get_capPDBasePtr.isra.91.part.92:
.LFB806:
	.loc 4 1884 0
	.cfi_startproc
	@ Volatile: function does not return.
	@ args = 0, pretend = 0, frame = 0
	@ frame_needed = 0, uses_anonymous_args = 0
	.loc 4 1886 0
	movw	r1, #:lower16:.LC29
	movw	r0, #:lower16:.LC40
	.loc 4 1884 0
	push	{r4, lr}
	.cfi_def_cfa_offset 8
	.cfi_offset 4, -8
	.cfi_offset 14, -4
	.loc 4 1886 0
	movt	r1, #:upper16:.LC29
	movt	r0, #:upper16:.LC40
	ldr	r3, .L1049
	movw	r2, #1887
	bl	_assert_fail
.LVL816:
.L1050:
	.align	2
.L1049:
	.word	.LANCHOR4+672
	.cfi_endproc
.LFE806:
	.size	cap_page_directory_cap_get_capPDBasePtr.isra.91.part.92, .-cap_page_directory_cap_get_capPDBasePtr.isra.91.part.92
	.align	2
	.syntax unified
	.arm
	.type	pde_pde_coarse_get_address.part.93, %function
pde_pde_coarse_get_address.part.93:
.LFB807:
	.loc 4 826 0
	.cfi_startproc
	@ Volatile: function does not return.
	@ args = 0, pretend = 0, frame = 0
	@ frame_needed = 0, uses_anonymous_args = 0
	.loc 4 828 0
	movw	r1, #:lower16:.LC29
	movw	r0, #:lower16:.LC41
	.loc 4 826 0
	push	{r4, lr}
	.cfi_def_cfa_offset 8
	.cfi_offset 4, -8
	.cfi_offset 14, -4
	.loc 4 828 0
	movt	r1, #:upper16:.LC29
	movt	r0, #:upper16:.LC41
	ldr	r3, .L1053
	movw	r2, #829
	bl	_assert_fail
.LVL817:
.L1054:
	.align	2
.L1053:
	.word	.LANCHOR4+712
	.cfi_endproc
.LFE807:
	.size	pde_pde_coarse_get_address.part.93, .-pde_pde_coarse_get_address.part.93
	.align	2
	.syntax unified
	.arm
	.type	cap_untyped_cap_get_capPtr.isra.94.part.95, %function
cap_untyped_cap_get_capPtr.isra.94.part.95:
.LFB809:
	.loc 4 1089 0
	.cfi_startproc
	@ Volatile: function does not return.
	@ args = 0, pretend = 0, frame = 0
	@ frame_needed = 0, uses_anonymous_args = 0
	.loc 4 1091 0
	movw	r1, #:lower16:.LC29
	movw	r0, #:lower16:.LC42
	.loc 4 1089 0
	push	{r4, lr}
	.cfi_def_cfa_offset 8
	.cfi_offset 4, -8
	.cfi_offset 14, -4
	.loc 4 1091 0
	movt	r1, #:upper16:.LC29
	movt	r0, #:upper16:.LC42
	ldr	r3, .L1057
	movw	r2, #1092
	bl	_assert_fail
.LVL818:
.L1058:
	.align	2
.L1057:
	.word	.LANCHOR4+740
	.cfi_endproc
.LFE809:
	.size	cap_untyped_cap_get_capPtr.isra.94.part.95, .-cap_untyped_cap_get_capPtr.isra.94.part.95
	.align	2
	.syntax unified
	.arm
	.type	cap_zombie_cap_get_capZombieType.isra.96.part.97, %function
cap_zombie_cap_get_capZombieType.isra.96.part.97:
.LFB811:
	.loc 4 1987 0
	.cfi_startproc
	@ Volatile: function does not return.
	@ args = 0, pretend = 0, frame = 0
	@ frame_needed = 0, uses_anonymous_args = 0
	.loc 4 1989 0
	movw	r1, #:lower16:.LC29
	movw	r0, #:lower16:.LC43
	.loc 4 1987 0
	push	{r4, lr}
	.cfi_def_cfa_offset 8
	.cfi_offset 4, -8
	.cfi_offset 14, -4
	.loc 4 1989 0
	movt	r1, #:upper16:.LC29
	movt	r0, #:upper16:.LC43
	ldr	r3, .L1061
	movw	r2, #1990
	bl	_assert_fail
.LVL819:
.L1062:
	.align	2
.L1061:
	.word	.LANCHOR4+768
	.cfi_endproc
.LFE811:
	.size	cap_zombie_cap_get_capZombieType.isra.96.part.97, .-cap_zombie_cap_get_capZombieType.isra.96.part.97
	.align	2
	.syntax unified
	.arm
	.type	cap_zombie_cap_get_capZombieID.part.99, %function
cap_zombie_cap_get_capZombieID.part.99:
.LFB813:
	.loc 4 1961 0
	.cfi_startproc
	@ Volatile: function does not return.
	@ args = 0, pretend = 0, frame = 0
	@ frame_needed = 0, uses_anonymous_args = 0
	.loc 4 1963 0
	movw	r1, #:lower16:.LC29
	movw	r0, #:lower16:.LC43
	.loc 4 1961 0
	push	{r4, lr}
	.cfi_def_cfa_offset 8
	.cfi_offset 4, -8
	.cfi_offset 14, -4
	.loc 4 1963 0
	movt	r1, #:upper16:.LC29
	movt	r0, #:upper16:.LC43
	ldr	r3, .L1065
	movw	r2, #1964
	bl	_assert_fail
.LVL820:
.L1066:
	.align	2
.L1065:
	.word	.LANCHOR4+804
	.cfi_endproc
.LFE813:
	.size	cap_zombie_cap_get_capZombieID.part.99, .-cap_zombie_cap_get_capZombieID.part.99
	.text
	.align	2
	.syntax unified
	.arm
	.type	cap_zombie_cap_get_capZombiePtr, %function
cap_zombie_cap_get_capZombiePtr:
.LFB189:
	.file 30 "/home/mint/seL4/dhs-demo-feb-2018/kernel/include/object/structures.h"
	.loc 30 121 0
	.cfi_startproc
	@ args = 0, pretend = 0, frame = 8
	@ frame_needed = 0, uses_anonymous_args = 0
	str	lr, [sp, #-4]!
	.cfi_def_cfa_offset 4
	.cfi_offset 14, -4
	sub	sp, sp, #12
	.cfi_def_cfa_offset 16
	.loc 30 121 0
	add	r3, sp, #8
	stmdb	r3, {r0, r1}
	ldr	r3, [sp]
.LVL821:
.LBB6514:
.LBB6515:
.LBB6516:
.LBB6517:
	.loc 4 1989 0
	uxtb	r2, r3
	cmp	r2, #46
	bne	.L1072
	.loc 4 1992 0
	ubfx	r3, r3, #8, #6
.LVL822:
.LBE6517:
.LBE6516:
	.loc 30 106 0
	cmp	r3, #32
	andne	r3, r3, #31
	mvnne	r0, #0
	addne	r3, r3, #1
	mvneq	r3, #31
	lslne	r3, r0, r3
.LBE6515:
.LBE6514:
	.loc 30 123 0
	ldr	r0, [sp, #4]
	.loc 30 124 0
	and	r0, r0, r3
	add	sp, sp, #12
	.cfi_remember_state
	.cfi_def_cfa_offset 4
	@ sp needed
	ldr	pc, [sp], #4
.LVL823:
.L1072:
	.cfi_restore_state
.LBB6521:
.LBB6520:
.LBB6519:
.LBB6518:
	bl	cap_zombie_cap_get_capZombieType.isra.96.part.97
.LVL824:
.LBE6518:
.LBE6519:
.LBE6520:
.LBE6521:
	.cfi_endproc
.LFE189:
	.size	cap_zombie_cap_get_capZombiePtr, .-cap_zombie_cap_get_capZombiePtr
	.align	2
	.syntax unified
	.arm
	.type	cap_frame_cap_get_capFBasePtr.isra.101.part.102, %function
cap_frame_cap_get_capFBasePtr.isra.101.part.102:
.LFB816:
	.loc 4 1764 0
	.cfi_startproc
	@ Volatile: function does not return.
	@ args = 0, pretend = 0, frame = 0
	@ frame_needed = 0, uses_anonymous_args = 0
	.loc 4 1766 0
	movw	r1, #:lower16:.LC29
	movw	r0, #:lower16:.LC44
	.loc 4 1764 0
	push	{r4, lr}
	.cfi_def_cfa_offset 8
	.cfi_offset 4, -8
	.cfi_offset 14, -4
	.loc 4 1766 0
	movt	r1, #:upper16:.LC29
	movt	r0, #:upper16:.LC44
	ldr	r3, .L1075
	movw	r2, #1767
	bl	_assert_fail
.LVL825:
.L1076:
	.align	2
.L1075:
	.word	.LANCHOR4+836
	.cfi_endproc
.LFE816:
	.size	cap_frame_cap_get_capFBasePtr.isra.101.part.102, .-cap_frame_cap_get_capFBasePtr.isra.101.part.102
	.align	2
	.syntax unified
	.arm
	.type	cap_page_table_cap_get_capPTBasePtr.isra.103.part.104, %function
cap_page_table_cap_get_capPTBasePtr.isra.103.part.104:
.LFB818:
	.loc 4 1853 0
	.cfi_startproc
	@ Volatile: function does not return.
	@ args = 0, pretend = 0, frame = 0
	@ frame_needed = 0, uses_anonymous_args = 0
	.loc 4 1855 0
	movw	r1, #:lower16:.LC29
	movw	r0, #:lower16:.LC45
	.loc 4 1853 0
	push	{r4, lr}
	.cfi_def_cfa_offset 8
	.cfi_offset 4, -8
	.cfi_offset 14, -4
	.loc 4 1855 0
	movt	r1, #:upper16:.LC29
	movt	r0, #:upper16:.LC45
	ldr	r3, .L1079
	mov	r2, #1856
	bl	_assert_fail
.LVL826:
.L1080:
	.align	2
.L1079:
	.word	.LANCHOR4+868
	.cfi_endproc
.LFE818:
	.size	cap_page_table_cap_get_capPTBasePtr.isra.103.part.104, .-cap_page_table_cap_get_capPTBasePtr.isra.103.part.104
	.align	2
	.syntax unified
	.arm
	.type	cap_get_capPtr, %function
cap_get_capPtr:
.LFB210:
	.loc 30 346 0
	.cfi_startproc
	@ args = 0, pretend = 0, frame = 8
	@ frame_needed = 0, uses_anonymous_args = 0
.LBB6544:
.LBB6545:
	.loc 4 997 0
	and	r2, r0, #14
.LBE6545:
.LBE6544:
	.loc 30 346 0
	str	lr, [sp, #-4]!
	.cfi_def_cfa_offset 4
	.cfi_offset 14, -4
.LBB6549:
.LBB6546:
	.loc 4 997 0
	cmp	r2, #14
.LBE6546:
.LBE6549:
	.loc 30 346 0
	sub	sp, sp, #12
	.cfi_def_cfa_offset 16
	.loc 30 346 0
	stm	sp, {r0, r1}
.LVL827:
.LBB6550:
.LBB6547:
	.loc 4 997 0
	beq	.L1082
	.loc 4 998 0
	and	r2, r0, #15
.LBE6547:
.LBE6550:
	.loc 30 351 0
	sub	r3, r2, #2
	cmp	r3, #12
	ldrls	pc, [pc, r3, asl #2]
	b	.L1083
.L1085:
	.word	.L1087
	.word	.L1083
	.word	.L1086
	.word	.L1083
	.word	.L1087
	.word	.L1083
	.word	.L1111
	.word	.L1083
	.word	.L1089
	.word	.L1083
	.word	.L1090
	.word	.L1083
	.word	.L1111
.L1086:
.LVL828:
	ldr	r0, [sp, #4]
.LVL829:
.L1087:
	.loc 30 359 0
	bic	r0, r0, #15
.L1115:
	.loc 30 385 0
	add	sp, sp, #12
	.cfi_remember_state
	.cfi_def_cfa_offset 4
	@ sp needed
	ldr	pc, [sp], #4
.L1082:
	.cfi_restore_state
.LBB6551:
.LBB6548:
	.loc 4 999 0
	uxtb	r2, r0
.LBE6548:
.LBE6551:
	.loc 30 351 0
	sub	r1, r2, #2
	cmp	r1, #60
	ldrls	pc, [pc, r1, asl #2]
	b	.L1083
.L1092:
	.word	.L1091
	.word	.L1083
	.word	.L1093
	.word	.L1083
	.word	.L1094
	.word	.L1083
	.word	.L1111
	.word	.L1083
	.word	.L1095
	.word	.L1083
	.word	.L1096
	.word	.L1083
	.word	.L1111
	.word	.L1083
	.word	.L1083
	.word	.L1083
	.word	.L1083
	.word	.L1083
	.word	.L1083
	.word	.L1083
	.word	.L1083
	.word	.L1083
	.word	.L1083
	.word	.L1083
	.word	.L1083
	.word	.L1083
	.word	.L1083
	.word	.L1083
	.word	.L1111
	.word	.L1083
	.word	.L1083
	.word	.L1083
	.word	.L1083
	.word	.L1083
	.word	.L1083
	.word	.L1083
	.word	.L1083
	.word	.L1083
	.word	.L1083
	.word	.L1083
	.word	.L1083
	.word	.L1083
	.word	.L1083
	.word	.L1083
	.word	.L1097
	.word	.L1083
	.word	.L1083
	.word	.L1083
	.word	.L1083
	.word	.L1083
	.word	.L1083
	.word	.L1083
	.word	.L1083
	.word	.L1083
	.word	.L1083
	.word	.L1083
	.word	.L1083
	.word	.L1083
	.word	.L1083
	.word	.L1083
	.word	.L1111
.L1111:
	.loc 30 371 0
	mov	r0, #0
	.loc 30 385 0
	add	sp, sp, #12
	.cfi_remember_state
	.cfi_def_cfa_offset 4
	@ sp needed
	ldr	pc, [sp], #4
.L1090:
	.cfi_restore_state
	.loc 30 365 0
	bic	r0, r0, #508
	bic	r0, r0, #3
	.loc 30 385 0
	add	sp, sp, #12
	.cfi_remember_state
	.cfi_def_cfa_offset 4
	@ sp needed
	ldr	pc, [sp], #4
.L1089:
	.cfi_restore_state
	.loc 30 362 0
	bic	r0, r0, #31
	.loc 30 385 0
	add	sp, sp, #12
	.cfi_remember_state
	.cfi_def_cfa_offset 4
	@ sp needed
	ldr	pc, [sp], #4
.L1083:
	.cfi_restore_state
.LBB6552:
.LBB6553:
	.file 31 "/home/mint/seL4/dhs-demo-feb-2018/kernel/include/arch/arm/arch/object/structures.h"
	.loc 31 139 0
	cmp	r2, #3
	beq	.L1104
	cmp	r2, #5
	beq	.L1105
	cmp	r2, #1
	beq	.L1122
	.loc 31 153 0
	movw	r1, #:lower16:.LC46
	movw	r0, #:lower16:.LC47
	movt	r1, #:upper16:.LC46
	movt	r0, #:upper16:.LC47
	ldr	r3, .L1123
	mov	r2, #153
	bl	_assert_fail
.LVL830:
.L1097:
.LBE6553:
.LBE6552:
	.loc 30 368 0
	ldm	sp, {r0, r1}
	.loc 30 385 0
	add	sp, sp, #12
	.cfi_remember_state
	.cfi_def_cfa_offset 4
	@ sp needed
	ldr	lr, [sp], #4
	.cfi_restore 14
	.cfi_def_cfa_offset 0
	.loc 30 368 0
	b	cap_zombie_cap_get_capZombiePtr
.LVL831:
.L1091:
	.cfi_restore_state
.LBB6567:
.LBB6568:
	.loc 4 1091 0
	and	r3, r0, #15
	cmp	r3, #2
	beq	.L1087
	bl	cap_untyped_cap_get_capPtr.isra.94.part.95
.LVL832:
.L1093:
.LBE6568:
.LBE6567:
.LBB6569:
.LBB6570:
	.loc 4 1134 0
	and	r3, r0, #15
	ldr	r0, [sp, #4]
.LVL833:
	cmp	r3, #4
	beq	.L1087
	bl	cap_endpoint_cap_get_capEPPtr.part.82
.LVL834:
.L1094:
.LBE6570:
.LBE6569:
.LBB6571:
.LBB6572:
	.loc 4 1356 0
	and	r3, r0, #15
	cmp	r3, #6
	beq	.L1087
	bl	cap_async_endpoint_cap_get_capAEPPtr.isra.72.part.73
.LVL835:
.L1095:
.LBE6572:
.LBE6571:
.LBB6573:
.LBB6574:
	.loc 4 1545 0
	and	r3, r0, #15
	cmp	r3, #10
	beq	.L1089
	bl	cap_cnode_cap_get_capCNodePtr.isra.79.part.80
.LVL836:
.L1096:
.LBE6574:
.LBE6573:
.LBB6575:
.LBB6576:
	.loc 4 1576 0
	and	r3, r0, #15
	cmp	r3, #12
	beq	.L1090
	bl	cap_thread_cap_get_capTCBPtr.isra.64.part.65
.LVL837:
.L1122:
.LBE6576:
.LBE6575:
.LBB6577:
.LBB6566:
.LBB6554:
.LBB6555:
	.loc 4 1766 0
	and	r3, r0, #15
	cmp	r3, #1
.LBE6555:
.LBE6554:
	.loc 31 142 0
	biceq	r0, r0, #-16777216
	biceq	r0, r0, #15
	lsleq	r0, r0, #8
.LBB6557:
.LBB6556:
	.loc 4 1766 0
	beq	.L1115
	bl	cap_frame_cap_get_capFBasePtr.isra.101.part.102
.LVL838:
.L1104:
.LBE6556:
.LBE6557:
.LBB6558:
.LBB6559:
	.loc 4 1855 0
	and	r3, r0, #15
	cmp	r3, #3
.LBE6559:
.LBE6558:
	.loc 31 145 0
	biceq	r0, r0, #1020
	biceq	r0, r0, #3
.LBB6561:
.LBB6560:
	.loc 4 1855 0
	beq	.L1115
	bl	cap_page_table_cap_get_capPTBasePtr.isra.103.part.104
.LVL839:
.L1105:
.LBE6560:
.LBE6561:
.LBB6562:
.LBB6563:
	.loc 4 1886 0
	and	r3, r0, #15
	cmp	r3, #5
.LBE6563:
.LBE6562:
	.loc 31 148 0
	biceq	r0, r0, #16320
	biceq	r0, r0, #63
.LBB6565:
.LBB6564:
	.loc 4 1886 0
	beq	.L1115
	bl	cap_page_directory_cap_get_capPDBasePtr.isra.91.part.92
.LVL840:
.L1124:
	.align	2
.L1123:
	.word	.LANCHOR4+904
.LBE6564:
.LBE6565:
.LBE6566:
.LBE6577:
	.cfi_endproc
.LFE210:
	.size	cap_get_capPtr, .-cap_get_capPtr
	.section	.text.unlikely
	.align	2
	.syntax unified
	.arm
	.type	cap_page_directory_cap_new.part.106, %function
cap_page_directory_cap_new.part.106:
.LFB820:
	.loc 4 1867 0
	.cfi_startproc
	@ Volatile: function does not return.
	@ args = 0, pretend = 0, frame = 0
	@ frame_needed = 0, uses_anonymous_args = 0
.LVL841:
	.loc 4 1874 0
	movw	r1, #:lower16:.LC29
	movw	r0, #:lower16:.LC48
	.loc 4 1867 0
	push	{r4, lr}
	.cfi_def_cfa_offset 8
	.cfi_offset 4, -8
	.cfi_offset 14, -4
	.loc 4 1874 0
	movt	r1, #:upper16:.LC29
	movt	r0, #:upper16:.LC48
	ldr	r3, .L1127
	movw	r2, #1874
	bl	_assert_fail
.LVL842:
.L1128:
	.align	2
.L1127:
	.word	.LANCHOR4+924
	.cfi_endproc
.LFE820:
	.size	cap_page_directory_cap_new.part.106, .-cap_page_directory_cap_new.part.106
	.align	2
	.syntax unified
	.arm
	.type	cap_page_table_cap_new.part.107, %function
cap_page_table_cap_new.part.107:
.LFB821:
	.loc 4 1778 0
	.cfi_startproc
	@ Volatile: function does not return.
	@ args = 0, pretend = 0, frame = 0
	@ frame_needed = 0, uses_anonymous_args = 0
.LVL843:
	.loc 4 1785 0
	movw	r1, #:lower16:.LC29
	movw	r0, #:lower16:.LC49
	.loc 4 1778 0
	push	{r4, lr}
	.cfi_def_cfa_offset 8
	.cfi_offset 4, -8
	.cfi_offset 14, -4
	.loc 4 1785 0
	movt	r1, #:upper16:.LC29
	movt	r0, #:upper16:.LC49
	ldr	r3, .L1131
	movw	r2, #1785
	bl	_assert_fail
.LVL844:
.L1132:
	.align	2
.L1131:
	.word	.LANCHOR4+952
	.cfi_endproc
.LFE821:
	.size	cap_page_table_cap_new.part.107, .-cap_page_table_cap_new.part.107
	.align	2
	.syntax unified
	.arm
	.type	cap_page_table_cap_get_capPTMappedObject.part.108, %function
cap_page_table_cap_get_capPTMappedObject.part.108:
.LFB822:
	.loc 4 1801 0
	.cfi_startproc
	@ Volatile: function does not return.
	@ args = 0, pretend = 0, frame = 0
	@ frame_needed = 0, uses_anonymous_args = 0
	.loc 4 1803 0
	movw	r1, #:lower16:.LC29
	movw	r0, #:lower16:.LC45
	.loc 4 1801 0
	push	{r4, lr}
	.cfi_def_cfa_offset 8
	.cfi_offset 4, -8
	.cfi_offset 14, -4
	.loc 4 1803 0
	movt	r1, #:upper16:.LC29
	movt	r0, #:upper16:.LC45
	ldr	r3, .L1135
	movw	r2, #1804
	bl	_assert_fail
.LVL845:
.L1136:
	.align	2
.L1135:
	.word	.LANCHOR4+976
	.cfi_endproc
.LFE822:
	.size	cap_page_table_cap_get_capPTMappedObject.part.108, .-cap_page_table_cap_get_capPTMappedObject.part.108
	.align	2
	.syntax unified
	.arm
	.type	cap_page_table_cap_get_capPTMappedIndex.part.109, %function
cap_page_table_cap_get_capPTMappedIndex.part.109:
.LFB823:
	.loc 4 1827 0
	.cfi_startproc
	@ Volatile: function does not return.
	@ args = 0, pretend = 0, frame = 0
	@ frame_needed = 0, uses_anonymous_args = 0
	.loc 4 1829 0
	movw	r1, #:lower16:.LC29
	movw	r0, #:lower16:.LC45
	.loc 4 1827 0
	push	{r4, lr}
	.cfi_def_cfa_offset 8
	.cfi_offset 4, -8
	.cfi_offset 14, -4
	.loc 4 1829 0
	movt	r1, #:upper16:.LC29
	movt	r0, #:upper16:.LC45
	ldr	r3, .L1139
	movw	r2, #1830
	bl	_assert_fail
.LVL846:
.L1140:
	.align	2
.L1139:
	.word	.LANCHOR4+1020
	.cfi_endproc
.LFE823:
	.size	cap_page_table_cap_get_capPTMappedIndex.part.109, .-cap_page_table_cap_get_capPTMappedIndex.part.109
	.align	2
	.syntax unified
	.arm
	.type	pde_pde_coarse_new.part.110, %function
pde_pde_coarse_new.part.110:
.LFB824:
	.loc 4 804 0
	.cfi_startproc
	@ Volatile: function does not return.
	@ args = 0, pretend = 0, frame = 0
	@ frame_needed = 0, uses_anonymous_args = 0
.LVL847:
	.loc 4 810 0
	movw	r1, #:lower16:.LC29
	movw	r0, #:lower16:.LC50
	.loc 4 804 0
	push	{r4, lr}
	.cfi_def_cfa_offset 8
	.cfi_offset 4, -8
	.cfi_offset 14, -4
	.loc 4 810 0
	movt	r1, #:upper16:.LC29
	movt	r0, #:upper16:.LC50
	ldr	r3, .L1143
	movw	r2, #810
	bl	_assert_fail
.LVL848:
.L1144:
	.align	2
.L1143:
	.word	.LANCHOR4+1060
	.cfi_endproc
.LFE824:
	.size	pde_pde_coarse_new.part.110, .-pde_pde_coarse_new.part.110
	.align	2
	.syntax unified
	.arm
	.type	cap_frame_cap_get_capFMappedObject.part.113, %function
cap_frame_cap_get_capFMappedObject.part.113:
.LFB827:
	.loc 31 87 0
	.cfi_startproc
	@ Volatile: function does not return.
	@ args = 0, pretend = 0, frame = 0
	@ frame_needed = 0, uses_anonymous_args = 0
.LBB6578:
.LBB6579:
	.loc 4 1622 0
	movw	r1, #:lower16:.LC29
	movw	r0, #:lower16:.LC44
.LBE6579:
.LBE6578:
	.loc 31 87 0
	push	{r4, lr}
	.cfi_def_cfa_offset 8
	.cfi_offset 4, -8
	.cfi_offset 14, -4
.LBB6581:
.LBB6580:
	.loc 4 1622 0
	movt	r1, #:upper16:.LC29
	movt	r0, #:upper16:.LC44
	ldr	r3, .L1147
	movw	r2, #1623
	bl	_assert_fail
.LVL849:
.L1148:
	.align	2
.L1147:
	.word	.LANCHOR4+1080
.LBE6580:
.LBE6581:
	.cfi_endproc
.LFE827:
	.size	cap_frame_cap_get_capFMappedObject.part.113, .-cap_frame_cap_get_capFMappedObject.part.113
	.text
	.align	2
	.syntax unified
	.arm
	.type	cap_frame_cap_get_capFMappedObject, %function
cap_frame_cap_get_capFMappedObject:
.LFB194:
	.loc 31 88 0
	.cfi_startproc
	@ args = 0, pretend = 0, frame = 8
	@ frame_needed = 0, uses_anonymous_args = 0
	str	lr, [sp, #-4]!
	.cfi_def_cfa_offset 4
	.cfi_offset 14, -4
	sub	sp, sp, #12
	.cfi_def_cfa_offset 16
	.loc 31 88 0
	add	r3, sp, #8
	stmdb	r3, {r0, r1}
	ldm	sp, {r0, r3}
.LVL850:
.LBB6586:
.LBB6587:
	.loc 4 1622 0
	and	r2, r0, #15
	cmp	r2, #1
	bne	.L1152
.LBE6587:
.LBE6586:
	.loc 31 89 0
	bic	r3, r3, #4080
.LVL851:
	ubfx	r0, r0, #24, #2
	bic	r3, r3, #15
	.loc 31 90 0
	add	r0, r3, r0, lsl #10
	add	sp, sp, #12
	.cfi_remember_state
	.cfi_def_cfa_offset 4
	@ sp needed
	ldr	pc, [sp], #4
.LVL852:
.L1152:
	.cfi_restore_state
	bl	cap_frame_cap_get_capFMappedObject.part.113
.LVL853:
	.cfi_endproc
.LFE194:
	.size	cap_frame_cap_get_capFMappedObject, .-cap_frame_cap_get_capFMappedObject
	.section	.text.unlikely
	.align	2
	.syntax unified
	.arm
	.type	cap_frame_cap_get_capFMappedIndex.part.114, %function
cap_frame_cap_get_capFMappedIndex.part.114:
.LFB828:
	.loc 4 1659 0
	.cfi_startproc
	@ Volatile: function does not return.
	@ args = 0, pretend = 0, frame = 0
	@ frame_needed = 0, uses_anonymous_args = 0
	.loc 4 1661 0
	movw	r1, #:lower16:.LC29
	movw	r0, #:lower16:.LC44
	.loc 4 1659 0
	push	{r4, lr}
	.cfi_def_cfa_offset 8
	.cfi_offset 4, -8
	.cfi_offset 14, -4
	.loc 4 1661 0
	movt	r1, #:upper16:.LC29
	movt	r0, #:upper16:.LC44
	ldr	r3, .L1155
	movw	r2, #1662
	bl	_assert_fail
.LVL854:
.L1156:
	.align	2
.L1155:
	.word	.LANCHOR4+1120
	.cfi_endproc
.LFE828:
	.size	cap_frame_cap_get_capFMappedIndex.part.114, .-cap_frame_cap_get_capFMappedIndex.part.114
	.align	2
	.syntax unified
	.arm
	.type	pte_pte_small_new.part.115, %function
pte_pte_small_new.part.115:
.LFB829:
	.loc 4 2149 0
	.cfi_startproc
	@ Volatile: function does not return.
	@ args = 0, pretend = 0, frame = 0
	@ frame_needed = 0, uses_anonymous_args = 0
.LVL855:
	.loc 4 2155 0
	movw	r1, #:lower16:.LC29
	movw	r0, #:lower16:.LC51
	.loc 4 2149 0
	push	{r4, lr}
	.cfi_def_cfa_offset 8
	.cfi_offset 4, -8
	.cfi_offset 14, -4
	.loc 4 2155 0
	movt	r1, #:upper16:.LC29
	movt	r0, #:upper16:.LC51
	ldr	r3, .L1159
	movw	r2, #2155
	bl	_assert_fail
.LVL856:
.L1160:
	.align	2
.L1159:
	.word	.LANCHOR4+1156
	.cfi_endproc
.LFE829:
	.size	pte_pte_small_new.part.115, .-pte_pte_small_new.part.115
	.align	2
	.syntax unified
	.arm
	.type	pde_pde_section_new.part.117, %function
pde_pde_section_new.part.117:
.LFB831:
	.loc 4 854 0
	.cfi_startproc
	@ Volatile: function does not return.
	@ args = 0, pretend = 0, frame = 0
	@ frame_needed = 0, uses_anonymous_args = 0
.LVL857:
	.loc 4 860 0
	movw	r1, #:lower16:.LC29
	movw	r0, #:lower16:.LC52
	.loc 4 854 0
	push	{r4, lr}
	.cfi_def_cfa_offset 8
	.cfi_offset 4, -8
	.cfi_offset 14, -4
	.loc 4 860 0
	movt	r1, #:upper16:.LC29
	movt	r0, #:upper16:.LC52
	ldr	r3, .L1163
	mov	r2, #860
	bl	_assert_fail
.LVL858:
.L1164:
	.align	2
.L1163:
	.word	.LANCHOR4+1176
	.cfi_endproc
.LFE831:
	.size	pde_pde_section_new.part.117, .-pde_pde_section_new.part.117
	.align	2
	.syntax unified
	.arm
	.type	vm_attributes_new.part.118, %function
vm_attributes_new.part.118:
.LFB832:
	.loc 4 306 0
	.cfi_startproc
	@ Volatile: function does not return.
	@ args = 0, pretend = 0, frame = 0
	@ frame_needed = 0, uses_anonymous_args = 0
.LVL859:
	.loc 4 312 0
	movw	r1, #:lower16:.LC29
	movw	r0, #:lower16:.LC53
	.loc 4 306 0
	push	{r4, lr}
	.cfi_def_cfa_offset 8
	.cfi_offset 4, -8
	.cfi_offset 14, -4
	.loc 4 312 0
	movt	r1, #:upper16:.LC29
	movt	r0, #:upper16:.LC53
	ldr	r3, .L1167
	mov	r2, #312
	bl	_assert_fail
.LVL860:
.L1168:
	.align	2
.L1167:
	.word	.LANCHOR4+1196
	.cfi_endproc
.LFE832:
	.size	vm_attributes_new.part.118, .-vm_attributes_new.part.118
	.align	2
	.syntax unified
	.arm
	.type	cap_frame_cap_get_capFVMRights.isra.119.part.120, %function
cap_frame_cap_get_capFVMRights.isra.119.part.120:
.LFB834:
	.loc 4 1699 0
	.cfi_startproc
	@ Volatile: function does not return.
	@ args = 0, pretend = 0, frame = 0
	@ frame_needed = 0, uses_anonymous_args = 0
	.loc 4 1701 0
	movw	r1, #:lower16:.LC29
	movw	r0, #:lower16:.LC44
	.loc 4 1699 0
	push	{r4, lr}
	.cfi_def_cfa_offset 8
	.cfi_offset 4, -8
	.cfi_offset 14, -4
	.loc 4 1701 0
	movt	r1, #:upper16:.LC29
	movt	r0, #:upper16:.LC44
	ldr	r3, .L1171
	movw	r2, #1702
	bl	_assert_fail
.LVL861:
.L1172:
	.align	2
.L1171:
	.word	.LANCHOR4+1216
	.cfi_endproc
.LFE834:
	.size	cap_frame_cap_get_capFVMRights.isra.119.part.120, .-cap_frame_cap_get_capFVMRights.isra.119.part.120
	.text
	.align	2
	.global	Arch_hasRecycleRights
	.syntax unified
	.arm
	.type	Arch_hasRecycleRights, %function
Arch_hasRecycleRights:
.LFB446:
	.loc 23 175 0
	.cfi_startproc
	@ args = 0, pretend = 0, frame = 8
	@ frame_needed = 0, uses_anonymous_args = 0
	str	lr, [sp, #-4]!
	.cfi_def_cfa_offset 4
	.cfi_offset 14, -4
	sub	sp, sp, #12
	.cfi_def_cfa_offset 16
	.loc 23 175 0
	add	r3, sp, #8
	stmdb	r3, {r0, r1}
	ldr	r0, [sp]
.LVL862:
.LBB6592:
.LBB6593:
	.loc 4 997 0
	and	r3, r0, #14
	cmp	r3, #14
	.loc 4 999 0
	uxtbeq	r3, r0
	.loc 4 998 0
	andne	r3, r0, #15
.LBE6593:
.LBE6592:
	.loc 23 176 0
	cmp	r3, #1
	bne	.L1180
.LVL863:
.LBB6594:
.LBB6595:
	.loc 4 1701 0
	and	r3, r0, #15
	cmp	r3, #1
	bne	.L1182
.LBE6595:
.LBE6594:
	.loc 23 178 0
	ubfx	r0, r0, #27, #2
	sub	r0, r0, #3
	clz	r0, r0
	lsr	r0, r0, #5
	.loc 23 183 0
	add	sp, sp, #12
	.cfi_remember_state
	.cfi_def_cfa_offset 4
	@ sp needed
	ldr	pc, [sp], #4
.L1180:
	.cfi_restore_state
	.loc 23 181 0
	mov	r0, #1
	.loc 23 183 0
	add	sp, sp, #12
	.cfi_remember_state
	.cfi_def_cfa_offset 4
	@ sp needed
	ldr	pc, [sp], #4
.L1182:
	.cfi_restore_state
.LBB6597:
.LBB6596:
	bl	cap_frame_cap_get_capFVMRights.isra.119.part.120
.LVL864:
.LBE6596:
.LBE6597:
	.cfi_endproc
.LFE446:
	.size	Arch_hasRecycleRights, .-Arch_hasRecycleRights
	.section	.text.unlikely
	.align	2
	.syntax unified
	.arm
	.type	cap_frame_cap_get_capFSize.isra.121.part.122, %function
cap_frame_cap_get_capFSize.isra.121.part.122:
.LFB836:
	.loc 4 1685 0
	.cfi_startproc
	@ Volatile: function does not return.
	@ args = 0, pretend = 0, frame = 0
	@ frame_needed = 0, uses_anonymous_args = 0
	.loc 4 1687 0
	movw	r1, #:lower16:.LC29
	movw	r0, #:lower16:.LC44
	.loc 4 1685 0
	push	{r4, lr}
	.cfi_def_cfa_offset 8
	.cfi_offset 4, -8
	.cfi_offset 14, -4
	.loc 4 1687 0
	movt	r1, #:upper16:.LC29
	movt	r0, #:upper16:.LC44
	ldr	r3, .L1185
	movw	r2, #1688
	bl	_assert_fail
.LVL865:
.L1186:
	.align	2
.L1185:
	.word	.LANCHOR4+1248
	.cfi_endproc
.LFE836:
	.size	cap_frame_cap_get_capFSize.isra.121.part.122, .-cap_frame_cap_get_capFSize.isra.121.part.122
	.text
	.align	2
	.global	lookupIPCBuffer
	.syntax unified
	.arm
	.type	lookupIPCBuffer, %function
lookupIPCBuffer:
.LFB327:
	.loc 11 324 0
	.cfi_startproc
	@ args = 0, pretend = 0, frame = 0
	@ frame_needed = 0, uses_anonymous_args = 0
.LVL866:
	.loc 11 330 0
	bic	r2, r1, #508
	.loc 11 324 0
	push	{r4, lr}
	.cfi_def_cfa_offset 8
	.cfi_offset 4, -8
	.cfi_offset 14, -4
	.loc 11 330 0
	bic	r2, r2, #3
	.loc 11 329 0
	ldr	r1, [r1, #120]
.LVL867:
	.loc 11 330 0
	ldr	r3, [r2, #64]
.LVL868:
.LBB6611:
.LBB6612:
	.loc 4 997 0
	and	r2, r3, #14
	cmp	r2, #14
	.loc 4 999 0
	uxtbeq	r2, r3
.LVL869:
	.loc 4 998 0
	andne	r2, r3, #15
.LBE6612:
.LBE6611:
	.loc 11 332 0
	cmp	r2, #1
	bne	.L1199
.LVL870:
.LBB6613:
.LBB6614:
	.loc 4 1701 0
	and	r2, r3, #15
	cmp	r2, #1
	bne	.L1206
	.loc 4 1704 0
	ubfx	r2, r3, #27, #2
.LVL871:
.LBE6614:
.LBE6613:
	.loc 11 337 0
	cmp	r2, #3
	bne	.L1207
.LVL872:
.L1192:
.LBB6616:
.LBB6617:
.LBB6618:
	.loc 4 1769 0
	bic	r2, r3, #-16777216
.LBE6618:
.LBE6617:
.LBB6620:
.LBB6621:
	.loc 28 113 0
	lsr	r3, r3, #29
.LVL873:
.LBE6621:
.LBE6620:
.LBB6626:
.LBB6619:
	.loc 4 1769 0
	bic	r2, r2, #15
	lsl	r0, r2, #8
.LVL874:
.LBE6619:
.LBE6626:
.LBB6627:
.LBB6624:
	.loc 28 113 0
	cmp	r3, #3
	ldrls	pc, [pc, r3, asl #2]
	b	.L1193
.L1195:
	.word	.L1194
	.word	.L1201
	.word	.L1197
	.word	.L1198
.L1201:
	movw	r3, #65535
.L1196:
.LVL875:
.LBE6624:
.LBE6627:
	.loc 11 344 0
	and	r3, r3, r1
	add	r0, r3, r0
	pop	{r4, pc}
.LVL876:
.L1194:
.LBB6628:
.LBB6625:
	.loc 28 113 0
	movw	r3, #4095
	b	.L1196
.L1197:
	movw	r3, #65535
	movt	r3, 15
	b	.L1196
.L1198:
	mvn	r3, #-16777216
	b	.L1196
.L1193:
.LVL877:
.LBB6622:
.LBB6623:
	.loc 28 127 0
	movw	r1, #:lower16:.LC22
.LVL878:
	movw	r0, #:lower16:.LC23
	movt	r1, #:upper16:.LC22
	movt	r0, #:upper16:.LC23
	ldr	r3, .L1208
	mov	r2, #127
	bl	_fail
.LVL879:
.L1199:
.LBE6623:
.LBE6622:
.LBE6625:
.LBE6628:
.LBE6616:
	.loc 11 333 0
	mov	r0, #0
.LVL880:
	.loc 11 348 0
	pop	{r4, pc}
.LVL881:
.L1207:
	.loc 11 337 0 discriminator 1
	cmp	r0, #0
	cmpeq	r2, #2
	moveq	r0, #1
.LVL882:
	movne	r0, #0
	beq	.L1192
	pop	{r4, pc}
.LVL883:
.L1206:
.LBB6629:
.LBB6615:
	bl	cap_frame_cap_get_capFVMRights.isra.119.part.120
.LVL884:
.L1209:
	.align	2
.L1208:
	.word	.LANCHOR4+20
.LBE6615:
.LBE6629:
	.cfi_endproc
.LFE327:
	.size	lookupIPCBuffer, .-lookupIPCBuffer
	.align	2
	.global	handleFaultReply
	.syntax unified
	.arm
	.type	handleFaultReply, %function
handleFaultReply:
.LFB271:
	.file 32 "/home/mint/seL4/dhs-demo-feb-2018/kernel/src/arch/arm/api/faults.c"
	.loc 32 19 0
	.cfi_startproc
	@ args = 0, pretend = 0, frame = 0
	@ frame_needed = 0, uses_anonymous_args = 0
.LVL885:
	push	{r4, r5, r6, r7, r8, lr}
	.cfi_def_cfa_offset 24
	.cfi_offset 4, -24
	.cfi_offset 5, -20
	.cfi_offset 6, -16
	.cfi_offset 7, -12
	.cfi_offset 8, -8
	.cfi_offset 14, -4
	.loc 32 19 0
	mov	r6, r0
.LBB6630:
.LBB6631:
	.loc 10 27 0
	ldr	r0, [r1, #4]
.LVL886:
.LBE6631:
.LBE6630:
	.loc 32 19 0
	mov	r7, r1
.LVL887:
.LBB6632:
.LBB6633:
.LBB6634:
.LBB6635:
	.file 33 "./api/types_gen.h"
	.loc 33 89 0
	and	r3, r0, #127
.LBE6635:
.LBE6634:
	.file 34 "/home/mint/seL4/dhs-demo-feb-2018/kernel/include/api/types.h"
	.loc 34 83 0
	cmp	r3, #120
.LVL888:
	movls	r5, r3
.LBE6633:
.LBE6632:
	.loc 32 31 0
	ldr	r3, [r6, #88]
.LBB6639:
.LBB6638:
.LBB6636:
.LBB6637:
	.loc 33 101 0
	bichi	r0, r0, #127
.LVL889:
	movhi	r5, #120
	.loc 33 102 0
	orrhi	r0, r0, r5
.LVL890:
.LBE6637:
.LBE6636:
.LBE6638:
.LBE6639:
	.loc 32 31 0
	and	r3, r3, #7
.LBB6640:
.LBB6641:
	.loc 33 38 0
	lsr	r4, r0, #12
.LVL891:
.LBE6641:
.LBE6640:
	.loc 32 31 0
	sub	r3, r3, #1
	cmp	r3, #3
	ldrls	pc, [pc, r3, asl #2]
	b	.L1212
.LVL892:
.L1214:
	.word	.L1223
	.word	.L1223
	.word	.L1215
	.word	.L1216
.L1223:
	.loc 32 33 0
	mov	r0, #1
.LVL893:
	.loc 32 80 0
	pop	{r4, r5, r6, r7, r8, pc}
.LVL894:
.L1215:
.LBB6642:
	.loc 32 44 0
	mov	r0, #0
	bl	lookupIPCBuffer
.LVL895:
	.loc 32 47 0
	cmp	r5, #0
	beq	.L1219
.LVL896:
.LBB6643:
.LBB6644:
	.loc 10 21 0
	ldr	r3, [r7, #8]
.LBE6644:
.LBE6643:
	.loc 32 47 0
	cmp	r5, #1
.LBB6652:
.LBB6645:
	.loc 10 21 0
	str	r3, [r6]
.LVL897:
.LBE6645:
.LBE6652:
	.loc 32 47 0
	movls	r3, #1
	bls	.L1220
.LVL898:
.LBB6653:
.LBB6646:
	.loc 10 21 0
	ldr	r3, [r7, #12]
.LBE6646:
.LBE6653:
	.loc 32 47 0
	cmp	r5, #2
.LBB6654:
.LBB6647:
	.loc 10 21 0
	str	r3, [r6, #4]
.LVL899:
.LBE6647:
.LBE6654:
	.loc 32 47 0
	movls	r3, #2
	bls	.L1220
.LVL900:
.LBB6655:
.LBB6648:
	.loc 10 21 0
	ldr	r3, [r7, #16]
.LBE6648:
.LBE6655:
	.loc 32 47 0
	cmp	r5, #3
.LBB6656:
.LBB6649:
	.loc 10 21 0
	str	r3, [r6, #8]
.LVL901:
.LBE6649:
.LBE6656:
	.loc 32 47 0
	movls	r3, #3
.LVL902:
.LBB6657:
.LBB6650:
	.loc 10 21 0
	ldrhi	r2, [r7, #20]
.LBE6650:
.LBE6657:
	.loc 32 47 0
	movhi	r3, #4
.LBB6658:
.LBB6651:
	.loc 10 21 0
	strhi	r2, [r6, #12]
.LVL903:
.L1220:
.LBE6651:
.LBE6658:
	.loc 32 53 0
	cmp	r0, #0
	beq	.L1219
.LVL904:
	.loc 32 54 0 discriminator 1
	cmp	r5, r3
	bls	.L1219
.LVL905:
	.loc 32 55 0
	movw	r2, #:lower16:.LANCHOR4
	.loc 32 56 0
	add	lr, r3, #1
	.loc 32 55 0
	movt	r2, #:upper16:.LANCHOR4
	.loc 32 56 0
	ldr	r1, [r0, lr, lsl #2]
	.loc 32 55 0
	add	r7, r2, r3, lsl #2
.LVL906:
	.loc 32 56 0
	lsl	ip, lr, #2
	.loc 32 55 0
	ldr	r7, [r7, #1276]
.LVL907:
.LBB6659:
.LBB6660:
	.loc 10 21 0
	and	r8, r1, #-134217728
	cmp	r7, #16
	orreq	r1, r8, #80
.LBE6660:
.LBE6659:
	.loc 32 54 0
	cmp	lr, r5
.LBB6681:
.LBB6661:
	.loc 10 21 0
	str	r1, [r6, r7, lsl #2]
.LVL908:
.LBE6661:
.LBE6681:
	.loc 32 54 0
	bcs	.L1219
.LVL909:
	.loc 32 55 0
	add	r1, r2, ip
	.loc 32 56 0
	add	ip, r0, ip
	.loc 32 55 0
	ldr	r7, [r1, #1276]
	.loc 32 56 0
	add	r1, r3, #2
	ldr	lr, [ip, #4]
.LVL910:
.LBB6682:
.LBB6662:
	.loc 10 21 0
	cmp	r7, #16
	and	r8, lr, #-134217728
	orreq	lr, r8, #80
.LBE6662:
.LBE6682:
	.loc 32 54 0
	cmp	r5, r1
.LBB6683:
.LBB6663:
	.loc 10 21 0
	str	lr, [r6, r7, lsl #2]
.LVL911:
.LBE6663:
.LBE6683:
	.loc 32 54 0
	bls	.L1219
.LVL912:
	.loc 32 55 0
	add	r7, r2, r1, lsl #2
	.loc 32 56 0
	ldr	lr, [ip, #8]
	add	r1, r3, #3
	.loc 32 55 0
	ldr	r7, [r7, #1276]
.LVL913:
.LBB6684:
.LBB6664:
	.loc 10 21 0
	and	r8, lr, #-134217728
	cmp	r7, #16
	orreq	lr, r8, #80
.LBE6664:
.LBE6684:
	.loc 32 54 0
	cmp	r5, r1
.LBB6685:
.LBB6665:
	.loc 10 21 0
	str	lr, [r6, r7, lsl #2]
.LVL914:
.LBE6665:
.LBE6685:
	.loc 32 54 0
	bls	.L1219
.LVL915:
	.loc 32 55 0
	add	r7, r2, r1, lsl #2
	.loc 32 56 0
	ldr	lr, [ip, #12]
	add	r1, r3, #4
	.loc 32 55 0
	ldr	r7, [r7, #1276]
.LVL916:
.LBB6686:
.LBB6666:
	.loc 10 21 0
	and	r8, lr, #-134217728
	cmp	r7, #16
	orreq	lr, r8, #80
.LBE6666:
.LBE6686:
	.loc 32 54 0
	cmp	r5, r1
.LBB6687:
.LBB6667:
	.loc 10 21 0
	str	lr, [r6, r7, lsl #2]
.LVL917:
.LBE6667:
.LBE6687:
	.loc 32 54 0
	bls	.L1219
.LVL918:
	.loc 32 55 0
	add	r7, r2, r1, lsl #2
	.loc 32 56 0
	ldr	lr, [ip, #16]
	add	r1, r3, #5
	.loc 32 55 0
	ldr	r7, [r7, #1276]
.LVL919:
.LBB6688:
.LBB6668:
	.loc 10 21 0
	and	r8, lr, #-134217728
	cmp	r7, #16
	orreq	lr, r8, #80
.LBE6668:
.LBE6688:
	.loc 32 54 0
	cmp	r5, r1
.LBB6689:
.LBB6669:
	.loc 10 21 0
	str	lr, [r6, r7, lsl #2]
.LVL920:
.LBE6669:
.LBE6689:
	.loc 32 54 0
	bls	.L1219
.LVL921:
	.loc 32 55 0
	add	r7, r2, r1, lsl #2
	.loc 32 56 0
	ldr	lr, [ip, #20]
	add	r1, r3, #6
	.loc 32 55 0
	ldr	r7, [r7, #1276]
.LVL922:
.LBB6690:
.LBB6670:
	.loc 10 21 0
	and	r8, lr, #-134217728
	cmp	r7, #16
	orreq	lr, r8, #80
.LBE6670:
.LBE6690:
	.loc 32 54 0
	cmp	r5, r1
.LBB6691:
.LBB6671:
	.loc 10 21 0
	str	lr, [r6, r7, lsl #2]
.LVL923:
.LBE6671:
.LBE6691:
	.loc 32 54 0
	bls	.L1219
.LVL924:
	.loc 32 55 0
	add	r7, r2, r1, lsl #2
	.loc 32 56 0
	ldr	lr, [ip, #24]
	add	r1, r3, #7
	.loc 32 55 0
	ldr	r7, [r7, #1276]
.LVL925:
.LBB6692:
.LBB6672:
	.loc 10 21 0
	and	r8, lr, #-134217728
	cmp	r7, #16
	orreq	lr, r8, #80
.LBE6672:
.LBE6692:
	.loc 32 54 0
	cmp	r5, r1
.LBB6693:
.LBB6673:
	.loc 10 21 0
	str	lr, [r6, r7, lsl #2]
.LVL926:
.LBE6673:
.LBE6693:
	.loc 32 54 0
	bls	.L1219
.LVL927:
	.loc 32 55 0
	add	r7, r2, r1, lsl #2
	.loc 32 56 0
	ldr	lr, [ip, #28]
	add	r1, r3, #8
	.loc 32 55 0
	ldr	r7, [r7, #1276]
.LVL928:
.LBB6694:
.LBB6674:
	.loc 10 21 0
	and	r8, lr, #-134217728
	cmp	r7, #16
	orreq	lr, r8, #80
.LBE6674:
.LBE6694:
	.loc 32 54 0
	cmp	r5, r1
	movhi	r8, #1
	movls	r8, #0
	cmp	r1, #11
	movhi	r8, #0
.LBB6695:
.LBB6675:
	.loc 10 21 0
	str	lr, [r6, r7, lsl #2]
.LVL929:
.LBE6675:
.LBE6695:
	.loc 32 54 0
	cmp	r8, #0
	beq	.L1219
.LVL930:
	.loc 32 55 0
	add	r1, r2, r1, lsl #2
	.loc 32 56 0
	ldr	lr, [ip, #32]
	add	r7, r3, #9
	.loc 32 55 0
	ldr	r1, [r1, #1276]
.LVL931:
.LBB6696:
.LBB6676:
	.loc 10 21 0
	and	r8, lr, #-134217728
	cmp	r1, #16
	orreq	lr, r8, #80
.LBE6676:
.LBE6696:
	.loc 32 54 0
	cmp	r5, r7
	movhi	r8, #1
	movls	r8, #0
	cmp	r7, #11
	movhi	r8, #0
.LBB6697:
.LBB6677:
	.loc 10 21 0
	str	lr, [r6, r1, lsl #2]
.LVL932:
.LBE6677:
.LBE6697:
	.loc 32 54 0
	cmp	r8, #0
	beq	.L1219
.LVL933:
	.loc 32 55 0
	add	r1, r2, r7, lsl #2
	.loc 32 56 0
	ldr	ip, [ip, #36]
	add	r2, r3, #10
	.loc 32 55 0
	ldr	r1, [r1, #1276]
.LVL934:
.LBB6698:
.LBB6678:
	.loc 10 21 0
	and	r3, ip, #-134217728
	cmp	r1, #16
	orreq	ip, r3, #80
.LBE6678:
.LBE6698:
	.loc 32 54 0
	cmp	r5, r2
	movhi	r3, #1
	movls	r3, #0
	cmp	r2, #11
	movhi	r3, #0
.LBB6699:
.LBB6679:
	.loc 10 21 0
	str	ip, [r6, r1, lsl #2]
.LVL935:
.LBE6679:
.LBE6699:
	.loc 32 54 0
	cmp	r3, #0
.LVL936:
.LBB6700:
.LBB6701:
	.file 35 "/home/mint/seL4/dhs-demo-feb-2018/kernel/include/arch/arm/arch/machine/registerset.h"
	.loc 35 121 0
	ldrne	r3, [r0, #48]
	andne	r3, r3, #-134217728
	orrne	r3, r3, #80
.LVL937:
.LBE6701:
.LBE6700:
.LBB6702:
.LBB6680:
	.loc 10 21 0
	strne	r3, [r6, #64]
.LVL938:
.L1219:
.LBE6680:
.LBE6702:
.LBE6642:
	.loc 32 61 0
	clz	r0, r4
	lsr	r0, r0, #5
	pop	{r4, r5, r6, r7, r8, pc}
.LVL939:
.L1216:
.LBB6703:
	.loc 32 69 0 discriminator 1
	cmp	r5, #0
	beq	.L1219
.LVL940:
.LBB6704:
.LBB6705:
	.loc 10 21 0
	ldr	r3, [r1, #8]
.LBE6705:
.LBE6704:
	.loc 32 69 0
	cmp	r5, #1
.LBB6710:
.LBB6706:
	.loc 10 21 0
	str	r3, [r6, #68]
.LVL941:
.LBE6706:
.LBE6710:
	.loc 32 69 0
	bls	.L1219
.LVL942:
.LBB6711:
.LBB6707:
	.loc 10 21 0
	ldr	r3, [r1, #12]
.LBE6707:
.LBE6711:
	.loc 32 69 0
	cmp	r5, #2
.LBB6712:
.LBB6708:
	.loc 10 21 0
	str	r3, [r6, #52]
.LVL943:
.LBE6708:
.LBE6712:
	.loc 32 69 0
.LVL944:
.LBB6713:
.LBB6709:
	.loc 10 21 0 discriminator 3
	ldrhi	r3, [r1, #16]
	andhi	r3, r3, #-134217728
	orrhi	r3, r3, #80
	strhi	r3, [r6, #64]
.LVL945:
.LBE6709:
.LBE6713:
	b	.L1219
.LVL946:
.L1212:
.LBE6703:
	.loc 32 78 0
	movw	r1, #:lower16:.LC54
.LVL947:
	movw	r0, #:lower16:.LC55
	movt	r1, #:upper16:.LC54
	movt	r0, #:upper16:.LC55
	ldr	r3, .L1243
	mov	r2, #78
	bl	_fail
.LVL948:
.L1244:
	.align	2
.L1243:
	.word	.LANCHOR4+1324
	.cfi_endproc
.LFE271:
	.size	handleFaultReply, .-handleFaultReply
	.align	2
	.global	Arch_sameRegionAs
	.syntax unified
	.arm
	.type	Arch_sameRegionAs, %function
Arch_sameRegionAs:
.LFB447:
	.loc 23 188 0
	.cfi_startproc
	@ args = 0, pretend = 0, frame = 16
	@ frame_needed = 0, uses_anonymous_args = 0
	push	{r4, r5, r6, r7, r8, lr}
	.cfi_def_cfa_offset 24
	.cfi_offset 4, -24
	.cfi_offset 5, -20
	.cfi_offset 6, -16
	.cfi_offset 7, -12
	.cfi_offset 8, -8
	.cfi_offset 14, -4
	sub	sp, sp, #16
	.cfi_def_cfa_offset 40
	.loc 23 188 0
	add	ip, sp, #16
	stm	sp, {r2, r3}
	mov	r4, r2
	stmdb	ip, {r0, r1}
	ldr	r0, [sp, #8]
.LVL949:
.LBB6714:
.LBB6715:
	.loc 4 997 0
	and	r3, r0, #14
	cmp	r3, #14
	.loc 4 999 0
	uxtbeq	r1, r0
	.loc 4 998 0
	andne	r1, r0, #15
.LBE6715:
.LBE6714:
	.loc 23 189 0
	cmp	r1, #3
	beq	.L1249
	cmp	r1, #5
	beq	.L1250
	cmp	r1, #1
	beq	.L1270
.L1267:
	.loc 23 216 0
	mov	r0, #0
.LVL950:
.L1248:
	.loc 23 217 0
	add	sp, sp, #16
	.cfi_remember_state
	.cfi_def_cfa_offset 24
	@ sp needed
	pop	{r4, r5, r6, r7, r8, pc}
.LVL951:
.L1270:
	.cfi_restore_state
.LBB6716:
.LBB6717:
	.loc 4 997 0
	and	r3, r2, #14
	cmp	r3, #14
	.loc 4 999 0
	uxtbeq	r7, r2
.LVL952:
	.loc 4 998 0
	andne	r7, r2, #15
.LBE6717:
.LBE6716:
	.loc 23 191 0
	cmp	r7, #1
	bne	.L1267
.LVL953:
.LBB6718:
.LBB6719:
.LBB6720:
	.loc 4 1766 0
	and	r3, r0, #15
	cmp	r3, #1
	bne	.L1255
	.loc 4 1769 0
	movw	r5, #65520
.LBE6720:
.LBE6719:
.LBB6724:
.LBB6725:
	.loc 4 1766 0
	and	r3, r2, #15
.LBE6725:
.LBE6724:
.LBB6729:
.LBB6721:
	.loc 4 1769 0
	movt	r5, 255
.LBE6721:
.LBE6729:
.LBB6730:
.LBB6726:
	.loc 4 1766 0
	cmp	r3, #1
.LBE6726:
.LBE6730:
.LBB6731:
.LBB6722:
	.loc 4 1769 0
	and	r6, r0, r5
	lsl	r6, r6, #8
.LVL954:
.LBE6722:
.LBE6731:
.LBB6732:
.LBB6727:
	.loc 4 1766 0
	bne	.L1255
	.loc 4 1769 0
	and	r5, r5, r2
.LBE6727:
.LBE6732:
	.loc 23 195 0
	lsr	r0, r0, #29
.LBB6733:
.LBB6728:
	.loc 4 1769 0
	lsl	r5, r5, #8
.LVL955:
.LBE6728:
.LBE6733:
	.loc 23 195 0
	sub	r8, r6, #1
	bl	pageBitsForSize
.LVL956:
	add	r8, r8, r7, lsl r0
.LVL957:
	.loc 23 196 0
	lsr	r0, r4, #29
	bl	pageBitsForSize
.LVL958:
	sub	r3, r5, #1
	add	r0, r3, r7, lsl r0
.LVL959:
	.loc 23 197 0
	cmp	r8, r0
	cmpcs	r0, r5
	movcs	r0, #1
.LVL960:
	movcc	r0, #0
	cmp	r5, r6
	movcc	r0, #0
	andcs	r0, r0, #1
	b	.L1248
.LVL961:
.L1250:
.LBE6718:
.LBB6735:
.LBB6736:
	.loc 4 997 0
	and	r3, r2, #14
	cmp	r3, #14
	.loc 4 999 0
	uxtbeq	r3, r2
.LVL962:
	.loc 4 998 0
	andne	r3, r2, #15
.LBE6736:
.LBE6735:
	.loc 23 209 0
	cmp	r3, #5
	bne	.L1267
.LVL963:
.LBB6737:
.LBB6738:
	.loc 4 1886 0
	and	r3, r0, #15
	cmp	r3, #5
	bne	.L1263
.LBE6738:
.LBE6737:
.LBB6742:
.LBB6743:
	and	r2, r2, #15
.LVL964:
.LBE6743:
.LBE6742:
.LBB6746:
.LBB6739:
	.loc 4 1889 0
	mov	r3, #49152
.LBE6739:
.LBE6746:
.LBB6747:
.LBB6744:
	.loc 4 1886 0
	cmp	r2, #5
.LBE6744:
.LBE6747:
.LBB6748:
.LBB6740:
	.loc 4 1889 0
	movt	r3, 65535
	and	r0, r0, r3
.LVL965:
.LBE6740:
.LBE6748:
.LBB6749:
.LBB6745:
	.loc 4 1886 0
	bne	.L1263
.LVL966:
.LBE6745:
.LBE6749:
	.loc 23 210 0
	and	r3, r3, r4
	sub	r0, r3, r0
	clz	r0, r0
	lsr	r0, r0, #5
	b	.L1248
.LVL967:
.L1249:
.LBB6750:
.LBB6751:
	.loc 4 997 0
	and	r3, r2, #14
	cmp	r3, #14
	.loc 4 999 0
	uxtbeq	r3, r2
.LVL968:
	.loc 4 998 0
	andne	r3, r2, #15
.LBE6751:
.LBE6750:
	.loc 23 202 0
	cmp	r3, #3
	bne	.L1267
.LVL969:
.LBB6752:
.LBB6753:
	.loc 4 1855 0
	and	r3, r0, #15
	cmp	r3, #3
	bne	.L1259
.LBE6753:
.LBE6752:
.LBB6757:
.LBB6758:
	and	r3, r2, #15
.LBE6758:
.LBE6757:
.LBB6761:
.LBB6754:
	.loc 4 1858 0
	mov	r2, #64512
.LVL970:
.LBE6754:
.LBE6761:
.LBB6762:
.LBB6759:
	.loc 4 1855 0
	cmp	r3, #3
.LBE6759:
.LBE6762:
.LBB6763:
.LBB6755:
	.loc 4 1858 0
	movt	r2, 65535
	and	r3, r0, r2
.LVL971:
.LBE6755:
.LBE6763:
.LBB6764:
.LBB6760:
	.loc 4 1855 0
	bne	.L1259
.LVL972:
.LBE6760:
.LBE6764:
	.loc 23 203 0
	and	r0, r4, r2
	sub	r0, r0, r3
	clz	r0, r0
	lsr	r0, r0, #5
	b	.L1248
.L1259:
.LBB6765:
.LBB6756:
	bl	cap_page_table_cap_get_capPTBasePtr.isra.103.part.104
.LVL973:
.L1255:
.LBE6756:
.LBE6765:
.LBB6766:
.LBB6734:
.LBB6723:
	bl	cap_frame_cap_get_capFBasePtr.isra.101.part.102
.LVL974:
.L1263:
.LBE6723:
.LBE6734:
.LBE6766:
.LBB6767:
.LBB6741:
	bl	cap_page_directory_cap_get_capPDBasePtr.isra.91.part.92
.LVL975:
.LBE6741:
.LBE6767:
	.cfi_endproc
.LFE447:
	.size	Arch_sameRegionAs, .-Arch_sameRegionAs
	.align	2
	.global	Arch_sameObjectAs
	.syntax unified
	.arm
	.type	Arch_sameObjectAs, %function
Arch_sameObjectAs:
.LFB448:
	.loc 23 222 0
	.cfi_startproc
	@ args = 0, pretend = 0, frame = 16
	@ frame_needed = 0, uses_anonymous_args = 0
	str	lr, [sp, #-4]!
	.cfi_def_cfa_offset 4
	.cfi_offset 14, -4
	sub	sp, sp, #20
	.cfi_def_cfa_offset 24
	.loc 23 222 0
	stm	sp, {r2, r3}
.LBB6768:
.LBB6769:
	.loc 4 997 0
	and	r3, r0, #14
	cmp	r3, #14
.LBE6769:
.LBE6768:
	.loc 23 222 0
	add	ip, sp, #8
.LBB6771:
.LBB6770:
	.loc 4 999 0
	uxtbeq	r3, r0
	.loc 4 998 0
	andne	r3, r0, #15
.LBE6770:
.LBE6771:
	.loc 23 222 0
	stm	ip, {r0, r1}
	mov	lr, sp
	.loc 23 223 0
	cmp	r3, #1
	mov	r1, r0
.LVL976:
	beq	.L1284
.L1274:
	.loc 23 230 0
	ldm	lr, {r2, r3}
.LVL977:
	ldm	ip, {r0, r1}
	.loc 23 231 0
	add	sp, sp, #20
	.cfi_remember_state
	.cfi_def_cfa_offset 4
.LVL978:
	@ sp needed
	ldr	lr, [sp], #4
	.cfi_restore 14
	.cfi_def_cfa_offset 0
.LVL979:
	.loc 23 230 0
	b	Arch_sameRegionAs
.LVL980:
.L1284:
	.cfi_restore_state
.LBB6772:
.LBB6773:
	.loc 4 997 0 discriminator 1
	and	r3, r2, #14
	cmp	r3, #14
	.loc 4 999 0 discriminator 1
	uxtbeq	r3, r2
.LVL981:
	.loc 4 998 0 discriminator 1
	andne	r3, r2, #15
.LBE6773:
.LBE6772:
	.loc 23 223 0 discriminator 1
	cmp	r3, #1
	bne	.L1274
.LVL982:
.LBB6774:
.LBB6775:
	.loc 4 1766 0
	and	r3, r0, #15
	cmp	r3, #1
	bne	.L1278
.LBE6775:
.LBE6774:
.LBB6779:
.LBB6780:
	and	r0, r2, #15
.LBE6780:
.LBE6779:
.LBB6783:
.LBB6776:
	.loc 4 1769 0
	movw	r3, #65520
	movt	r3, 255
.LBE6776:
.LBE6783:
.LBB6784:
.LBB6781:
	.loc 4 1766 0
	cmp	r0, #1
.LBE6781:
.LBE6784:
.LBB6785:
.LBB6777:
	.loc 4 1769 0
	and	r0, r1, r3
	lsl	r0, r0, #8
.LVL983:
.LBE6777:
.LBE6785:
.LBB6786:
.LBB6782:
	.loc 4 1766 0
	bne	.L1278
.LVL984:
.LBE6782:
.LBE6786:
	.loc 23 226 0
	and	r3, r3, r2
	cmp	r0, r3, lsl #8
	movne	r0, #0
	beq	.L1285
.L1282:
	.loc 23 231 0
	add	sp, sp, #20
	.cfi_remember_state
	.cfi_def_cfa_offset 4
	@ sp needed
	ldr	pc, [sp], #4
.L1285:
	.cfi_restore_state
	.loc 23 226 0
	lsr	r1, r1, #29
	cmp	r1, r2, lsr #29
	moveq	r0, #1
	movne	r0, #0
	b	.L1282
.L1278:
.LBB6787:
.LBB6778:
	bl	cap_frame_cap_get_capFBasePtr.isra.101.part.102
.LVL985:
.LBE6778:
.LBE6787:
	.cfi_endproc
.LFE448:
	.size	Arch_sameObjectAs, .-Arch_sameObjectAs
	.align	2
	.syntax unified
	.arm
	.type	cap_get_capExtraComp, %function
cap_get_capExtraComp:
.LFB215:
	.file 36 "/home/mint/seL4/dhs-demo-feb-2018/kernel/include/arch/arm/arch/object/capspace.h"
	.loc 36 133 0
	.cfi_startproc
	@ args = 0, pretend = 0, frame = 8
	@ frame_needed = 0, uses_anonymous_args = 0
.LBB6818:
.LBB6819:
	.loc 4 997 0
	and	r2, r0, #14
.LBE6819:
.LBE6818:
	.loc 36 133 0
	push	{r4, r5, lr}
	.cfi_def_cfa_offset 12
	.cfi_offset 4, -12
	.cfi_offset 5, -8
	.cfi_offset 14, -4
.LBB6822:
.LBB6820:
	.loc 4 997 0
	cmp	r2, #14
.LBE6820:
.LBE6822:
	.loc 36 133 0
	sub	sp, sp, #12
	.cfi_def_cfa_offset 24
.LBB6823:
.LBB6821:
	.loc 4 999 0
	uxtbeq	r2, r0
	.loc 4 998 0
	andne	r2, r0, #15
.LBE6821:
.LBE6823:
	.loc 36 133 0
	stm	sp, {r0, r1}
	mov	r4, r0
	.loc 36 134 0
	cmp	r2, #1
	mov	r5, r1
.LVL986:
	beq	.L1290
	cmp	r2, #3
	bne	.L1305
.LVL987:
.LBB6824:
.LBB6825:
	.loc 4 1803 0
	and	r4, r0, #15
	cmp	r4, #3
	bne	.L1306
	.loc 4 1806 0
	bic	r0, r1, #4080
.LVL988:
	bic	r0, r0, #15
.LBE6825:
.LBE6824:
	.loc 36 150 0
	cmp	r0, #0
	beq	.L1289
.LVL989:
.L1303:
	.loc 36 153 0
	ubfx	r5, r5, #0, #12
.LVL990:
	add	r0, r0, r5, lsl #2
	.loc 36 157 0
	add	sp, sp, #12
	.cfi_remember_state
	.cfi_def_cfa_offset 12
.LVL991:
	@ sp needed
	pop	{r4, r5, pc}
.LVL992:
.L1305:
	.cfi_restore_state
	.loc 36 155 0
	mov	r0, #0
.LVL993:
.L1289:
	.loc 36 157 0
	add	sp, sp, #12
	.cfi_remember_state
	.cfi_def_cfa_offset 12
.LVL994:
	@ sp needed
	pop	{r4, r5, pc}
.LVL995:
.L1290:
	.cfi_restore_state
	.loc 36 136 0
	ldm	sp, {r0, r1}
.LVL996:
	bl	cap_frame_cap_get_capFMappedObject
.LVL997:
	cmp	r0, #0
	beq	.L1289
.LVL998:
.LBB6827:
.LBB6828:
	.loc 4 1687 0
	and	r3, r4, #15
	cmp	r3, #1
	bne	.L1307
.LVL999:
.LBE6828:
.LBE6827:
	.loc 36 139 0
	lsr	r4, r4, #29
.LVL1000:
	cmp	r4, #3
	ldrls	pc, [pc, r4, asl #2]
	b	.L1293
.L1295:
	.word	.L1303
	.word	.L1303
	.word	.L1303
	.word	.L1303
.L1293:
.LBB6830:
.LBB6831:
	.loc 36 147 0
	movw	r1, #:lower16:.LC56
	movw	r0, #:lower16:.LC57
	movt	r1, #:upper16:.LC56
	movt	r0, #:upper16:.LC57
	ldr	r3, .L1308
	mov	r2, #147
	bl	_fail
.LVL1001:
.L1307:
.LBE6831:
.LBE6830:
.LBB6832:
.LBB6829:
	bl	cap_frame_cap_get_capFSize.isra.121.part.122
.LVL1002:
.L1306:
.LBE6829:
.LBE6832:
.LBB6833:
.LBB6826:
	bl	cap_page_table_cap_get_capPTMappedObject.part.108
.LVL1003:
.L1309:
	.align	2
.L1308:
	.word	.LANCHOR4+1344
.LBE6826:
.LBE6833:
	.cfi_endproc
.LFE215:
	.size	cap_get_capExtraComp, .-cap_get_capExtraComp
	.align	2
	.syntax unified
	.arm
	.type	cap_extra_comp, %function
cap_extra_comp:
.LFB488:
	.loc 3 110 0
	.cfi_startproc
	@ args = 0, pretend = 0, frame = 0
	@ frame_needed = 0, uses_anonymous_args = 0
.LVL1004:
	push	{r4, r5, r6, lr}
	.cfi_def_cfa_offset 16
	.cfi_offset 4, -16
	.cfi_offset 5, -12
	.cfi_offset 6, -8
	.cfi_offset 14, -4
	.loc 3 110 0
	mov	r4, r1
.LBB6834:
	.loc 3 111 0
	ldm	r0, {r0, r1}
.LVL1005:
	bl	cap_get_capExtraComp
.LVL1006:
	mov	r5, r0
.LVL1007:
	ldm	r4, {r0, r1}
.LVL1008:
	bl	cap_get_capExtraComp
.LVL1009:
	cmp	r5, r0
	beq	.L1312
	.loc 3 111 0 is_stmt 0 discriminator 1
	bls	.L1315
	.loc 3 111 0
	mov	r0, #1
.LVL1010:
.LBE6834:
	.loc 3 112 0 is_stmt 1
	pop	{r4, r5, r6, pc}
.LVL1011:
.L1312:
.LBB6835:
	.loc 3 111 0
	mov	r0, #0
.LVL1012:
	pop	{r4, r5, r6, pc}
.LVL1013:
.L1315:
	mvn	r0, #0
.LVL1014:
	pop	{r4, r5, r6, pc}
.LBE6835:
	.cfi_endproc
.LFE488:
	.size	cap_extra_comp, .-cap_extra_comp
	.section	.text.unlikely
	.align	2
	.syntax unified
	.arm
	.type	pde_pde_coarse_ptr_get_address.part.124, %function
pde_pde_coarse_ptr_get_address.part.124:
.LFB838:
	.loc 4 840 0
	.cfi_startproc
	@ Volatile: function does not return.
	@ args = 0, pretend = 0, frame = 0
	@ frame_needed = 0, uses_anonymous_args = 0
.LVL1015:
	.loc 4 842 0
	movw	r1, #:lower16:.LC29
	movw	r0, #:lower16:.LC58
	.loc 4 840 0
	push	{r4, lr}
	.cfi_def_cfa_offset 8
	.cfi_offset 4, -8
	.cfi_offset 14, -4
	.loc 4 842 0
	movt	r1, #:upper16:.LC29
	movt	r0, #:upper16:.LC58
	ldr	r3, .L1318
	movw	r2, #843
	bl	_assert_fail
.LVL1016:
.L1319:
	.align	2
.L1318:
	.word	.LANCHOR4+1368
	.cfi_endproc
.LFE838:
	.size	pde_pde_coarse_ptr_get_address.part.124, .-pde_pde_coarse_ptr_get_address.part.124
	.text
	.align	2
	.global	lookupPTSlot
	.syntax unified
	.arm
	.type	lookupPTSlot, %function
lookupPTSlot:
.LFB329:
	.loc 11 358 0
	.cfi_startproc
	@ args = 0, pretend = 0, frame = 0
	@ frame_needed = 0, uses_anonymous_args = 0
	@ link register save eliminated.
.LVL1017:
.LBB6858:
.LBB6859:
	.loc 4 753 0
	lsr	r3, r2, #20
	ldr	r3, [r1, r3, lsl #2]
.LVL1018:
.LBE6859:
.LBE6858:
	.loc 11 364 0
	and	r1, r3, #3
.LVL1019:
	cmp	r1, #1
	bne	.L1323
.LVL1020:
.LBB6860:
	.loc 11 381 0
	bic	r3, r3, #1020
.LVL1021:
	ubfx	r2, r2, #12, #8
.LVL1022:
	bic	r3, r3, #3
	mov	r1, #0
	add	r3, r3, #-805306368
	str	r2, [r0, #8]
.LVL1023:
	stm	r0, {r1, r3}
.LBE6860:
	.loc 11 383 0
	bx	lr
.LVL1024:
.L1323:
.LBB6861:
.LBB6862:
	.loc 11 365 0
	movw	r3, #:lower16:current_lookup_fault
	mov	r2, #0
.LVL1025:
	movt	r3, #:upper16:current_lookup_fault
	mov	ip, #81
	.loc 11 370 0
	mov	r1, #2
	.loc 11 365 0
	str	ip, [r3]
	str	r2, [r3, #4]
.LVL1026:
	.loc 11 370 0
	str	r2, [r0, #4]
	str	r2, [r0, #8]
.LVL1027:
	str	r1, [r0]
	bx	lr
.LBE6862:
.LBE6861:
	.cfi_endproc
.LFE329:
	.size	lookupPTSlot, .-lookupPTSlot
	.section	.text.unlikely
	.align	2
	.syntax unified
	.arm
	.type	fault_vm_fault_new.part.126, %function
fault_vm_fault_new.part.126:
.LFB840:
	.loc 4 596 0
	.cfi_startproc
	@ Volatile: function does not return.
	@ args = 0, pretend = 0, frame = 0
	@ frame_needed = 0, uses_anonymous_args = 0
.LVL1028:
	.loc 4 604 0
	movw	r1, #:lower16:.LC29
	movw	r0, #:lower16:.LC59
	.loc 4 596 0
	push	{r4, lr}
	.cfi_def_cfa_offset 8
	.cfi_offset 4, -8
	.cfi_offset 14, -4
	.loc 4 604 0
	movt	r1, #:upper16:.LC29
	movt	r0, #:upper16:.LC59
	ldr	r3, .L1326
	mov	r2, #604
	bl	_assert_fail
.LVL1029:
.L1327:
	.align	2
.L1326:
	.word	.LANCHOR4+1400
	.cfi_endproc
.LFE840:
	.size	fault_vm_fault_new.part.126, .-fault_vm_fault_new.part.126
	.align	2
	.syntax unified
	.arm
	.type	cap_page_table_cap_set_capPTMappedObject.part.132, %function
cap_page_table_cap_set_capPTMappedObject.part.132:
.LFB846:
	.loc 4 1815 0
	.cfi_startproc
	@ Volatile: function does not return.
	@ args = 0, pretend = 0, frame = 0
	@ frame_needed = 0, uses_anonymous_args = 0
.LVL1030:
	.loc 4 1816 0
	movw	r1, #:lower16:.LC29
	movw	r0, #:lower16:.LC45
	.loc 4 1815 0
	push	{r4, lr}
	.cfi_def_cfa_offset 8
	.cfi_offset 4, -8
	.cfi_offset 14, -4
	.loc 4 1816 0
	movt	r1, #:upper16:.LC29
	movt	r0, #:upper16:.LC45
	ldr	r3, .L1330
	movw	r2, #1817
	bl	_assert_fail
.LVL1031:
.L1331:
	.align	2
.L1330:
	.word	.LANCHOR4+1420
	.cfi_endproc
.LFE846:
	.size	cap_page_table_cap_set_capPTMappedObject.part.132, .-cap_page_table_cap_set_capPTMappedObject.part.132
	.text
	.align	2
	.syntax unified
	.arm
	.type	pde_pde_section_get_size.part.133, %function
pde_pde_section_get_size.part.133:
.LFB847:
	.loc 4 931 0
	.cfi_startproc
	@ Volatile: function does not return.
	@ args = 0, pretend = 0, frame = 0
	@ frame_needed = 0, uses_anonymous_args = 0
	.loc 4 933 0
	movw	r1, #:lower16:.LC29
	movw	r0, #:lower16:.LC60
	.loc 4 931 0
	push	{r4, lr}
	.cfi_def_cfa_offset 8
	.cfi_offset 4, -8
	.cfi_offset 14, -4
	.loc 4 933 0
	movt	r1, #:upper16:.LC29
	movt	r0, #:upper16:.LC60
	ldr	r3, .L1334
	movw	r2, #934
	bl	_assert_fail
.LVL1032:
.L1335:
	.align	2
.L1334:
	.word	.LANCHOR4+1464
	.cfi_endproc
.LFE847:
	.size	pde_pde_section_get_size.part.133, .-pde_pde_section_get_size.part.133
	.align	2
	.syntax unified
	.arm
	.type	pde_pde_section_get_address.part.134, %function
pde_pde_section_get_address.part.134:
.LFB848:
	.loc 4 903 0
	.cfi_startproc
	@ Volatile: function does not return.
	@ args = 0, pretend = 0, frame = 0
	@ frame_needed = 0, uses_anonymous_args = 0
	.loc 4 905 0
	movw	r1, #:lower16:.LC29
	movw	r0, #:lower16:.LC60
	.loc 4 903 0
	push	{r4, lr}
	.cfi_def_cfa_offset 8
	.cfi_offset 4, -8
	.cfi_offset 14, -4
	.loc 4 905 0
	movt	r1, #:upper16:.LC29
	movt	r0, #:upper16:.LC60
	ldr	r3, .L1338
	movw	r2, #906
	bl	_assert_fail
.LVL1033:
.L1339:
	.align	2
.L1338:
	.word	.LANCHOR4+1492
	.cfi_endproc
.LFE848:
	.size	pde_pde_section_get_address.part.134, .-pde_pde_section_get_address.part.134
	.section	.text.unlikely
	.align	2
	.syntax unified
	.arm
	.type	pte_pte_small_get_address.part.135, %function
pte_pte_small_get_address.part.135:
.LFB849:
	.loc 4 2189 0
	.cfi_startproc
	@ Volatile: function does not return.
	@ args = 0, pretend = 0, frame = 0
	@ frame_needed = 0, uses_anonymous_args = 0
	.loc 4 2191 0
	movw	r1, #:lower16:.LC29
	movw	r0, #:lower16:.LC61
	.loc 4 2189 0
	push	{r4, lr}
	.cfi_def_cfa_offset 8
	.cfi_offset 4, -8
	.cfi_offset 14, -4
	.loc 4 2191 0
	movt	r1, #:upper16:.LC29
	movt	r0, #:upper16:.LC61
	ldr	r3, .L1342
	mov	r2, #2192
	bl	_assert_fail
.LVL1034:
.L1343:
	.align	2
.L1342:
	.word	.LANCHOR4+1520
	.cfi_endproc
.LFE849:
	.size	pte_pte_small_get_address.part.135, .-pte_pte_small_get_address.part.135
	.text
	.align	2
	.syntax unified
	.arm
	.type	pte_get_pteType.part.136, %function
pte_get_pteType.part.136:
.LFB850:
	.loc 31 167 0
	.cfi_startproc
	@ Volatile: function does not return.
	@ args = 0, pretend = 0, frame = 0
	@ frame_needed = 0, uses_anonymous_args = 0
.LBB6867:
.LBB6868:
	.loc 4 2123 0
	movw	r1, #:lower16:.LC29
	movw	r0, #:lower16:.LC62
.LBE6868:
.LBE6867:
	.loc 31 167 0
	push	{r4, lr}
	.cfi_def_cfa_offset 8
	.cfi_offset 4, -8
	.cfi_offset 14, -4
.LBB6870:
.LBB6869:
	.loc 4 2123 0
	movt	r1, #:upper16:.LC29
	movt	r0, #:upper16:.LC62
	ldr	r3, .L1346
	movw	r2, #2124
	bl	_assert_fail
.LVL1035:
.L1347:
	.align	2
.L1346:
	.word	.LANCHOR4+1548
.LBE6869:
.LBE6870:
	.cfi_endproc
.LFE850:
	.size	pte_get_pteType.part.136, .-pte_get_pteType.part.136
	.section	.text.unlikely
	.align	2
	.syntax unified
	.arm
	.type	pte_pte_large_get_address.part.137, %function
pte_pte_large_get_address.part.137:
.LFB851:
	.loc 4 2079 0
	.cfi_startproc
	@ Volatile: function does not return.
	@ args = 0, pretend = 0, frame = 0
	@ frame_needed = 0, uses_anonymous_args = 0
	.loc 4 2081 0
	movw	r1, #:lower16:.LC29
	movw	r0, #:lower16:.LC62
	.loc 4 2079 0
	push	{r4, lr}
	.cfi_def_cfa_offset 8
	.cfi_offset 4, -8
	.cfi_offset 14, -4
	.loc 4 2081 0
	movt	r1, #:upper16:.LC29
	movt	r0, #:upper16:.LC62
	ldr	r3, .L1350
	movw	r2, #2082
	bl	_assert_fail
.LVL1036:
.L1351:
	.align	2
.L1350:
	.word	.LANCHOR4+1576
	.cfi_endproc
.LFE851:
	.size	pte_pte_large_get_address.part.137, .-pte_pte_large_get_address.part.137
	.align	2
	.syntax unified
	.arm
	.type	getSyscallArg.part.141, %function
getSyscallArg.part.141:
.LFB855:
	.file 37 "/home/mint/seL4/dhs-demo-feb-2018/kernel/include/api/syscall.h"
	.loc 37 27 0
	.cfi_startproc
	@ Volatile: function does not return.
	@ args = 0, pretend = 0, frame = 0
	@ frame_needed = 0, uses_anonymous_args = 0
.LVL1037:
	.loc 37 33 0
	movw	r1, #:lower16:.LC63
	movw	r0, #:lower16:.LC64
	.loc 37 27 0
	push	{r4, lr}
	.cfi_def_cfa_offset 8
	.cfi_offset 4, -8
	.cfi_offset 14, -4
	.loc 37 33 0
	movt	r1, #:upper16:.LC63
	movt	r0, #:upper16:.LC64
	ldr	r3, .L1354
	mov	r2, #33
	bl	_assert_fail
.LVL1038:
.L1355:
	.align	2
.L1354:
	.word	.LANCHOR4+1604
	.cfi_endproc
.LFE855:
	.size	getSyscallArg.part.141, .-getSyscallArg.part.141
	.align	2
	.syntax unified
	.arm
	.type	message_info_new.part.143, %function
message_info_new.part.143:
.LFB857:
	.loc 33 14 0
	.cfi_startproc
	@ Volatile: function does not return.
	@ args = 0, pretend = 0, frame = 0
	@ frame_needed = 0, uses_anonymous_args = 0
.LVL1039:
	.loc 33 20 0
	movw	r1, #:lower16:.LC65
	movw	r0, #:lower16:.LC66
	.loc 33 14 0
	push	{r4, lr}
	.cfi_def_cfa_offset 8
	.cfi_offset 4, -8
	.cfi_offset 14, -4
	.loc 33 20 0
	movt	r1, #:upper16:.LC65
	movt	r0, #:upper16:.LC66
	ldr	r3, .L1358
	mov	r2, #20
	bl	_assert_fail
.LVL1040:
.L1359:
	.align	2
.L1358:
	.word	.LANCHOR4+1620
	.cfi_endproc
.LFE857:
	.size	message_info_new.part.143, .-message_info_new.part.143
	.align	2
	.syntax unified
	.arm
	.type	cap_frame_cap_set_capFMappedIndex.part.144, %function
cap_frame_cap_set_capFMappedIndex.part.144:
.LFB858:
	.loc 4 1673 0
	.cfi_startproc
	@ Volatile: function does not return.
	@ args = 0, pretend = 0, frame = 0
	@ frame_needed = 0, uses_anonymous_args = 0
.LVL1041:
	.loc 4 1674 0
	movw	r1, #:lower16:.LC29
	movw	r0, #:lower16:.LC44
	.loc 4 1673 0
	push	{r4, lr}
	.cfi_def_cfa_offset 8
	.cfi_offset 4, -8
	.cfi_offset 14, -4
	.loc 4 1674 0
	movt	r1, #:upper16:.LC29
	movt	r0, #:upper16:.LC44
	ldr	r3, .L1362
	movw	r2, #1675
	bl	_assert_fail
.LVL1042:
.L1363:
	.align	2
.L1362:
	.word	.LANCHOR4+1640
	.cfi_endproc
.LFE858:
	.size	cap_frame_cap_set_capFMappedIndex.part.144, .-cap_frame_cap_set_capFMappedIndex.part.144
	.text
	.align	2
	.global	ackInterrupt
	.syntax unified
	.arm
	.type	ackInterrupt, %function
ackInterrupt:
.LFB427:
	.loc 18 357 0
	.cfi_startproc
	@ args = 0, pretend = 0, frame = 0
	@ frame_needed = 0, uses_anonymous_args = 0
.LVL1043:
	.loc 18 358 0
	movw	r1, #:lower16:.LANCHOR2
	.loc 18 357 0
	push	{r4, lr}
	.cfi_def_cfa_offset 8
	.cfi_offset 4, -8
	.cfi_offset 14, -4
	.loc 18 358 0
	movt	r1, #:upper16:.LANCHOR2
	ldr	ip, [r1, #8]
	ubfx	r2, ip, #0, #10
	cmp	r2, #1020
	bcs	.L1365
	.loc 18 358 0 is_stmt 0 discriminator 2
	cmp	r2, r0
	bne	.L1365
.LVL1044:
.LBB6885:
.LBB6886:
	.loc 18 157 0 is_stmt 1
	lsr	r0, r2, #4
.LVL1045:
	.loc 18 159 0
	ldr	lr, [r1]
.LBE6886:
.LBE6885:
	.loc 18 359 0
	and	r3, ip, #15
.LBB6889:
.LBB6887:
	.loc 18 159 0
	add	r0, r0, #768
.LBE6887:
.LBE6889:
	.loc 18 359 0
	lsl	r3, r3, #1
.LBB6890:
.LBB6888:
	.loc 18 159 0
	ldr	r0, [lr, r0, lsl #2]
.LBE6888:
.LBE6890:
	.loc 18 359 0
	add	r3, r3, #1
	lsr	r3, r0, r3
	tst	r3, #1
	beq	.L1367
.LVL1046:
.LBB6891:
.LBB6892:
	.loc 18 179 0
	lsr	r2, r2, #5
.LVL1047:
	.loc 18 182 0
	and	r0, ip, #31
	mov	r3, #1
	lsl	r3, r3, r0
	add	r2, r2, #160
.LVL1048:
	str	r3, [lr, r2, lsl #2]
.LVL1049:
.L1367:
.LBE6892:
.LBE6891:
	.loc 18 362 0
	ldr	r3, [r1, #4]
	.loc 18 363 0
	movw	r2, #1023
	str	r2, [r1, #8]
	.loc 18 362 0
	str	ip, [r3, #16]
	pop	{r4, pc}
.LVL1050:
.L1365:
.LBB6893:
.LBB6894:
	.loc 18 358 0
	movw	r1, #:lower16:.LC67
	movw	r0, #:lower16:.LC68
.LVL1051:
	movt	r1, #:upper16:.LC67
	movt	r0, #:upper16:.LC68
	ldr	r3, .L1372
	movw	r2, #358
	bl	_assert_fail
.LVL1052:
.L1373:
	.align	2
.L1372:
	.word	.LANCHOR4+1676
.LBE6894:
.LBE6893:
	.cfi_endproc
.LFE427:
	.size	ackInterrupt, .-ackInterrupt
	.align	2
	.global	plat_cleanL2Range
	.syntax unified
	.arm
	.type	plat_cleanL2Range, %function
plat_cleanL2Range:
.LFB434:
	.loc 20 368 0
	.cfi_startproc
	@ args = 0, pretend = 0, frame = 0
	@ frame_needed = 0, uses_anonymous_args = 0
.LVL1053:
	.loc 20 371 0
	movw	r2, #:lower16:.LANCHOR2
	movt	r2, #:upper16:.LANCHOR2
	ldr	r3, [r2, #12]
	ldr	ip, [r3, #4]
	tst	ip, #12288
	bne	.L1383
	.loc 20 374 0
	add	r1, r1, #32
.LVL1054:
	.loc 20 373 0
	bic	r0, r0, #31
.LVL1055:
	.loc 20 374 0
	bic	r1, r1, #31
.LVL1056:
	.loc 20 373 0
	cmp	r0, r1
	beq	.L1379
.L1378:
	.loc 20 376 0
	str	r0, [r3, #1968]
	.loc 20 375 0
	add	r0, r0, #32
.LVL1057:
	.loc 20 373 0
	cmp	r0, r1
	bne	.L1378
.L1379:
.LBB6909:
.LBB6910:
.LBB6911:
.LBB6912:
	.loc 12 23 0
	.syntax divided
@ 23 "/home/mint/seL4/dhs-demo-feb-2018/kernel/include/arch/arm/armv/armv7-a/armv/machine.h" 1
	dmb
@ 0 "" 2
	.arm
	.syntax unified
.LBE6912:
.LBE6911:
	.loc 20 353 0
	ldr	r2, [r2, #12]
	mov	r3, #0
	str	r3, [r2, #1840]
.L1377:
	.loc 20 354 0
	ldr	r3, [r2, #1840]
	tst	r3, #1
	bne	.L1377
	bx	lr
.LVL1058:
.L1383:
.LBE6910:
.LBE6909:
.LBB6913:
.LBB6914:
	.loc 20 371 0
	movw	r1, #:lower16:.LC69
.LVL1059:
	movw	r0, #:lower16:.LC70
.LVL1060:
.LBE6914:
.LBE6913:
	.loc 20 368 0
	push	{r4, lr}
	.cfi_def_cfa_offset 8
	.cfi_offset 4, -8
	.cfi_offset 14, -4
.LBB6916:
.LBB6915:
	.loc 20 371 0
	movt	r1, #:upper16:.LC69
	movt	r0, #:upper16:.LC70
	ldr	r3, .L1384
	movw	r2, #371
	bl	_assert_fail
.LVL1061:
.L1385:
	.align	2
.L1384:
	.word	.LANCHOR4+1692
.LBE6915:
.LBE6916:
	.cfi_endproc
.LFE434:
	.size	plat_cleanL2Range, .-plat_cleanL2Range
	.align	2
	.global	plat_invalidateL2Range
	.syntax unified
	.arm
	.type	plat_invalidateL2Range, %function
plat_invalidateL2Range:
.LFB435:
	.loc 20 384 0
	.cfi_startproc
	@ args = 0, pretend = 0, frame = 0
	@ frame_needed = 0, uses_anonymous_args = 0
.LVL1062:
	.loc 20 387 0
	movw	r2, #:lower16:.LANCHOR2
	movt	r2, #:upper16:.LANCHOR2
	ldr	r3, [r2, #12]
	ldr	ip, [r3, #4]
	tst	ip, #12288
	bne	.L1395
	.loc 20 393 0
	add	r1, r1, #32
.LVL1063:
	.loc 20 392 0
	bic	r0, r0, #31
.LVL1064:
	.loc 20 393 0
	bic	r1, r1, #31
.LVL1065:
	.loc 20 392 0
	cmp	r0, r1
	beq	.L1391
.L1390:
	.loc 20 395 0
	str	r0, [r3, #1904]
	.loc 20 394 0
	add	r0, r0, #32
.LVL1066:
	.loc 20 392 0
	cmp	r0, r1
	bne	.L1390
.L1391:
.LBB6931:
.LBB6932:
.LBB6933:
.LBB6934:
	.loc 12 23 0
	.syntax divided
@ 23 "/home/mint/seL4/dhs-demo-feb-2018/kernel/include/arch/arm/armv/armv7-a/armv/machine.h" 1
	dmb
@ 0 "" 2
	.arm
	.syntax unified
.LBE6934:
.LBE6933:
	.loc 20 353 0
	ldr	r2, [r2, #12]
	mov	r3, #0
	str	r3, [r2, #1840]
.L1389:
	.loc 20 354 0
	ldr	r3, [r2, #1840]
	tst	r3, #1
	bne	.L1389
	bx	lr
.LVL1067:
.L1395:
.LBE6932:
.LBE6931:
.LBB6935:
.LBB6936:
	.loc 20 387 0
	movw	r1, #:lower16:.LC69
.LVL1068:
	movw	r0, #:lower16:.LC70
.LVL1069:
.LBE6936:
.LBE6935:
	.loc 20 384 0
	push	{r4, lr}
	.cfi_def_cfa_offset 8
	.cfi_offset 4, -8
	.cfi_offset 14, -4
.LBB6938:
.LBB6937:
	.loc 20 387 0
	movt	r1, #:upper16:.LC69
	movt	r0, #:upper16:.LC70
	ldr	r3, .L1396
	movw	r2, #387
	bl	_assert_fail
.LVL1070:
.L1397:
	.align	2
.L1396:
	.word	.LANCHOR4+1712
.LBE6937:
.LBE6938:
	.cfi_endproc
.LFE435:
	.size	plat_invalidateL2Range, .-plat_invalidateL2Range
	.align	2
	.global	plat_cleanInvalidateL2Range
	.syntax unified
	.arm
	.type	plat_cleanInvalidateL2Range, %function
plat_cleanInvalidateL2Range:
.LFB436:
	.loc 20 403 0
	.cfi_startproc
	@ args = 0, pretend = 0, frame = 0
	@ frame_needed = 0, uses_anonymous_args = 0
.LVL1071:
	.loc 20 406 0
	movw	r2, #:lower16:.LANCHOR2
	movt	r2, #:upper16:.LANCHOR2
	ldr	r3, [r2, #12]
	ldr	ip, [r3, #4]
	tst	ip, #12288
	bne	.L1407
	.loc 20 409 0
	add	r1, r1, #32
.LVL1072:
	.loc 20 408 0
	bic	r0, r0, #31
.LVL1073:
	.loc 20 409 0
	bic	r1, r1, #31
.LVL1074:
	.loc 20 408 0
	cmp	r0, r1
	beq	.L1403
.L1402:
	.loc 20 412 0
	str	r0, [r3, #1968]
.LBB6959:
.LBB6960:
	.loc 12 23 0
	.syntax divided
@ 23 "/home/mint/seL4/dhs-demo-feb-2018/kernel/include/arch/arm/armv/armv7-a/armv/machine.h" 1
	dmb
@ 0 "" 2
	.arm
	.syntax unified
.LBE6960:
.LBE6959:
	.loc 20 414 0
	ldr	r3, [r2, #12]
	str	r0, [r3, #1904]
	.loc 20 410 0
	add	r0, r0, #32
.LVL1075:
	.loc 20 408 0
	cmp	r0, r1
	bne	.L1402
.L1403:
.LBB6961:
.LBB6962:
.LBB6963:
.LBB6964:
	.loc 12 23 0
	.syntax divided
@ 23 "/home/mint/seL4/dhs-demo-feb-2018/kernel/include/arch/arm/armv/armv7-a/armv/machine.h" 1
	dmb
@ 0 "" 2
	.arm
	.syntax unified
.LBE6964:
.LBE6963:
	.loc 20 353 0
	ldr	r2, [r2, #12]
	mov	r3, #0
	str	r3, [r2, #1840]
.L1401:
	.loc 20 354 0
	ldr	r3, [r2, #1840]
	tst	r3, #1
	bne	.L1401
	bx	lr
.LVL1076:
.L1407:
.LBE6962:
.LBE6961:
.LBB6965:
.LBB6966:
	.loc 20 406 0
	movw	r1, #:lower16:.LC69
.LVL1077:
	movw	r0, #:lower16:.LC70
.LVL1078:
.LBE6966:
.LBE6965:
	.loc 20 403 0
	push	{r4, lr}
	.cfi_def_cfa_offset 8
	.cfi_offset 4, -8
	.cfi_offset 14, -4
.LBB6968:
.LBB6967:
	.loc 20 406 0
	movt	r1, #:upper16:.LC69
	movt	r0, #:upper16:.LC70
	ldr	r3, .L1408
	movw	r2, #406
	bl	_assert_fail
.LVL1079:
.L1409:
	.align	2
.L1408:
	.word	.LANCHOR4+1736
.LBE6967:
.LBE6968:
	.cfi_endproc
.LFE436:
	.size	plat_cleanInvalidateL2Range, .-plat_cleanInvalidateL2Range
	.align	2
	.global	Arch_maskCapRights
	.syntax unified
	.arm
	.type	Arch_maskCapRights, %function
Arch_maskCapRights:
.LFB442:
	.loc 23 55 0
	.cfi_startproc
	@ args = 0, pretend = 0, frame = 16
	@ frame_needed = 0, uses_anonymous_args = 0
.LVL1080:
	str	lr, [sp, #-4]!
	.cfi_def_cfa_offset 4
	.cfi_offset 14, -4
	sub	sp, sp, #20
	.cfi_def_cfa_offset 24
	.loc 23 55 0
	stm	sp, {r2, r3}
	mov	r3, r2
.LVL1081:
.LBB6984:
.LBB6985:
	.loc 4 997 0
	and	r2, r2, #14
.LBE6985:
.LBE6984:
	.loc 23 55 0
	mov	ip, sp
.LBB6988:
.LBB6986:
	.loc 4 997 0
	cmp	r2, #14
.LBE6986:
.LBE6988:
	.loc 23 55 0
	mov	lr, r0
.LBB6989:
.LBB6987:
	.loc 4 999 0
	uxtbeq	r2, r3
	.loc 4 998 0
	andne	r2, r3, #15
.LBE6987:
.LBE6989:
	.loc 23 56 0
	cmp	r2, #1
	beq	.L1428
	.loc 23 65 0
	ldm	sp, {r0, r1}
.LVL1082:
	stm	lr, {r0, r1}
	.loc 23 67 0
	mov	r0, lr
	add	sp, sp, #20
	.cfi_remember_state
	.cfi_def_cfa_offset 4
	@ sp needed
	ldr	pc, [sp], #4
.LVL1083:
.L1428:
	.cfi_restore_state
.LBB6990:
.LBB6991:
.LBB6992:
	.loc 4 1701 0
	and	r2, r3, #15
	cmp	r2, #1
	bne	.L1429
	.loc 4 1704 0
	ubfx	r2, r3, #27, #2
.LVL1084:
.LBE6992:
.LBE6991:
.LBB6994:
.LBB6995:
	.loc 11 736 0
	cmp	r2, #0
	beq	.L1415
	.loc 11 739 0
	cmp	r2, #2
	beq	.L1430
	.loc 11 743 0
	cmp	r2, #3
	beq	.L1431
	ldm	ip, {r0, r1}
.LVL1085:
	add	ip, sp, #8
	mov	r2, #134217728
	stm	ip, {r0, r1}
.LVL1086:
	b	.L1418
.LVL1087:
.L1430:
	.loc 11 739 0
	tst	r1, #2
	moveq	r2, #134217728
	movne	r2, #268435456
.LVL1088:
.L1415:
	ldm	ip, {r0, r1}
.LVL1089:
	add	ip, sp, #8
	stm	ip, {r0, r1}
.L1418:
.LBE6995:
.LBE6994:
.LBB6997:
.LBB6998:
	.loc 4 1719 0
	bic	r3, r3, #402653184
.LVL1090:
	.loc 4 1721 0
	orr	r3, r2, r3
.LVL1091:
	str	r3, [sp, #8]
	ldm	ip, {r0, r1}
	stm	lr, {r0, r1}
.LBE6998:
.LBE6997:
.LBE6990:
	.loc 23 67 0
	mov	r0, lr
	add	sp, sp, #20
	.cfi_remember_state
	.cfi_def_cfa_offset 4
	@ sp needed
	ldr	pc, [sp], #4
.LVL1092:
.L1431:
	.cfi_restore_state
.LBB7001:
.LBB6999:
.LBB6996:
	.loc 11 743 0
	tst	r1, #2
	moveq	r2, #134217728
	beq	.L1415
.LVL1093:
	.loc 11 745 0
	tst	r1, #1
	movne	r2, #402653184
	moveq	r2, #268435456
	b	.L1415
.LVL1094:
.L1429:
.LBE6996:
.LBE6999:
.LBB7000:
.LBB6993:
	bl	cap_frame_cap_get_capFVMRights.isra.119.part.120
.LVL1095:
.LBE6993:
.LBE7000:
.LBE7001:
	.cfi_endproc
.LFE442:
	.size	Arch_maskCapRights, .-Arch_maskCapRights
	.section	.text.unlikely
	.align	2
	.syntax unified
	.arm
	.type	cap_untyped_cap_get_capBlockSize.part.149, %function
cap_untyped_cap_get_capBlockSize.part.149:
.LFB863:
	.loc 4 1061 0
	.cfi_startproc
	@ Volatile: function does not return.
	@ args = 0, pretend = 0, frame = 0
	@ frame_needed = 0, uses_anonymous_args = 0
	.loc 4 1063 0
	movw	r1, #:lower16:.LC29
	movw	r0, #:lower16:.LC42
	.loc 4 1061 0
	push	{r4, lr}
	.cfi_def_cfa_offset 8
	.cfi_offset 4, -8
	.cfi_offset 14, -4
	.loc 4 1063 0
	movt	r1, #:upper16:.LC29
	movt	r0, #:upper16:.LC42
	ldr	r3, .L1434
	movw	r2, #1064
	bl	_assert_fail
.LVL1096:
.L1435:
	.align	2
.L1434:
	.word	.LANCHOR4+1764
	.cfi_endproc
.LFE863:
	.size	cap_untyped_cap_get_capBlockSize.part.149, .-cap_untyped_cap_get_capBlockSize.part.149
	.text
	.align	2
	.syntax unified
	.arm
	.type	untyped_comparator, %function
untyped_comparator:
.LFB485:
	.loc 3 68 0
	.cfi_startproc
	@ args = 0, pretend = 0, frame = 0
	@ frame_needed = 0, uses_anonymous_args = 0
.LVL1097:
	ldr	r3, [r0]
.LVL1098:
	push	{r4, r5, r6, lr}
	.cfi_def_cfa_offset 16
	.cfi_offset 4, -16
	.cfi_offset 5, -12
	.cfi_offset 6, -8
	.cfi_offset 14, -4
	.loc 3 68 0
	mov	r4, r2
.LBB7019:
.LBB7020:
.LBB7021:
	.loc 4 1091 0
	and	r2, r3, #15
.LVL1099:
	cmp	r2, #2
	bne	.L1438
	ldr	r2, [r1]
	mov	lr, r1
	.loc 4 1094 0
	bic	r3, r3, #15
.LVL1100:
.LBE7021:
.LBE7020:
.LBB7023:
.LBB7024:
	.loc 4 1091 0
	and	r5, r2, #15
	cmp	r5, #2
	bne	.L1438
	.loc 4 1094 0
	bic	r2, r2, #15
.LVL1101:
.LBE7024:
.LBE7023:
	.loc 3 71 0
	cmp	r2, r3
	beq	.L1439
	.loc 3 71 0 is_stmt 0 discriminator 1
	bcs	.L1442
.L1440:
	.loc 3 71 0
	mov	r0, #1
.LVL1102:
	pop	{r4, r5, r6, pc}
.LVL1103:
.L1439:
.LBE7019:
.LBB7026:
.LBB7027:
.LBB7028:
	.loc 4 1066 0 is_stmt 1
	ldr	r3, [r0, #4]
.LBE7028:
.LBE7027:
.LBB7030:
.LBB7031:
	ldr	r2, [r1, #4]
.LBE7031:
.LBE7030:
.LBB7033:
.LBB7029:
	and	r3, r3, #31
.LVL1104:
.LBE7029:
.LBE7033:
.LBB7034:
.LBB7032:
	and	r2, r2, #31
.LBE7032:
.LBE7034:
	.loc 3 75 0
	cmp	r2, r3
	beq	.L1451
	.loc 3 75 0 is_stmt 0 discriminator 1
	bcs	.L1440
.LVL1105:
.L1442:
	.loc 3 75 0
	mvn	r0, #0
.LVL1106:
	pop	{r4, r5, r6, pc}
.LVL1107:
.L1451:
.LBE7026:
.LBB7035:
.LBB7036:
	.loc 3 106 0 is_stmt 1
	mov	r3, r4
	mov	r2, #0
.LBE7036:
.LBE7035:
	.loc 3 81 0
	pop	{r4, r5, r6, lr}
	.cfi_remember_state
	.cfi_restore 14
	.cfi_restore 6
	.cfi_restore 5
	.cfi_restore 4
	.cfi_def_cfa_offset 0
.LVL1108:
.LBB7038:
.LBB7037:
	.loc 3 106 0
	bx	r3
.LVL1109:
.L1438:
	.cfi_restore_state
.LBE7037:
.LBE7038:
.LBB7039:
.LBB7025:
.LBB7022:
	bl	cap_untyped_cap_get_capPtr.isra.94.part.95
.LVL1110:
.LBE7022:
.LBE7025:
.LBE7039:
	.cfi_endproc
.LFE485:
	.size	untyped_comparator, .-untyped_comparator
	.align	2
	.syntax unified
	.arm
	.type	cap_get_capSizeBits, %function
cap_get_capSizeBits:
.LFB209:
	.loc 30 293 0
	.cfi_startproc
	@ args = 0, pretend = 0, frame = 8
	@ frame_needed = 0, uses_anonymous_args = 0
	str	lr, [sp, #-4]!
	.cfi_def_cfa_offset 4
	.cfi_offset 14, -4
	sub	sp, sp, #12
	.cfi_def_cfa_offset 16
	.loc 30 293 0
	add	r3, sp, #8
	stmdb	r3, {r0, r1}
	ldr	r3, [sp]
	ldr	r0, [sp, #4]
.LVL1111:
.LBB7055:
.LBB7056:
	.loc 4 997 0
	and	r2, r3, #14
	cmp	r2, #14
	beq	.L1453
	.loc 4 998 0
	and	r2, r3, #15
.LVL1112:
.LBE7056:
.LBE7055:
	.loc 30 299 0
	cmp	r2, #14
	ldrls	pc, [pc, r2, asl #2]
	b	.L1454
.L1456:
	.word	.L1474
	.word	.L1454
	.word	.L1457
	.word	.L1454
	.word	.L1458
	.word	.L1454
	.word	.L1458
	.word	.L1454
	.word	.L1474
	.word	.L1454
	.word	.L1459
	.word	.L1454
	.word	.L1476
	.word	.L1454
	.word	.L1474
.L1474:
	.loc 30 324 0
	mov	r0, #0
.LVL1113:
.L1480:
	.loc 30 342 0
	add	sp, sp, #12
	.cfi_remember_state
	.cfi_def_cfa_offset 4
.LVL1114:
	@ sp needed
	ldr	pc, [sp], #4
.LVL1115:
.L1453:
	.cfi_restore_state
.LBB7058:
.LBB7057:
	.loc 4 999 0
	uxtb	r2, r3
.LVL1116:
.LBE7057:
.LBE7058:
	.loc 30 299 0
	cmp	r2, #62
	ldrls	pc, [pc, r2, asl #2]
	b	.L1454
.L1461:
	.word	.L1474
	.word	.L1454
	.word	.L1462
	.word	.L1454
	.word	.L1458
	.word	.L1454
	.word	.L1458
	.word	.L1454
	.word	.L1474
	.word	.L1454
	.word	.L1464
	.word	.L1454
	.word	.L1476
	.word	.L1454
	.word	.L1474
	.word	.L1454
	.word	.L1454
	.word	.L1454
	.word	.L1454
	.word	.L1454
	.word	.L1454
	.word	.L1454
	.word	.L1454
	.word	.L1454
	.word	.L1454
	.word	.L1454
	.word	.L1454
	.word	.L1454
	.word	.L1454
	.word	.L1454
	.word	.L1474
	.word	.L1454
	.word	.L1454
	.word	.L1454
	.word	.L1454
	.word	.L1454
	.word	.L1454
	.word	.L1454
	.word	.L1454
	.word	.L1454
	.word	.L1454
	.word	.L1454
	.word	.L1454
	.word	.L1454
	.word	.L1454
	.word	.L1454
	.word	.L1466
	.word	.L1454
	.word	.L1454
	.word	.L1454
	.word	.L1454
	.word	.L1454
	.word	.L1454
	.word	.L1454
	.word	.L1454
	.word	.L1454
	.word	.L1454
	.word	.L1454
	.word	.L1454
	.word	.L1454
	.word	.L1454
	.word	.L1454
	.word	.L1474
.L1466:
.LVL1117:
.LBB7059:
.LBB7060:
.LBB7061:
	.loc 4 1992 0
	ubfx	r3, r3, #8, #6
.LVL1118:
.LBE7061:
.LBE7060:
	.loc 30 317 0
	cmp	r3, #32
	.loc 30 320 0
	andne	r3, r3, #31
	addne	r0, r3, #4
.LVL1119:
	.loc 30 317 0
	bne	.L1480
.L1476:
	.loc 30 318 0
	mov	r0, #9
.LBE7059:
	.loc 30 342 0
	add	sp, sp, #12
	.cfi_remember_state
	.cfi_def_cfa_offset 4
.LVL1120:
	@ sp needed
	ldr	pc, [sp], #4
.LVL1121:
.L1457:
	.cfi_restore_state
.LBB7062:
.LBB7063:
	.loc 4 1066 0
	and	r0, r0, #31
.LVL1122:
.LBE7063:
.LBE7062:
	.loc 30 301 0
	b	.L1480
.LVL1123:
.L1458:
	.loc 30 304 0
	mov	r0, #4
.LVL1124:
	b	.L1480
.LVL1125:
.L1459:
	.loc 30 310 0
	ubfx	r0, r0, #18, #5
.LVL1126:
	add	r0, r0, #4
	b	.L1480
.LVL1127:
.L1454:
.LBB7065:
.LBB7066:
	.loc 31 113 0
	cmp	r2, #3
	beq	.L1469
	cmp	r2, #5
	beq	.L1475
	cmp	r2, #1
	beq	.L1486
	.loc 31 126 0
	movw	r1, #:lower16:.LC46
	movw	r0, #:lower16:.LC47
.LVL1128:
	movt	r1, #:upper16:.LC46
	movt	r0, #:upper16:.LC47
	ldr	r3, .L1488
.LVL1129:
	mov	r2, #126
	bl	_assert_fail
.LVL1130:
.L1462:
.LBE7066:
.LBE7065:
.LBB7073:
.LBB7064:
	.loc 4 1063 0
	and	r2, r3, #15
	cmp	r2, #2
	beq	.L1457
	bl	cap_untyped_cap_get_capBlockSize.part.149
.LVL1131:
.L1464:
.LBE7064:
.LBE7073:
.LBB7074:
.LBB7075:
	.loc 4 1519 0
	and	r2, r3, #15
	cmp	r2, #10
	beq	.L1459
	bl	cap_cnode_cap_get_capCNodeRadix.part.78
.LVL1132:
.L1475:
.LBE7075:
.LBE7074:
.LBB7076:
.LBB7071:
	.loc 31 121 0
	mov	r0, #14
.LVL1133:
	b	.L1480
.LVL1134:
.L1486:
.LBB7067:
.LBB7068:
	.loc 4 1687 0
	and	r2, r3, #15
	cmp	r2, #1
	bne	.L1487
.LVL1135:
.LBE7068:
.LBE7067:
	.loc 31 115 0
	lsr	r0, r3, #29
.LVL1136:
.LBE7071:
.LBE7076:
	.loc 30 342 0
	add	sp, sp, #12
	.cfi_remember_state
	.cfi_def_cfa_offset 4
	@ sp needed
	ldr	lr, [sp], #4
	.cfi_restore 14
	.cfi_def_cfa_offset 0
.LBB7077:
.LBB7072:
	.loc 31 115 0
	b	pageBitsForSize
.LVL1137:
.L1469:
	.cfi_restore_state
	.loc 31 118 0
	mov	r0, #10
.LVL1138:
	b	.L1480
.LVL1139:
.L1487:
.LBB7070:
.LBB7069:
	bl	cap_frame_cap_get_capFSize.isra.121.part.122
.LVL1140:
.L1489:
	.align	2
.L1488:
	.word	.LANCHOR4+1800
.LBE7069:
.LBE7070:
.LBE7072:
.LBE7077:
	.cfi_endproc
.LFE209:
	.size	cap_get_capSizeBits, .-cap_get_capSizeBits
	.section	.text.unlikely
	.align	2
	.syntax unified
	.arm
	.type	fault_cap_fault_get_address.part.152, %function
fault_cap_fault_get_address.part.152:
.LFB866:
	.loc 4 568 0
	.cfi_startproc
	@ Volatile: function does not return.
	@ args = 0, pretend = 0, frame = 0
	@ frame_needed = 0, uses_anonymous_args = 0
	.loc 4 570 0
	movw	r1, #:lower16:.LC29
	movw	r0, #:lower16:.LC71
	.loc 4 568 0
	push	{r4, lr}
	.cfi_def_cfa_offset 8
	.cfi_offset 4, -8
	.cfi_offset 14, -4
	.loc 4 570 0
	movt	r1, #:upper16:.LC29
	movt	r0, #:upper16:.LC71
	ldr	r3, .L1492
	movw	r2, #571
	bl	_assert_fail
.LVL1141:
.L1493:
	.align	2
.L1492:
	.word	.LANCHOR4+1824
	.cfi_endproc
.LFE866:
	.size	fault_cap_fault_get_address.part.152, .-fault_cap_fault_get_address.part.152
	.align	2
	.syntax unified
	.arm
	.type	fault_cap_fault_get_inReceivePhase.isra.153.part.154, %function
fault_cap_fault_get_inReceivePhase.isra.153.part.154:
.LFB868:
	.loc 4 582 0
	.cfi_startproc
	@ Volatile: function does not return.
	@ args = 0, pretend = 0, frame = 0
	@ frame_needed = 0, uses_anonymous_args = 0
	.loc 4 584 0
	movw	r1, #:lower16:.LC29
	movw	r0, #:lower16:.LC71
	.loc 4 582 0
	push	{r4, lr}
	.cfi_def_cfa_offset 8
	.cfi_offset 4, -8
	.cfi_offset 14, -4
	.loc 4 584 0
	movt	r1, #:upper16:.LC29
	movt	r0, #:upper16:.LC71
	ldr	r3, .L1496
	movw	r2, #585
	bl	_assert_fail
.LVL1142:
.L1497:
	.align	2
.L1496:
	.word	.LANCHOR4+1852
	.cfi_endproc
.LFE868:
	.size	fault_cap_fault_get_inReceivePhase.isra.153.part.154, .-fault_cap_fault_get_inReceivePhase.isra.153.part.154
	.text
	.align	2
	.syntax unified
	.arm
	.type	setMRs_lookup_failure, %function
setMRs_lookup_failure:
.LFB455:
	.loc 24 38 0
	.cfi_startproc
	@ args = 4, pretend = 0, frame = 8
	@ frame_needed = 0, uses_anonymous_args = 0
.LVL1143:
	push	{r4, r5, r6, lr}
	.cfi_def_cfa_offset 16
	.cfi_offset 4, -16
	.cfi_offset 5, -12
	.cfi_offset 6, -8
	.cfi_offset 14, -4
	sub	sp, sp, #8
	.cfi_def_cfa_offset 24
	.loc 24 38 0
	ldr	r4, [sp, #24]
	mov	r5, r0
	add	r0, sp, #8
.LVL1144:
	stmdb	r0, {r2, r3}
	ldr	ip, [sp]
.LVL1145:
.LBB7192:
.LBB7193:
	.loc 24 22 0
	cmp	r4, #3
.LBE7193:
.LBE7192:
.LBB7203:
.LBB7204:
	.loc 4 2245 0
	and	r2, ip, #3
.LBE7204:
.LBE7203:
	.loc 24 42 0
	add	lr, r2, #1
.LVL1146:
.LBB7205:
.LBB7200:
	.loc 24 22 0
	bhi	.L1539
.LVL1147:
	.loc 24 30 0
	movw	r3, #:lower16:.LANCHOR4
	.loc 24 31 0
	add	r0, r4, #1
	.loc 24 30 0
	movt	r3, #:upper16:.LANCHOR4
	add	r3, r3, r4, lsl #2
.LBB7194:
.LBB7195:
	.loc 10 21 0
	ldr	r3, [r3, #1888]
	str	lr, [r5, r3, lsl #2]
.LVL1148:
.L1500:
.LBE7195:
.LBE7194:
.LBE7200:
.LBE7205:
	.loc 24 44 0
	cmp	r2, #2
	beq	.L1503
.L1541:
	cmp	r2, #3
	beq	.L1508
	cmp	r2, #1
	beq	.L1540
.LVL1149:
.L1533:
	.loc 24 69 0
	add	sp, sp, #8
	.cfi_remember_state
	.cfi_def_cfa_offset 16
	@ sp needed
	pop	{r4, r5, r6, pc}
.LVL1150:
.L1539:
	.cfi_restore_state
.LBB7206:
.LBB7201:
.LBB7196:
.LBB7197:
	.loc 24 23 0
	cmp	r1, #0
	.loc 24 27 0
	moveq	r0, #4
	.loc 24 23 0
	beq	.L1500
.LBE7197:
.LBE7196:
.LBE7201:
.LBE7206:
	.loc 24 44 0
	cmp	r2, #2
.LBB7207:
.LBB7202:
.LBB7199:
.LBB7198:
	.loc 24 24 0
	add	r0, r4, #1
	str	lr, [r1, r0, lsl #2]
.LVL1151:
.LBE7198:
.LBE7199:
.LBE7202:
.LBE7207:
	.loc 24 44 0
	bne	.L1541
.LVL1152:
.L1503:
	.loc 24 53 0
	add	r2, r4, #1
.LVL1153:
.LBB7208:
.LBB7209:
	.loc 4 2333 0
	ubfx	lr, ip, #2, #6
.LVL1154:
.LBE7209:
.LBE7208:
.LBB7210:
.LBB7211:
	.loc 24 22 0
	cmp	r2, #3
	bhi	.L1542
.LVL1155:
	.loc 24 30 0
	movw	r3, #:lower16:.LANCHOR4
.LBE7211:
.LBE7210:
	.loc 24 55 0
	add	r0, r4, #2
.LBB7223:
.LBB7218:
	.loc 24 30 0
	movt	r3, #:upper16:.LANCHOR4
.LBE7218:
.LBE7223:
.LBB7224:
.LBB7225:
	.loc 24 22 0
	cmp	r0, #4
.LBE7225:
.LBE7224:
.LBB7235:
.LBB7219:
	.loc 24 30 0
	add	r2, r3, r2, lsl #2
.LVL1156:
.LBE7219:
.LBE7235:
.LBB7236:
.LBB7237:
	.loc 4 2319 0
	ubfx	ip, ip, #8, #6
.LVL1157:
.LBE7237:
.LBE7236:
.LBB7240:
.LBB7220:
.LBB7212:
.LBB7213:
	.loc 10 21 0
	ldr	r2, [r2, #1888]
	str	lr, [r5, r2, lsl #2]
.LVL1158:
.LBE7213:
.LBE7212:
.LBE7220:
.LBE7240:
.LBB7241:
.LBB7230:
	.loc 24 22 0
	beq	.L1543
.LVL1159:
.L1507:
	.loc 24 30 0
	add	r3, r3, r0, lsl #2
	.loc 24 31 0
	add	r0, r4, #3
.LBB7226:
.LBB7227:
	.loc 10 21 0
	ldr	r3, [r3, #1888]
	str	ip, [r5, r3, lsl #2]
.LVL1160:
.LBE7227:
.LBE7226:
.LBE7230:
.LBE7241:
	.loc 24 69 0
	add	sp, sp, #8
	.cfi_remember_state
	.cfi_def_cfa_offset 16
.LVL1161:
	@ sp needed
	pop	{r4, r5, r6, pc}
.LVL1162:
.L1508:
	.cfi_restore_state
	.loc 24 59 0
	add	r2, r4, #1
.LVL1163:
.LBB7242:
.LBB7243:
	.loc 4 2382 0
	ubfx	lr, ip, #8, #6
.LVL1164:
.LBE7243:
.LBE7242:
.LBB7244:
.LBB7245:
	.loc 24 22 0
	cmp	r2, #3
	bhi	.L1544
.LVL1165:
	.loc 24 30 0
	movw	r3, #:lower16:.LANCHOR4
.LBE7245:
.LBE7244:
	.loc 24 61 0
	add	r0, r4, #2
.LBB7256:
.LBB7252:
	.loc 24 30 0
	movt	r3, #:upper16:.LANCHOR4
.LBE7252:
.LBE7256:
.LBB7257:
.LBB7258:
	.loc 24 22 0
	cmp	r0, #4
.LBE7258:
.LBE7257:
.LBB7280:
.LBB7253:
	.loc 24 30 0
	add	r2, r3, r2, lsl #2
.LVL1166:
	ldr	r6, [sp, #4]
.LBB7246:
.LBB7247:
	.loc 10 21 0
	ldr	r2, [r2, #1888]
	str	lr, [r5, r2, lsl #2]
.LVL1167:
.LBE7247:
.LBE7246:
.LBE7253:
.LBE7280:
.LBB7281:
.LBB7271:
	.loc 24 22 0
	beq	.L1545
.LVL1168:
.L1513:
	.loc 24 30 0
	add	r0, r3, r0, lsl #2
.LBE7271:
.LBE7281:
	.loc 24 63 0
	add	r2, r4, #3
.LBB7282:
.LBB7283:
	.loc 24 22 0
	cmp	r2, #3
.LBE7283:
.LBE7282:
.LBB7295:
.LBB7272:
.LBB7259:
.LBB7260:
	.loc 10 21 0
	ldr	r0, [r0, #1888]
.LBE7260:
.LBE7259:
.LBE7272:
.LBE7295:
.LBB7296:
.LBB7297:
	.loc 4 2396 0
	ubfx	ip, ip, #2, #6
.LVL1169:
.LBE7297:
.LBE7296:
.LBB7301:
.LBB7273:
.LBB7263:
.LBB7261:
	.loc 10 21 0
	str	r6, [r5, r0, lsl #2]
.LVL1170:
.LBE7261:
.LBE7263:
.LBE7273:
.LBE7301:
.LBB7302:
.LBB7290:
	.loc 24 22 0
	bhi	.L1546
.LVL1171:
.L1516:
	.loc 24 30 0
	add	r3, r3, r2, lsl #2
	.loc 24 31 0
	add	r0, r4, #4
.LBB7284:
.LBB7285:
	.loc 10 21 0
	ldr	r3, [r3, #1888]
	str	ip, [r5, r3, lsl #2]
.LVL1172:
.LBE7285:
.LBE7284:
.LBE7290:
.LBE7302:
	.loc 24 69 0
	add	sp, sp, #8
	.cfi_remember_state
	.cfi_def_cfa_offset 16
.LVL1173:
	@ sp needed
	pop	{r4, r5, r6, pc}
.LVL1174:
.L1540:
	.cfi_restore_state
	.loc 24 49 0
	add	r2, r4, #1
.LVL1175:
.LBB7303:
.LBB7304:
	.loc 4 2285 0
	ubfx	ip, ip, #2, #6
.LVL1176:
.LBE7304:
.LBE7303:
.LBB7305:
.LBB7306:
	.loc 24 22 0
	cmp	r2, #3
	bhi	.L1547
.LVL1177:
	.loc 24 30 0
	movw	r3, #:lower16:.LANCHOR4
	.loc 24 31 0
	add	r0, r4, #2
	.loc 24 30 0
	movt	r3, #:upper16:.LANCHOR4
	add	r3, r3, r2, lsl #2
.LBB7307:
.LBB7308:
	.loc 10 21 0
	ldr	r3, [r3, #1888]
	str	ip, [r5, r3, lsl #2]
.LVL1178:
.LBE7308:
.LBE7307:
.LBE7306:
.LBE7305:
	.loc 24 69 0
	add	sp, sp, #8
	.cfi_remember_state
	.cfi_def_cfa_offset 16
.LVL1179:
	@ sp needed
	pop	{r4, r5, r6, pc}
.LVL1180:
.L1544:
	.cfi_restore_state
.LBB7315:
.LBB7254:
.LBB7248:
.LBB7249:
	.loc 24 23 0
	cmp	r1, #0
	.loc 24 24 0
	add	r3, r4, #2
	ldr	r6, [sp, #4]
	.loc 24 23 0
	beq	.L1510
.LBE7249:
.LBE7248:
.LBE7254:
.LBE7315:
.LBB7316:
.LBB7274:
	.loc 24 22 0
	cmp	r3, #3
.LBE7274:
.LBE7316:
.LBB7317:
.LBB7255:
.LBB7251:
.LBB7250:
	.loc 24 24 0
	str	lr, [r1, r3, lsl #2]
.LVL1181:
.LBE7250:
.LBE7251:
.LBE7255:
.LBE7317:
.LBB7318:
.LBB7275:
	.loc 24 22 0
	bhi	.L1511
.LVL1182:
	movw	r3, #:lower16:.LANCHOR4
.LVL1183:
.LBB7264:
.LBB7262:
	.loc 10 21 0
	str	r6, [r5, #8]
.LVL1184:
.LBE7262:
.LBE7264:
.LBE7275:
.LBE7318:
.LBB7319:
.LBB7298:
	.loc 4 2396 0
	ubfx	ip, ip, #2, #6
.LVL1185:
	movt	r3, #:upper16:.LANCHOR4
	mov	r2, #1
.LVL1186:
	b	.L1516
.LVL1187:
.L1542:
.LBE7298:
.LBE7319:
.LBB7320:
.LBB7221:
.LBB7214:
.LBB7215:
	.loc 24 23 0
	cmp	r1, #0
	.loc 24 24 0
	add	r3, r4, #2
	.loc 24 23 0
	beq	.L1505
.LBE7215:
.LBE7214:
.LBE7221:
.LBE7320:
.LBB7321:
.LBB7231:
	.loc 24 22 0
	cmp	r3, #3
.LBE7231:
.LBE7321:
.LBB7322:
.LBB7238:
	.loc 4 2319 0
	ubfx	ip, ip, #8, #6
.LVL1188:
.LBE7238:
.LBE7322:
.LBB7323:
.LBB7222:
.LBB7217:
.LBB7216:
	.loc 24 24 0
	str	lr, [r1, r3, lsl #2]
.LVL1189:
.LBE7216:
.LBE7217:
.LBE7222:
.LBE7323:
.LBB7324:
.LBB7232:
	.loc 24 22 0
	bhi	.L1506
	movw	r3, #:lower16:.LANCHOR4
.LVL1190:
	mov	r0, #0
	movt	r3, #:upper16:.LANCHOR4
	b	.L1507
.LVL1191:
.L1547:
.LBE7232:
.LBE7324:
.LBB7325:
.LBB7313:
.LBB7309:
.LBB7310:
	.loc 24 23 0
	cmp	r1, #0
	beq	.L1501
	.loc 24 24 0
	add	r0, r4, #2
	str	ip, [r1, r0, lsl #2]
.LVL1192:
	b	.L1533
.LVL1193:
.L1546:
.LBE7310:
.LBE7309:
.LBE7313:
.LBE7325:
.LBB7326:
.LBB7291:
.LBB7286:
.LBB7287:
	.loc 24 23 0
	cmp	r1, #0
	bne	.L1515
.LVL1194:
.L1501:
.LBE7287:
.LBE7286:
.LBE7291:
.LBE7326:
.LBB7327:
.LBB7314:
.LBB7312:
.LBB7311:
	.loc 24 27 0
	mov	r0, #4
	b	.L1533
.LVL1195:
.L1505:
.LBE7311:
.LBE7312:
.LBE7314:
.LBE7327:
.LBB7328:
.LBB7233:
	.loc 24 22 0
	cmp	r3, #3
	bhi	.L1501
	movw	r3, #:lower16:.LANCHOR4
.LBE7233:
.LBE7328:
.LBB7329:
.LBB7239:
	.loc 4 2319 0
	ubfx	ip, ip, #8, #6
.LVL1196:
	mov	r0, r1
	movt	r3, #:upper16:.LANCHOR4
	b	.L1507
.LVL1197:
.L1510:
.LBE7239:
.LBE7329:
.LBB7330:
.LBB7276:
	.loc 24 22 0
	cmp	r3, #3
	bhi	.L1514
	movw	r3, #:lower16:.LANCHOR4
	mov	r0, r1
	movt	r3, #:upper16:.LANCHOR4
	b	.L1513
.LVL1198:
.L1543:
.LBE7276:
.LBE7330:
.LBB7331:
.LBB7234:
.LBB7228:
.LBB7229:
	.loc 24 23 0
	cmp	r1, #0
	beq	.L1501
.LVL1199:
.L1506:
	.loc 24 24 0
	add	r0, r4, #3
	str	ip, [r1, r0, lsl #2]
.LVL1200:
	b	.L1533
.LVL1201:
.L1511:
.LBE7229:
.LBE7228:
.LBE7234:
.LBE7331:
.LBB7332:
.LBB7277:
.LBB7265:
.LBB7266:
	add	r3, r4, #3
.LBE7266:
.LBE7265:
.LBE7277:
.LBE7332:
.LBB7333:
.LBB7299:
	.loc 4 2396 0
	ubfx	ip, ip, #2, #6
.LVL1202:
.LBE7299:
.LBE7333:
.LBB7334:
.LBB7292:
	.loc 24 22 0
	cmp	r3, #3
.LBE7292:
.LBE7334:
.LBB7335:
.LBB7278:
.LBB7269:
.LBB7267:
	.loc 24 24 0
	str	r6, [r1, r3, lsl #2]
.LVL1203:
.LBE7267:
.LBE7269:
.LBE7278:
.LBE7335:
.LBB7336:
.LBB7293:
	.loc 24 22 0
	movwls	r3, #:lower16:.LANCHOR4
.LVL1204:
	movls	r2, #0
	movtls	r3, #:upper16:.LANCHOR4
	bls	.L1516
.LVL1205:
.L1515:
.LBB7289:
.LBB7288:
	.loc 24 24 0
	add	r0, r4, #4
	str	ip, [r1, r0, lsl #2]
.LVL1206:
	b	.L1533
.LVL1207:
.L1545:
.LBE7288:
.LBE7289:
.LBE7293:
.LBE7336:
.LBB7337:
.LBB7279:
.LBB7270:
.LBB7268:
	.loc 24 23 0
	cmp	r1, #0
	bne	.L1511
.LVL1208:
.L1514:
.LBE7268:
.LBE7270:
.LBE7279:
.LBE7337:
	.loc 24 63 0
	add	r2, r4, #3
.LVL1209:
.LBB7338:
.LBB7294:
	.loc 24 22 0
	cmp	r2, #3
	bhi	.L1501
	movw	r3, #:lower16:.LANCHOR4
.LBE7294:
.LBE7338:
.LBB7339:
.LBB7300:
	.loc 4 2396 0
	ubfx	ip, ip, #2, #6
.LVL1210:
	movt	r3, #:upper16:.LANCHOR4
	b	.L1516
.LBE7300:
.LBE7339:
	.cfi_endproc
.LFE455:
	.size	setMRs_lookup_failure, .-setMRs_lookup_failure
	.align	2
	.global	setMRs_syscall_error
	.syntax unified
	.arm
	.type	setMRs_syscall_error, %function
setMRs_syscall_error:
.LFB457:
	.loc 24 137 0
	.cfi_startproc
	@ args = 0, pretend = 0, frame = 0
	@ frame_needed = 0, uses_anonymous_args = 0
.LVL1211:
	.loc 24 138 0
	movw	r2, #:lower16:current_syscall_error
	.loc 24 137 0
	push	{r4, lr}
	.cfi_def_cfa_offset 8
	.cfi_offset 4, -8
	.cfi_offset 14, -4
	.loc 24 138 0
	movt	r2, #:upper16:current_syscall_error
	.loc 24 137 0
	sub	sp, sp, #8
	.cfi_def_cfa_offset 16
	.loc 24 137 0
	mov	ip, r0
	.loc 24 138 0
	ldr	r3, [r2, #24]
	sub	r3, r3, #1
	cmp	r3, #9
	ldrls	pc, [pc, r3, asl #2]
	b	.L1549
.L1551:
	.word	.L1550
	.word	.L1552
	.word	.L1557
	.word	.L1554
	.word	.L1557
	.word	.L1555
	.word	.L1557
	.word	.L1557
	.word	.L1557
	.word	.L1556
.L1557:
	.loc 24 148 0
	mov	r0, #0
.LVL1212:
	.loc 24 175 0
	add	sp, sp, #8
	.cfi_remember_state
	.cfi_def_cfa_offset 8
	@ sp needed
	pop	{r4, pc}
.LVL1213:
.L1554:
	.cfi_restore_state
.LBB7381:
.LBB7382:
.LBB7383:
	.loc 10 21 0
	ldr	r3, [r2, #12]
.LBE7383:
.LBE7382:
.LBE7381:
	.loc 24 153 0
	mov	r0, #2
.LVL1214:
.LBB7386:
.LBB7387:
.LBB7388:
	.loc 10 21 0
	ldr	r1, [r2, #8]
.LVL1215:
.LBE7388:
.LBE7387:
.LBE7386:
.LBB7391:
.LBB7385:
.LBB7384:
	str	r3, [ip, #12]
.LBE7384:
.LBE7385:
.LBE7391:
.LBB7392:
.LBB7390:
.LBB7389:
	str	r1, [ip, #8]
.LVL1216:
.LBE7389:
.LBE7390:
.LBE7392:
	.loc 24 175 0
	add	sp, sp, #8
	.cfi_remember_state
	.cfi_def_cfa_offset 8
	@ sp needed
	pop	{r4, pc}
.LVL1217:
.L1556:
	.cfi_restore_state
.LBB7393:
.LBB7394:
.LBB7395:
	.loc 10 21 0
	ldr	r3, [r2, #16]
.LBE7395:
.LBE7394:
.LBE7393:
	.loc 24 170 0
	mov	r0, #1
.LVL1218:
.LBB7398:
.LBB7397:
.LBB7396:
	.loc 10 21 0
	str	r3, [ip, #8]
.LVL1219:
.LBE7396:
.LBE7397:
.LBE7398:
	.loc 24 175 0
	add	sp, sp, #8
	.cfi_remember_state
	.cfi_def_cfa_offset 8
	@ sp needed
	pop	{r4, pc}
.LVL1220:
.L1555:
	.cfi_restore_state
.LBB7399:
.LBB7400:
.LBB7401:
.LBB7402:
.LBB7403:
	.loc 10 21 0
	ldr	lr, [r2, #20]
.LBE7403:
.LBE7402:
.LBE7401:
	.loc 24 162 0
	movw	r3, #:lower16:current_lookup_fault
	mov	r4, #1
	movt	r3, #:upper16:current_lookup_fault
	ldm	r3, {r2, r3}
.LBB7406:
.LBB7405:
.LBB7404:
	.loc 10 21 0
	adds	lr, lr, #0
	movne	lr, #1
	str	lr, [r0, #8]
.LVL1221:
.LBE7404:
.LBE7405:
.LBE7406:
	.loc 24 162 0
	str	r4, [sp]
	bl	setMRs_lookup_failure
.LVL1222:
.LBE7400:
.LBE7399:
	.loc 24 175 0
	add	sp, sp, #8
	.cfi_remember_state
	.cfi_def_cfa_offset 8
	@ sp needed
	pop	{r4, pc}
.LVL1223:
.L1550:
	.cfi_restore_state
.LBB7407:
.LBB7408:
.LBB7409:
	.loc 10 21 0
	ldr	r3, [r2]
.LBE7409:
.LBE7408:
.LBE7407:
	.loc 24 140 0
	mov	r0, #1
.LVL1224:
.LBB7412:
.LBB7411:
.LBB7410:
	.loc 10 21 0
	str	r3, [ip, #8]
.LVL1225:
.LBE7410:
.LBE7411:
.LBE7412:
	.loc 24 175 0
	add	sp, sp, #8
	.cfi_remember_state
	.cfi_def_cfa_offset 8
	@ sp needed
	pop	{r4, pc}
.LVL1226:
.L1552:
	.cfi_restore_state
.LBB7413:
.LBB7414:
.LBB7415:
	.loc 10 21 0
	ldr	r3, [r2, #4]
.LBE7415:
.LBE7414:
.LBE7413:
	.loc 24 144 0
	mov	r0, #1
.LVL1227:
.LBB7418:
.LBB7417:
.LBB7416:
	.loc 10 21 0
	str	r3, [ip, #8]
.LVL1228:
.LBE7416:
.LBE7417:
.LBE7418:
	.loc 24 175 0
	add	sp, sp, #8
	.cfi_def_cfa_offset 8
	@ sp needed
	pop	{r4, pc}
.LVL1229:
.L1549:
	.loc 24 173 0
	movw	r1, #:lower16:.LC72
.LVL1230:
	movw	r0, #:lower16:.LC73
.LVL1231:
	movt	r1, #:upper16:.LC72
	movt	r0, #:upper16:.LC73
	ldr	r3, .L1559
	mov	r2, #173
	bl	_fail
.LVL1232:
.L1560:
	.align	2
.L1559:
	.word	.LANCHOR4+1904
	.cfi_endproc
.LFE457:
	.size	setMRs_syscall_error, .-setMRs_syscall_error
	.section	.text.unlikely
	.align	2
	.syntax unified
	.arm
	.type	fault_vm_fault_get_address.part.162, %function
fault_vm_fault_get_address.part.162:
.LFB876:
	.loc 4 617 0
	.cfi_startproc
	@ Volatile: function does not return.
	@ args = 0, pretend = 0, frame = 0
	@ frame_needed = 0, uses_anonymous_args = 0
	.loc 4 619 0
	movw	r1, #:lower16:.LC29
	movw	r0, #:lower16:.LC74
	.loc 4 617 0
	push	{r4, lr}
	.cfi_def_cfa_offset 8
	.cfi_offset 4, -8
	.cfi_offset 14, -4
	.loc 4 619 0
	movt	r1, #:upper16:.LC29
	movt	r0, #:upper16:.LC74
	ldr	r3, .L1563
	mov	r2, #620
	bl	_assert_fail
.LVL1233:
.L1564:
	.align	2
.L1563:
	.word	.LANCHOR4+1928
	.cfi_endproc
.LFE876:
	.size	fault_vm_fault_get_address.part.162, .-fault_vm_fault_get_address.part.162
	.align	2
	.syntax unified
	.arm
	.type	fault_vm_fault_get_instructionFault.isra.163.part.164, %function
fault_vm_fault_get_instructionFault.isra.163.part.164:
.LFB878:
	.loc 4 645 0
	.cfi_startproc
	@ Volatile: function does not return.
	@ args = 0, pretend = 0, frame = 0
	@ frame_needed = 0, uses_anonymous_args = 0
	.loc 4 647 0
	movw	r1, #:lower16:.LC29
	movw	r0, #:lower16:.LC74
	.loc 4 645 0
	push	{r4, lr}
	.cfi_def_cfa_offset 8
	.cfi_offset 4, -8
	.cfi_offset 14, -4
	.loc 4 647 0
	movt	r1, #:upper16:.LC29
	movt	r0, #:upper16:.LC74
	ldr	r3, .L1567
	mov	r2, #648
	bl	_assert_fail
.LVL1234:
.L1568:
	.align	2
.L1567:
	.word	.LANCHOR4+1956
	.cfi_endproc
.LFE878:
	.size	fault_vm_fault_get_instructionFault.isra.163.part.164, .-fault_vm_fault_get_instructionFault.isra.163.part.164
	.align	2
	.syntax unified
	.arm
	.type	fault_vm_fault_get_FSR.isra.165.part.166, %function
fault_vm_fault_get_FSR.isra.165.part.166:
.LFB880:
	.loc 4 631 0
	.cfi_startproc
	@ Volatile: function does not return.
	@ args = 0, pretend = 0, frame = 0
	@ frame_needed = 0, uses_anonymous_args = 0
	.loc 4 633 0
	movw	r1, #:lower16:.LC29
	movw	r0, #:lower16:.LC74
	.loc 4 631 0
	push	{r4, lr}
	.cfi_def_cfa_offset 8
	.cfi_offset 4, -8
	.cfi_offset 14, -4
	.loc 4 633 0
	movt	r1, #:upper16:.LC29
	movt	r0, #:upper16:.LC74
	ldr	r3, .L1571
	movw	r2, #634
	bl	_assert_fail
.LVL1235:
.L1572:
	.align	2
.L1571:
	.word	.LANCHOR4+1992
	.cfi_endproc
.LFE880:
	.size	fault_vm_fault_get_FSR.isra.165.part.166, .-fault_vm_fault_get_FSR.isra.165.part.166
	.align	2
	.syntax unified
	.arm
	.type	fault_unknown_syscall_get_syscallNumber.part.167, %function
fault_unknown_syscall_get_syscallNumber.part.167:
.LFB881:
	.loc 4 674 0
	.cfi_startproc
	@ Volatile: function does not return.
	@ args = 0, pretend = 0, frame = 0
	@ frame_needed = 0, uses_anonymous_args = 0
	.loc 4 676 0
	movw	r1, #:lower16:.LC29
	movw	r0, #:lower16:.LC75
	.loc 4 674 0
	push	{r4, lr}
	.cfi_def_cfa_offset 8
	.cfi_offset 4, -8
	.cfi_offset 14, -4
	.loc 4 676 0
	movt	r1, #:upper16:.LC29
	movt	r0, #:upper16:.LC75
	ldr	r3, .L1575
	movw	r2, #677
	bl	_assert_fail
.LVL1236:
.L1576:
	.align	2
.L1575:
	.word	.LANCHOR4+2016
	.cfi_endproc
.LFE881:
	.size	fault_unknown_syscall_get_syscallNumber.part.167, .-fault_unknown_syscall_get_syscallNumber.part.167
	.align	2
	.syntax unified
	.arm
	.type	fault_user_exception_get_number.part.168, %function
fault_user_exception_get_number.part.168:
.LFB882:
	.loc 4 706 0
	.cfi_startproc
	@ Volatile: function does not return.
	@ args = 0, pretend = 0, frame = 0
	@ frame_needed = 0, uses_anonymous_args = 0
	.loc 4 708 0
	movw	r1, #:lower16:.LC29
	movw	r0, #:lower16:.LC76
	.loc 4 706 0
	push	{r4, lr}
	.cfi_def_cfa_offset 8
	.cfi_offset 4, -8
	.cfi_offset 14, -4
	.loc 4 708 0
	movt	r1, #:upper16:.LC29
	movt	r0, #:upper16:.LC76
	ldr	r3, .L1579
	movw	r2, #709
	bl	_assert_fail
.LVL1237:
.L1580:
	.align	2
.L1579:
	.word	.LANCHOR4+2056
	.cfi_endproc
.LFE882:
	.size	fault_user_exception_get_number.part.168, .-fault_user_exception_get_number.part.168
	.align	2
	.syntax unified
	.arm
	.type	fault_user_exception_get_code.isra.169.part.170, %function
fault_user_exception_get_code.isra.169.part.170:
.LFB884:
	.loc 4 720 0
	.cfi_startproc
	@ Volatile: function does not return.
	@ args = 0, pretend = 0, frame = 0
	@ frame_needed = 0, uses_anonymous_args = 0
	.loc 4 722 0
	movw	r1, #:lower16:.LC29
	movw	r0, #:lower16:.LC76
	.loc 4 720 0
	push	{r4, lr}
	.cfi_def_cfa_offset 8
	.cfi_offset 4, -8
	.cfi_offset 14, -4
	.loc 4 722 0
	movt	r1, #:upper16:.LC29
	movt	r0, #:upper16:.LC76
	ldr	r3, .L1583
	movw	r2, #723
	bl	_assert_fail
.LVL1238:
.L1584:
	.align	2
.L1583:
	.word	.LANCHOR4+2088
	.cfi_endproc
.LFE884:
	.size	fault_user_exception_get_code.isra.169.part.170, .-fault_user_exception_get_code.isra.169.part.170
	.text
	.align	2
	.global	setMRs_fault
	.syntax unified
	.arm
	.type	setMRs_fault, %function
setMRs_fault:
.LFB456:
	.loc 24 73 0
	.cfi_startproc
	@ args = 0, pretend = 0, frame = 0
	@ frame_needed = 0, uses_anonymous_args = 0
.LVL1239:
	push	{r4, lr}
	.cfi_def_cfa_offset 8
	.cfi_offset 4, -8
	.cfi_offset 14, -4
	mov	ip, r1
	.loc 24 74 0
	ldr	r3, [r0, #88]
	.loc 24 73 0
	sub	sp, sp, #8
	.cfi_def_cfa_offset 16
	.loc 24 73 0
	mov	r1, r2
.LVL1240:
	.loc 24 74 0
	and	r3, r3, #7
	sub	r3, r3, #1
	cmp	r3, #3
	ldrls	pc, [pc, r3, asl #2]
	b	.L1586
.L1588:
	.word	.L1587
	.word	.L1589
	.word	.L1590
	.word	.L1591
.L1591:
.LVL1241:
.LBB7485:
.LBB7486:
.LBB7487:
	.loc 10 21 0 discriminator 1
	ldr	r3, [r0, #68]
	str	r3, [ip, #8]
.LVL1242:
	ldr	r3, [r0, #52]
	str	r3, [ip, #12]
.LVL1243:
	ldr	r3, [r0, #64]
	str	r3, [ip, #16]
.LVL1244:
.LBE7487:
.LBE7486:
.LBB7488:
.LBB7489:
	.loc 4 708 0 discriminator 1
	ldr	r3, [r0, #88]
	ldr	r2, [r0, #92]
.LVL1245:
	and	r3, r3, #7
	cmp	r3, #4
	bne	.L1610
.LVL1246:
.LBE7489:
.LBE7488:
.LBB7491:
.LBB7492:
.LBB7493:
	.loc 10 21 0
	str	r2, [ip, #20]
.LVL1247:
	ldr	r3, [r0, #88]
.LVL1248:
.LBE7493:
.LBE7492:
.LBE7491:
.LBB7494:
.LBB7495:
	.loc 4 722 0
	and	r2, r3, #7
.LVL1249:
	cmp	r2, #4
	bne	.L1611
.LVL1250:
.LBE7495:
.LBE7494:
.LBB7497:
.LBB7498:
.LBB7499:
	.loc 24 23 0
	cmp	r1, #0
	beq	.L1595
	.loc 24 24 0
	lsr	r3, r3, #3
.LVL1251:
	.loc 24 25 0
	mov	r0, #5
.LVL1252:
	.loc 24 24 0
	str	r3, [r1, #20]
.LVL1253:
.LBE7499:
.LBE7498:
.LBE7497:
.LBE7485:
	.loc 24 133 0
	add	sp, sp, #8
	.cfi_remember_state
	.cfi_def_cfa_offset 8
	@ sp needed
	pop	{r4, pc}
.LVL1254:
.L1590:
	.cfi_restore_state
.LBB7502:
.LBB7503:
.LBB7504:
	.loc 10 21 0 discriminator 1
	ldr	r3, [r0]
.LBE7504:
.LBE7503:
	.loc 24 101 0 discriminator 1
	cmp	r2, #0
.LBB7506:
.LBB7505:
	.loc 10 21 0 discriminator 1
	str	r3, [ip, #8]
.LVL1255:
	ldr	r3, [r0, #4]
	str	r3, [ip, #12]
.LVL1256:
	ldr	r3, [r0, #8]
	str	r3, [ip, #16]
.LVL1257:
	ldr	r3, [r0, #12]
	str	r3, [ip, #20]
.LVL1258:
.LBE7505:
.LBE7506:
	.loc 24 101 0 discriminator 1
	beq	.L1595
.LVL1259:
.LBB7507:
.LBB7508:
	.loc 10 27 0
	ldr	r3, [r0, #16]
.LVL1260:
.LBE7508:
.LBE7507:
	.loc 24 103 0
	str	r3, [r2, #20]
.LVL1261:
.LBB7516:
.LBB7509:
	.loc 10 27 0
	ldr	r3, [r0, #20]
.LVL1262:
.LBE7509:
.LBE7516:
	.loc 24 103 0
	str	r3, [r2, #24]
.LVL1263:
.LBB7517:
.LBB7510:
	.loc 10 27 0
	ldr	r3, [r0, #24]
.LVL1264:
.LBE7510:
.LBE7517:
	.loc 24 103 0
	str	r3, [r2, #28]
.LVL1265:
.LBB7518:
.LBB7511:
	.loc 10 27 0
	ldr	r3, [r0, #28]
.LVL1266:
.LBE7511:
.LBE7518:
	.loc 24 103 0
	str	r3, [r2, #32]
.LVL1267:
.LBB7519:
.LBB7512:
	.loc 10 27 0
	ldr	r3, [r0, #68]
.LVL1268:
.LBE7512:
.LBE7519:
	.loc 24 103 0
	str	r3, [r2, #36]
.LVL1269:
.LBB7520:
.LBB7513:
	.loc 10 27 0
	ldr	r3, [r0, #52]
.LVL1270:
.LBE7513:
.LBE7520:
	.loc 24 103 0
	str	r3, [r2, #40]
.LVL1271:
.LBB7521:
.LBB7514:
	.loc 10 27 0
	ldr	r3, [r0, #56]
.LVL1272:
.LBE7514:
.LBE7521:
	.loc 24 103 0
	str	r3, [r2, #44]
.LVL1273:
.LBB7522:
.LBB7515:
	.loc 10 27 0
	ldr	r3, [r0, #64]
.LVL1274:
.LBE7515:
.LBE7522:
	.loc 24 103 0
	str	r3, [r2, #48]
.LVL1275:
.LBB7523:
.LBB7524:
	.loc 4 676 0
	ldr	r3, [r0, #88]
	ldr	r2, [r0, #92]
.LVL1276:
	and	r3, r3, #7
	cmp	r3, #3
.LBE7524:
.LBE7523:
	.loc 24 107 0
	streq	r2, [r1, #52]
.LVL1277:
	.loc 24 109 0
	moveq	r0, #13
.LVL1278:
.LBB7526:
.LBB7525:
	.loc 4 676 0
	beq	.L1598
	bl	fault_unknown_syscall_get_syscallNumber.part.167
.LVL1279:
.L1589:
.LBE7525:
.LBE7526:
.LBE7502:
.LBB7527:
.LBB7528:
.LBB7529:
	.loc 10 21 0
	ldr	r3, [r0, #68]
	str	r3, [ip, #8]
.LVL1280:
.LBE7529:
.LBE7528:
.LBE7527:
.LBB7530:
.LBB7531:
	.loc 4 619 0
	ldr	r3, [r0, #88]
	ldr	r2, [r0, #92]
.LVL1281:
	and	r3, r3, #7
	cmp	r3, #2
	bne	.L1612
.LVL1282:
.LBE7531:
.LBE7530:
.LBB7533:
.LBB7534:
.LBB7535:
	.loc 10 21 0
	str	r2, [ip, #12]
.LVL1283:
	ldr	r3, [r0, #88]
.LVL1284:
.LBE7535:
.LBE7534:
.LBE7533:
.LBB7536:
.LBB7537:
	.loc 4 647 0
	and	r2, r3, #7
.LVL1285:
	cmp	r2, #2
	bne	.L1613
.LVL1286:
.LBE7537:
.LBE7536:
.LBB7539:
.LBB7540:
.LBB7541:
	.loc 10 21 0
	ubfx	r3, r3, #17, #1
	str	r3, [ip, #16]
.LVL1287:
	ldr	r3, [r0, #88]
.LVL1288:
.LBE7541:
.LBE7540:
.LBE7539:
.LBB7542:
.LBB7543:
	.loc 4 633 0
	and	r2, r3, #7
	cmp	r2, #2
.LBE7543:
.LBE7542:
.LBB7545:
.LBB7546:
.LBB7547:
	.loc 10 21 0
	lsreq	r3, r3, #18
.LBE7547:
.LBE7546:
.LBE7545:
	.loc 24 90 0
	moveq	r0, #4
.LVL1289:
.LBB7550:
.LBB7549:
.LBB7548:
	.loc 10 21 0
	streq	r3, [ip, #20]
.LVL1290:
.LBE7548:
.LBE7549:
.LBE7550:
.LBB7551:
.LBB7544:
	.loc 4 633 0
	beq	.L1598
	bl	fault_vm_fault_get_FSR.isra.165.part.166
.LVL1291:
.L1587:
.LBE7544:
.LBE7551:
.LBB7552:
.LBB7553:
.LBB7554:
	.loc 10 21 0
	ldr	r3, [r0, #68]
	str	r3, [ip, #8]
.LVL1292:
.LBE7554:
.LBE7553:
.LBE7552:
.LBB7555:
.LBB7556:
	.loc 4 570 0
	ldr	r3, [r0, #88]
	ldr	r2, [r0, #92]
.LVL1293:
	and	r3, r3, #7
	cmp	r3, #1
	bne	.L1614
.LVL1294:
.LBE7556:
.LBE7555:
.LBB7558:
.LBB7559:
.LBB7560:
	.loc 10 21 0
	str	r2, [ip, #12]
.LVL1295:
	ldr	r3, [r0, #88]
.LVL1296:
.LBE7560:
.LBE7559:
.LBE7558:
.LBB7561:
.LBB7562:
	.loc 4 584 0
	and	r2, r3, #7
.LVL1297:
	cmp	r2, #1
	bne	.L1615
.LVL1298:
.LBE7562:
.LBE7561:
.LBB7564:
.LBB7565:
.LBB7566:
	.loc 10 21 0
	lsr	lr, r3, #31
.LBE7566:
.LBE7565:
.LBE7564:
	.loc 24 81 0
	add	r0, r0, #96
.LVL1299:
	mov	r4, #3
	ldm	r0, {r2, r3}
.LBB7569:
.LBB7568:
.LBB7567:
	.loc 10 21 0
	str	lr, [ip, #16]
.LVL1300:
.LBE7567:
.LBE7568:
.LBE7569:
	.loc 24 81 0
	mov	r0, ip
.LVL1301:
	str	r4, [sp]
.LVL1302:
	bl	setMRs_lookup_failure
.LVL1303:
.L1598:
	.loc 24 133 0
	add	sp, sp, #8
	.cfi_remember_state
	.cfi_def_cfa_offset 8
	@ sp needed
	pop	{r4, pc}
.LVL1304:
.L1586:
	.loc 24 131 0
	movw	r1, #:lower16:.LC72
.LVL1305:
	movw	r0, #:lower16:.LC55
.LVL1306:
	movt	r1, #:upper16:.LC72
	movt	r0, #:upper16:.LC55
	ldr	r3, .L1616
	mov	r2, #131
.LVL1307:
	bl	_fail
.LVL1308:
.L1595:
	.cfi_restore_state
.LBB7570:
	.loc 24 111 0
	mov	r0, #4
.LVL1309:
.LBE7570:
	.loc 24 133 0
	add	sp, sp, #8
	.cfi_remember_state
	.cfi_def_cfa_offset 8
	@ sp needed
	pop	{r4, pc}
.LVL1310:
.L1612:
	.cfi_restore_state
.LBB7571:
.LBB7532:
	bl	fault_vm_fault_get_address.part.162
.LVL1311:
.L1614:
.LBE7532:
.LBE7571:
.LBB7572:
.LBB7557:
	bl	fault_cap_fault_get_address.part.152
.LVL1312:
.L1610:
.LBE7557:
.LBE7572:
.LBB7573:
.LBB7500:
.LBB7490:
	bl	fault_user_exception_get_number.part.168
.LVL1313:
.L1613:
.LBE7490:
.LBE7500:
.LBE7573:
.LBB7574:
.LBB7538:
	bl	fault_vm_fault_get_instructionFault.isra.163.part.164
.LVL1314:
.L1615:
.LBE7538:
.LBE7574:
.LBB7575:
.LBB7563:
	bl	fault_cap_fault_get_inReceivePhase.isra.153.part.154
.LVL1315:
.L1611:
.LBE7563:
.LBE7575:
.LBB7576:
.LBB7501:
.LBB7496:
	bl	fault_user_exception_get_code.isra.169.part.170
.LVL1316:
.L1617:
	.align	2
.L1616:
	.word	.LANCHOR4+2120
.LBE7496:
.LBE7501:
.LBE7576:
	.cfi_endproc
.LFE456:
	.size	setMRs_fault, .-setMRs_fault
	.section	.boot.text
	.align	2
	.syntax unified
	.arm
	.type	insert_region.part.171, %function
insert_region.part.171:
.LFB885:
	.loc 25 29 0
	.cfi_startproc
	@ Volatile: function does not return.
	@ args = 0, pretend = 0, frame = 0
	@ frame_needed = 0, uses_anonymous_args = 0
	.loc 25 33 0
	movw	r1, #:lower16:.LC77
	movw	r0, #:lower16:.LC78
	.loc 25 29 0
	push	{r4, lr}
	.cfi_def_cfa_offset 8
	.cfi_offset 4, -8
	.cfi_offset 14, -4
	.loc 25 33 0
	movt	r1, #:upper16:.LC77
	movt	r0, #:upper16:.LC78
	ldr	r3, .L1620
	mov	r2, #33
	bl	_assert_fail
.LVL1317:
.L1621:
	.align	2
.L1620:
	.word	.LANCHOR4+2136
	.cfi_endproc
.LFE885:
	.size	insert_region.part.171, .-insert_region.part.171
	.align	2
	.global	insert_region
	.syntax unified
	.arm
	.type	insert_region, %function
insert_region:
.LFB463:
	.loc 25 30 0
	.cfi_startproc
	@ args = 0, pretend = 0, frame = 8
	@ frame_needed = 0, uses_anonymous_args = 0
	str	lr, [sp, #-4]!
	.cfi_def_cfa_offset 4
	.cfi_offset 14, -4
	sub	sp, sp, #12
	.cfi_def_cfa_offset 16
	.loc 25 30 0
	add	r3, sp, #8
	stmdb	r3, {r0, r1}
	ldm	sp, {r1, r2}
.LVL1318:
	.loc 25 33 0
	cmp	r2, r1
	bcc	.L1630
.LVL1319:
	.loc 25 35 0
	moveq	r0, #1
	.loc 25 34 0
	beq	.L1624
.LVL1320:
	movw	r3, #:lower16:.LANCHOR3
	movt	r3, #:upper16:.LANCHOR3
	.loc 25 38 0 discriminator 1
	ldr	ip, [r3]
	ldr	r0, [r3, #4]
	cmp	ip, r0
	beq	.L1625
.LVL1321:
	.loc 25 38 0 is_stmt 0
	ldr	r0, [r3, #12]
	ldr	ip, [r3, #8]
	cmp	ip, r0
	.loc 25 43 0 is_stmt 1
	movne	r0, #0
	.loc 25 38 0
	beq	.L1631
.LVL1322:
.L1624:
	.loc 25 44 0
	add	sp, sp, #12
	.cfi_remember_state
	.cfi_def_cfa_offset 4
	@ sp needed
	ldr	pc, [sp], #4
.LVL1323:
.L1631:
	.cfi_restore_state
	.loc 25 38 0
	add	r3, r3, #8
.LVL1324:
.L1625:
	.loc 25 39 0
	str	r1, [r3]
	.loc 25 40 0
	mov	r0, #1
	.loc 25 39 0
	str	r2, [r3, #4]
	.loc 25 40 0
	b	.L1624
.LVL1325:
.L1630:
	bl	insert_region.part.171
.LVL1326:
	.cfi_endproc
.LFE463:
	.size	insert_region, .-insert_region
	.align	2
	.syntax unified
	.arm
	.type	insert_region_excluded.part.172, %function
insert_region_excluded.part.172:
.LFB886:
	.file 38 "/home/mint/seL4/dhs-demo-feb-2018/kernel/src/arch/arm/kernel/boot.c"
	.loc 38 37 0
	.cfi_startproc
	@ Volatile: function does not return.
	@ args = 0, pretend = 0, frame = 0
	@ frame_needed = 0, uses_anonymous_args = 0
	.loc 38 62 0
	movw	r1, #:lower16:.LC79
	movw	r0, #:lower16:.LC80
	.loc 38 37 0
	push	{r4, lr}
	.cfi_def_cfa_offset 8
	.cfi_offset 4, -8
	.cfi_offset 14, -4
	.loc 38 62 0
	movt	r1, #:upper16:.LC79
	movt	r0, #:upper16:.LC80
	ldr	r3, .L1634
	mov	r2, #62
	bl	_assert_fail
.LVL1327:
.L1635:
	.align	2
.L1634:
	.word	.LANCHOR4+2152
	.cfi_endproc
.LFE886:
	.size	insert_region_excluded.part.172, .-insert_region_excluded.part.172
	.section	.text.unlikely
	.align	2
	.syntax unified
	.arm
	.type	cap_cnode_cap_new.part.173, %function
cap_cnode_cap_new.part.173:
.LFB887:
	.loc 4 1465 0
	.cfi_startproc
	@ Volatile: function does not return.
	@ args = 0, pretend = 0, frame = 0
	@ frame_needed = 0, uses_anonymous_args = 0
.LVL1328:
	.loc 4 1472 0
	movw	r1, #:lower16:.LC29
	movw	r0, #:lower16:.LC81
	.loc 4 1465 0
	push	{r4, lr}
	.cfi_def_cfa_offset 8
	.cfi_offset 4, -8
	.cfi_offset 14, -4
	.loc 4 1472 0
	movt	r1, #:upper16:.LC29
	movt	r0, #:upper16:.LC81
	ldr	r3, .L1638
	mov	r2, #1472
	bl	_assert_fail
.LVL1329:
.L1639:
	.align	2
.L1638:
	.word	.LANCHOR4+2176
	.cfi_endproc
.LFE887:
	.size	cap_cnode_cap_new.part.173, .-cap_cnode_cap_new.part.173
	.align	2
	.syntax unified
	.arm
	.type	cap_thread_cap_new.part.174, %function
cap_thread_cap_new.part.174:
.LFB888:
	.loc 4 1557 0
	.cfi_startproc
	@ Volatile: function does not return.
	@ args = 0, pretend = 0, frame = 0
	@ frame_needed = 0, uses_anonymous_args = 0
.LVL1330:
	.loc 4 1564 0
	movw	r1, #:lower16:.LC29
	movw	r0, #:lower16:.LC82
	.loc 4 1557 0
	push	{r4, lr}
	.cfi_def_cfa_offset 8
	.cfi_offset 4, -8
	.cfi_offset 14, -4
	.loc 4 1564 0
	movt	r1, #:upper16:.LC29
	movt	r0, #:upper16:.LC82
	ldr	r3, .L1642
	movw	r2, #1564
	bl	_assert_fail
.LVL1331:
.L1643:
	.align	2
.L1642:
	.word	.LANCHOR4+2196
	.cfi_endproc
.LFE888:
	.size	cap_thread_cap_new.part.174, .-cap_thread_cap_new.part.174
	.align	2
	.syntax unified
	.arm
	.type	cap_untyped_cap_new.part.175, %function
cap_untyped_cap_new.part.175:
.LFB889:
	.loc 4 1024 0
	.cfi_startproc
	@ Volatile: function does not return.
	@ args = 0, pretend = 0, frame = 0
	@ frame_needed = 0, uses_anonymous_args = 0
.LVL1332:
	.loc 4 1031 0
	movw	r1, #:lower16:.LC29
	movw	r0, #:lower16:.LC83
	.loc 4 1024 0
	push	{r4, lr}
	.cfi_def_cfa_offset 8
	.cfi_offset 4, -8
	.cfi_offset 14, -4
	.loc 4 1031 0
	movt	r1, #:upper16:.LC29
	movt	r0, #:upper16:.LC83
	ldr	r3, .L1646
	movw	r2, #1031
	bl	_assert_fail
.LVL1333:
.L1647:
	.align	2
.L1646:
	.word	.LANCHOR4+2216
	.cfi_endproc
.LFE889:
	.size	cap_untyped_cap_new.part.175, .-cap_untyped_cap_new.part.175
	.text
	.align	2
	.syntax unified
	.arm
	.type	has_extra_comparator, %function
has_extra_comparator:
.LFB504:
	.loc 3 335 0
	.cfi_startproc
	@ args = 0, pretend = 0, frame = 0
	@ frame_needed = 0, uses_anonymous_args = 0
.LVL1334:
.LBB7589:
.LBB7590:
.LBB7591:
	.loc 4 469 0
	ldr	r3, [r0, #12]
.LBE7591:
.LBE7590:
.LBB7593:
.LBB7594:
	ldr	ip, [r1, #12]
.LBE7594:
.LBE7593:
.LBB7596:
.LBB7592:
	and	r3, r3, #31
.LBE7592:
.LBE7596:
.LBB7597:
.LBB7595:
	and	ip, ip, #31
.LBE7595:
.LBE7597:
	.loc 3 338 0
	cmp	ip, r3
	beq	.L1649
	.loc 3 338 0 is_stmt 0 discriminator 1
	bcs	.L1660
	.loc 3 338 0
	mov	r0, #1
.LVL1335:
	bx	lr
.LVL1336:
.L1649:
.LBE7589:
	.loc 3 342 0 is_stmt 1
	cmp	r2, #0
	.loc 3 335 0
	push	{r4, lr}
	.cfi_def_cfa_offset 8
	.cfi_offset 4, -8
	.cfi_offset 14, -4
	.loc 3 342 0
	beq	.L1661
	.loc 3 343 0
	blx	r2
.LVL1337:
	.loc 3 346 0
	clz	r0, r0
.LVL1338:
	lsr	r0, r0, #5
	rsb	r0, r0, #0
	pop	{r4, pc}
.LVL1339:
.L1660:
	.cfi_def_cfa_offset 0
	.cfi_restore 4
	.cfi_restore 14
.LBB7598:
	.loc 3 338 0
	mvn	r0, #0
.LVL1340:
.LBE7598:
	.loc 3 350 0
	bx	lr
.LVL1341:
.L1661:
	.cfi_def_cfa_offset 8
	.cfi_offset 4, -8
	.cfi_offset 14, -4
.LBB7599:
.LBB7600:
	.loc 3 342 0
	movw	r1, #:lower16:.LC84
.LVL1342:
	movw	r0, #:lower16:.LC85
.LVL1343:
	movt	r1, #:upper16:.LC84
	movt	r0, #:upper16:.LC85
	ldr	r3, .L1662
	movw	r2, #342
.LVL1344:
	bl	_assert_fail
.LVL1345:
.L1663:
	.align	2
.L1662:
	.word	.LANCHOR4+2236
.LBE7600:
.LBE7599:
	.cfi_endproc
.LFE504:
	.size	has_extra_comparator, .-has_extra_comparator
	.section	.text.unlikely
	.align	2
	.syntax unified
	.arm
	.type	mdb_node_new.part.177, %function
mdb_node_new.part.177:
.LFB891:
	.loc 4 425 0
	.cfi_startproc
	@ Volatile: function does not return.
	@ args = 0, pretend = 0, frame = 0
	@ frame_needed = 0, uses_anonymous_args = 0
.LVL1346:
	.loc 4 432 0
	movw	r1, #:lower16:.LC29
	movw	r0, #:lower16:.LC86
	.loc 4 425 0
	push	{r4, lr}
	.cfi_def_cfa_offset 8
	.cfi_offset 4, -8
	.cfi_offset 14, -4
	.loc 4 432 0
	movt	r1, #:upper16:.LC29
	movt	r0, #:upper16:.LC86
	ldr	r3, .L1666
	mov	r2, #432
	bl	_assert_fail
.LVL1347:
.L1667:
	.align	2
.L1666:
	.word	.LANCHOR4+2260
	.cfi_endproc
.LFE891:
	.size	mdb_node_new.part.177, .-mdb_node_new.part.177
	.text
	.align	2
	.syntax unified
	.arm
	.type	cap_get_capSpaceType.isra.178, %function
cap_get_capSpaceType.isra.178:
.LFB892:
	.loc 36 24 0
	.cfi_startproc
	@ args = 0, pretend = 0, frame = 0
	@ frame_needed = 0, uses_anonymous_args = 0
.LVL1348:
.LBB7609:
.LBB7610:
	.loc 4 997 0
	and	r3, r0, #14
	cmp	r3, #14
	.loc 4 999 0
	uxtbeq	r0, r0
.LVL1349:
	.loc 4 998 0
	andne	r0, r0, #15
.LBE7610:
.LBE7609:
	.loc 36 30 0
	sub	r0, r0, #1
	cmp	r0, #61
	ldrls	pc, [pc, r0, asl #2]
	b	.L1671
.L1673:
	.word	.L1672
	.word	.L1674
	.word	.L1672
	.word	.L1672
	.word	.L1672
	.word	.L1672
	.word	.L1671
	.word	.L1671
	.word	.L1671
	.word	.L1672
	.word	.L1671
	.word	.L1672
	.word	.L1671
	.word	.L1677
	.word	.L1671
	.word	.L1671
	.word	.L1671
	.word	.L1671
	.word	.L1671
	.word	.L1671
	.word	.L1671
	.word	.L1671
	.word	.L1671
	.word	.L1671
	.word	.L1671
	.word	.L1671
	.word	.L1671
	.word	.L1671
	.word	.L1671
	.word	.L1677
	.word	.L1671
	.word	.L1671
	.word	.L1671
	.word	.L1671
	.word	.L1671
	.word	.L1671
	.word	.L1671
	.word	.L1671
	.word	.L1671
	.word	.L1671
	.word	.L1671
	.word	.L1671
	.word	.L1671
	.word	.L1671
	.word	.L1671
	.word	.L1672
	.word	.L1671
	.word	.L1671
	.word	.L1671
	.word	.L1671
	.word	.L1671
	.word	.L1671
	.word	.L1671
	.word	.L1671
	.word	.L1671
	.word	.L1671
	.word	.L1671
	.word	.L1671
