	.cpu cortex-a9
	.fpu softvfp
	.eabi_attribute 20, 1
	.eabi_attribute 21, 1
	.eabi_attribute 23, 3
	.eabi_attribute 24, 1
	.eabi_attribute 25, 1
	.eabi_attribute 26, 2
	.eabi_attribute 30, 2
	.eabi_attribute 34, 1
	.eabi_attribute 18, 4
	.file	"enet.c"
	.text
.Ltext0:
	.cfi_sections	.debug_frame
	.align	2
	.syntax unified
	.arm
	.type	_mdc_clk_init, %function
_mdc_clk_init:
	.fnstart
.LFB24:
	.file 1 "/home/mint/seL4/dhs-demo-feb-2018/libs/libethdrivers/src/plat/imx6/enet.c"
	.loc 1 299 0
	.cfi_startproc
	@ args = 0, pretend = 0, frame = 0
	@ frame_needed = 0, uses_anonymous_args = 0
	@ link register save eliminated.
.LVL0:
	.loc 1 301 0
	bx	lr
	.cfi_endproc
.LFE24:
	.fnend
	.size	_mdc_clk_init, .-_mdc_clk_init
	.align	2
	.syntax unified
	.arm
	.type	_mdc_clk_recal, %function
_mdc_clk_recal:
	.fnstart
.LFB23:
	.loc 1 294 0
	.cfi_startproc
	@ args = 0, pretend = 0, frame = 0
	@ frame_needed = 0, uses_anonymous_args = 0
	@ link register save eliminated.
.LVL1:
	.loc 1 295 0
	movw	r3, #:lower16:.LANCHOR0
	movw	r1, #:lower16:.LC0
	movw	r0, #:lower16:.LC1
.LVL2:
	movt	r3, #:upper16:.LANCHOR0
	movt	r1, #:upper16:.LC0
	movt	r0, #:upper16:.LC1
	movw	r2, #295
	b	__assert_fail
.LVL3:
	.cfi_endproc
.LFE23:
	.fnend
	.size	_mdc_clk_recal, .-_mdc_clk_recal
	.align	2
	.syntax unified
	.arm
	.type	dump_regs, %function
dump_regs:
	.fnstart
.LFB41:
	.loc 1 561 0
	.cfi_startproc
	@ args = 0, pretend = 0, frame = 0
	@ frame_needed = 0, uses_anonymous_args = 0
.LVL4:
	push	{r4, r5, r6, r7, r8, r9, r10, lr}
	.save {r4, r5, r6, r7, r8, r9, r10, lr}
	.cfi_def_cfa_offset 32
	.cfi_offset 4, -32
	.cfi_offset 5, -28
	.cfi_offset 6, -24
	.cfi_offset 7, -20
	.cfi_offset 8, -16
	.cfi_offset 9, -12
	.cfi_offset 10, -8
	.cfi_offset 14, -4
	.loc 1 564 0
	lsrs	r9, r1, #2
.LVL5:
	popeq	{r4, r5, r6, r7, r8, r9, r10, pc}
	.loc 1 565 0
	movw	r8, #:lower16:.LC2
	.loc 1 567 0
	movw	r6, #:lower16:.LC3
	mov	r4, r0
	.loc 1 565 0
	movt	r8, #:upper16:.LC2
	.loc 1 567 0
	movt	r6, #:upper16:.LC3
	mov	r10, r0
	.loc 1 564 0
	mov	r7, #0
.LVL6:
.L6:
	.loc 1 565 0
	sub	r1, r4, r10
	mov	r0, r8
	add	r5, r4, #16
	bl	printf
.LVL7:
.L5:
	.loc 1 567 0 discriminator 3
	ldr	r1, [r4], #4
.LVL8:
	mov	r0, r6
	bl	printf
.LVL9:
	.loc 1 566 0 discriminator 3
	cmp	r4, r5
	bne	.L5
	add	r7, r7, #4
	.loc 1 569 0
	mov	r0, #10
	bl	putchar
.LVL10:
	.loc 1 564 0
	cmp	r9, r7
	bhi	.L6
	pop	{r4, r5, r6, r7, r8, r9, r10, pc}
	.cfi_endproc
.LFE41:
	.fnend
	.size	dump_regs, .-dump_regs
	.global	__aeabi_uidiv
	.align	2
	.syntax unified
	.arm
	.type	_mdc_clk_get_freq, %function
_mdc_clk_get_freq:
	.fnstart
.LFB21:
	.loc 1 259 0
	.cfi_startproc
	@ args = 0, pretend = 0, frame = 0
	@ frame_needed = 0, uses_anonymous_args = 0
.LVL11:
	push	{r4, r5, r6, lr}
	.save {r4, r5, r6, lr}
	.cfi_def_cfa_offset 16
	.cfi_offset 4, -16
	.cfi_offset 5, -12
	.cfi_offset 6, -8
	.cfi_offset 14, -4
	.loc 1 261 0
	ldr	r4, [r0, #24]
	.loc 1 260 0
	ldr	r5, [r0, #8]
.LVL12:
.LBB64:
.LBB65:
	.file 2 "/home/mint/seL4/dhs-demo-feb-2018/stage/arm/imx6/include/platsupport/clock.h"
	.loc 2 176 0
	cmp	r4, #0
	beq	.L16
.LVL13:
.L13:
	.loc 2 177 0
	ldr	r3, [r4, #44]
	cmp	r3, #0
	beq	.L17
.L14:
	.loc 2 178 0
	mov	r0, r4
	blx	r3
.LVL14:
.LBE65:
.LBE64:
	.loc 1 262 0
	ldr	r1, [r5, #68]
.LVL15:
	.loc 1 264 0
	and	r1, r1, #126
.LVL16:
	add	r1, r1, #2
	bl	__aeabi_uidiv
.LVL17:
	.loc 1 265 0
	mov	r1, #0
	pop	{r4, r5, r6, pc}
.LVL18:
.L17:
.LBB67:
.LBB66:
	.loc 2 177 0
	movw	r1, #:lower16:.LC4
	movw	r0, #:lower16:.LC6
	ldr	r3, .L18
	movt	r1, #:upper16:.LC4
	movt	r0, #:upper16:.LC6
	mov	r2, #177
	bl	__assert_fail
.LVL19:
	ldr	r3, [r4, #44]
	b	.L14
.LVL20:
.L16:
	.loc 2 176 0
	movw	r1, #:lower16:.LC4
	movw	r0, #:lower16:.LC5
.LVL21:
	movt	r1, #:upper16:.LC4
	movt	r0, #:upper16:.LC5
	ldr	r3, .L18
	mov	r2, #176
	bl	__assert_fail
.LVL22:
	b	.L13
.L19:
	.align	2
.L18:
	.word	.LANCHOR0+16
.LBE66:
.LBE67:
	.cfi_endproc
.LFE21:
	.fnend
	.size	_mdc_clk_get_freq, .-_mdc_clk_get_freq
	.global	__aeabi_uldivmod
	.align	2
	.syntax unified
	.arm
	.type	_mdc_clk_set_freq, %function
_mdc_clk_set_freq:
	.fnstart
.LFB22:
	.loc 1 268 0
	.cfi_startproc
	@ args = 0, pretend = 0, frame = 0
	@ frame_needed = 0, uses_anonymous_args = 0
.LVL23:
	push	{r4, r5, r6, r7, r8, lr}
	.save {r4, r5, r6, r7, r8, lr}
	.cfi_def_cfa_offset 24
	.cfi_offset 4, -24
	.cfi_offset 5, -20
	.cfi_offset 6, -16
	.cfi_offset 7, -12
	.cfi_offset 8, -8
	.cfi_offset 14, -4
	.loc 1 268 0
	mov	r4, r0
	.loc 1 270 0
	ldr	r8, [r0, #24]
	.loc 1 268 0
	mov	r6, r2
	mov	r7, r3
	.loc 1 269 0
	ldr	r5, [r0, #8]
.LVL24:
.LBB72:
.LBB73:
	.loc 2 176 0
	cmp	r8, #0
	beq	.L30
.LVL25:
.L21:
	.loc 2 177 0
	ldr	r3, [r8, #44]
	cmp	r3, #0
	beq	.L31
.L22:
	.loc 2 178 0
	mov	r0, r8
	blx	r3
.LVL26:
.LBE73:
.LBE72:
	.loc 1 273 0
	adr	r3, .L34
	ldrd	r2, [r3]
	cmp	r7, r3
	cmpeq	r6, r2
	bhi	.L26
	.loc 1 275 0
	orrs	r3, r6, r7
	moveq	r2, #2
	moveq	r3, #0
	bne	.L32
.L23:
.LVL27:
	.loc 1 279 0
	mov	r1, #0
	bl	__aeabi_uldivmod
.LVL28:
	.loc 1 281 0
	subs	r0, r0, #1
	movcc	r0, #0
	bcc	.L24
	cmp	r0, #63
	movcs	r0, #63
	lsl	r0, r0, #1
.L24:
.LBB76:
.LBB77:
	.loc 2 177 0
	ldr	r3, [r4, #44]
.LBE77:
.LBE76:
	.loc 1 287 0
	str	r0, [r5, #68]
.LVL29:
.LBB82:
.LBB78:
	.loc 2 177 0
	cmp	r3, #0
	beq	.L33
	.loc 2 178 0
	mov	r0, r4
.LBE78:
.LBE82:
	.loc 1 291 0
	pop	{r4, r5, r6, r7, r8, lr}
	.cfi_remember_state
	.cfi_restore 14
	.cfi_restore 8
	.cfi_restore 7
	.cfi_restore 6
	.cfi_restore 5
	.cfi_restore 4
	.cfi_def_cfa_offset 0
.LVL30:
.LBB83:
.LBB79:
	.loc 2 178 0
	bx	r3
.LVL31:
.L26:
	.cfi_restore_state
.LBE79:
.LBE83:
	adr	r3, .L34+8
	ldrd	r2, [r3]
	b	.L23
.L32:
	adds	r2, r6, r6
	adc	r3, r7, r7
	b	.L23
.LVL32:
.L31:
.LBB84:
.LBB74:
	.loc 2 177 0
	movw	r1, #:lower16:.LC4
	movw	r0, #:lower16:.LC6
	ldr	r3, .L34+16
	movt	r1, #:upper16:.LC4
	movt	r0, #:upper16:.LC6
	mov	r2, #177
	bl	__assert_fail
.LVL33:
	ldr	r3, [r8, #44]
	b	.L22
.LVL34:
.L33:
.LBE74:
.LBE84:
.LBB85:
.LBB80:
	movw	r1, #:lower16:.LC4
	movw	r0, #:lower16:.LC6
	movt	r0, #:upper16:.LC6
	ldr	r3, .L34+16
	movt	r1, #:upper16:.LC4
	mov	r2, #177
	bl	__assert_fail
.LVL35:
	ldr	r3, [r4, #44]
	.loc 2 178 0
	mov	r0, r4
.LBE80:
.LBE85:
	.loc 1 291 0
	pop	{r4, r5, r6, r7, r8, lr}
	.cfi_remember_state
	.cfi_restore 4
	.cfi_restore 5
	.cfi_restore 6
	.cfi_restore 7
	.cfi_restore 8
	.cfi_restore 14
	.cfi_def_cfa_offset 0
.LVL36:
.LBB86:
.LBB81:
	.loc 2 178 0
	bx	r3
.LVL37:
.L30:
	.cfi_restore_state
.LBE81:
.LBE86:
.LBB87:
.LBB75:
	.loc 2 176 0
	movw	r1, #:lower16:.LC4
	movw	r0, #:lower16:.LC5
.LVL38:
	movt	r1, #:upper16:.LC4
	movt	r0, #:upper16:.LC5
	ldr	r3, .L34+16
	mov	r2, #176
.LVL39:
	bl	__assert_fail
.LVL40:
	b	.L21
.L35:
	.align	3
.L34:
	.word	2500000
	.word	0
	.word	5000000
	.word	0
	.word	.LANCHOR0+16
.LBE75:
.LBE87:
	.cfi_endproc
.LFE22:
	.fnend
	.size	_mdc_clk_set_freq, .-_mdc_clk_set_freq
	.align	2
	.global	enet_set_speed
	.syntax unified
	.arm
	.type	enet_set_speed, %function
enet_set_speed:
	.fnstart
.LFB25:
	.loc 1 319 0
	.cfi_startproc
	@ args = 0, pretend = 0, frame = 0
	@ frame_needed = 0, uses_anonymous_args = 0
.LVL41:
	.loc 1 327 0
	cmp	r1, #100
	.loc 1 321 0
	ldr	ip, [r0, #36]
.LVL42:
	.loc 1 322 0
	ldr	r3, [r0, #132]
.LVL43:
	.loc 1 327 0
	beq	.L38
	cmp	r1, #1000
	beq	.L39
	cmp	r1, #10
	beq	.L47
	.loc 1 341 0
	movw	r0, #:lower16:.LC7
.LVL44:
	.loc 1 319 0
	push	{r4, lr}
	.save {r4, lr}
	.cfi_def_cfa_offset 8
	.cfi_offset 4, -8
	.cfi_offset 14, -4
	.loc 1 341 0
	movt	r0, #:upper16:.LC7
	bl	puts
.LVL45:
	.loc 1 342 0
	movw	r1, #:lower16:.LC0
	movw	r0, #:lower16:.LC1
	movt	r1, #:upper16:.LC0
	movt	r0, #:upper16:.LC1
	ldr	r3, .L48
	movw	r2, #342
	.loc 1 354 0
	pop	{r4, lr}
	.cfi_restore 14
	.cfi_restore 4
	.cfi_def_cfa_offset 0
	.loc 1 342 0
	b	__assert_fail
.LVL46:
.L47:
	.loc 1 324 0
	bic	r3, r3, #256
.LVL47:
	.loc 1 337 0
	bic	ip, ip, #32
.LVL48:
	.loc 1 338 0
	orr	r3, r3, #580
.LVL49:
.L41:
	.loc 1 346 0
	cmp	r2, #0
	.loc 1 352 0
	str	ip, [r0, #36]
	.loc 1 347 0
	bicne	r3, r3, #2
.LVL50:
	.loc 1 349 0
	orreq	r3, r3, #2
.LVL51:
	.loc 1 353 0
	str	r3, [r0, #132]
	bx	lr
.LVL52:
.L39:
	bic	r3, r3, #768
.LVL53:
	.loc 1 329 0
	orr	ip, ip, #32
.LVL54:
	.loc 1 330 0
	orr	r3, r3, #68
.LVL55:
	.loc 1 331 0
	b	.L41
.LVL56:
.L38:
	bic	r3, r3, #768
.LVL57:
	.loc 1 333 0
	bic	ip, ip, #32
.LVL58:
	.loc 1 334 0
	orr	r3, r3, #68
.LVL59:
	.loc 1 335 0
	b	.L41
.L49:
	.align	2
.L48:
	.word	.LANCHOR0+32
	.cfi_endproc
.LFE25:
	.fnend
	.size	enet_set_speed, .-enet_set_speed
	.align	2
	.global	enet_mdio_read
	.syntax unified
	.arm
	.type	enet_mdio_read, %function
enet_mdio_read:
	.fnstart
.LFB26:
	.loc 1 361 0
	.cfi_startproc
	@ args = 0, pretend = 0, frame = 0
	@ frame_needed = 0, uses_anonymous_args = 0
.LVL60:
	.loc 1 364 0
	bic	r3, r1, #31
	.loc 1 361 0
	push	{r4, r5, r6, lr}
	.save {r4, r5, r6, lr}
	.cfi_def_cfa_offset 16
	.cfi_offset 4, -16
	.cfi_offset 5, -12
	.cfi_offset 6, -8
	.cfi_offset 14, -4
	.loc 1 364 0
	cmp	r3, #0
	.loc 1 361 0
	mov	r6, r1
	mov	r4, r0
	mov	r5, r2
	.loc 1 364 0
	bne	.L73
	.loc 1 365 0
	bic	r3, r5, #31
	cmp	r3, #0
	bne	.L74
.LVL61:
.L52:
	.loc 1 366 0
	ldr	r3, [r4, #68]
	cmp	r3, #0
	beq	.L75
.L53:
.LVL62:
.LBB88:
.LBB89:
	.loc 1 470 0
	ldr	r3, [r4, #4]
	and	r3, r3, #8388608
.LVL63:
.LBE89:
.LBE88:
	.loc 1 367 0
	cmp	r3, #0
.LBB91:
.LBB90:
	.loc 1 472 0
	str	r3, [r4, #4]
.LVL64:
.LBE90:
.LBE91:
	.loc 1 367 0
	bne	.L76
.L54:
.LVL65:
	.loc 1 369 0
	lsl	r3, r5, #18
	orr	r3, r3, r6, lsl #23
.LVL66:
	orr	r3, r3, #1610612736
.LVL67:
	orr	r3, r3, #131072
.LVL68:
.LBB92:
	.loc 1 370 0
	.syntax divided
@ 370 "/home/mint/seL4/dhs-demo-feb-2018/libs/libethdrivers/src/plat/imx6/enet.c" 1
	dmb
@ 0 "" 2
	.arm
	.syntax unified
	str	r3, [r4, #64]
	b	.L72
.LVL69:
.L77:
.LBE92:
	.loc 1 371 0 discriminator 2
	.syntax divided
@ 371 "/home/mint/seL4/dhs-demo-feb-2018/libs/libethdrivers/src/plat/imx6/enet.c" 1
	dsb
@ 0 "" 2
.LVL70:
	.arm
	.syntax unified
.L72:
.LBB93:
.LBB94:
	.loc 1 470 0
	ldr	r3, [r4, #4]
	and	r3, r3, #8388608
.LVL71:
.LBE94:
.LBE93:
	.loc 1 371 0
	cmp	r3, #0
.LBB96:
.LBB95:
	.loc 1 472 0
	str	r3, [r4, #4]
.LVL72:
.LBE95:
.LBE96:
	.loc 1 371 0
	beq	.L77
.LBB97:
	.loc 1 372 0
	ldr	r0, [r4, #64]
.LVL73:
	.syntax divided
@ 372 "/home/mint/seL4/dhs-demo-feb-2018/libs/libethdrivers/src/plat/imx6/enet.c" 1
	dmb
@ 0 "" 2
	.arm
	.syntax unified
.LBE97:
	uxth	r0, r0
.LVL74:
	.loc 1 373 0
	pop	{r4, r5, r6, pc}
.LVL75:
.L73:
	.loc 1 364 0 discriminator 1
	movw	r1, #:lower16:.LC0
.LVL76:
	movw	r0, #:lower16:.LC8
.LVL77:
	ldr	r3, .L78
	movt	r1, #:upper16:.LC0
	movt	r0, #:upper16:.LC8
	mov	r2, #364
.LVL78:
	bl	__assert_fail
.LVL79:
	.loc 1 365 0 discriminator 1
	bic	r3, r5, #31
	cmp	r3, #0
	beq	.L52
.L74:
	movw	r1, #:lower16:.LC0
	movw	r0, #:lower16:.LC9
	ldr	r3, .L78
	movt	r1, #:upper16:.LC0
	movt	r0, #:upper16:.LC9
	movw	r2, #365
	bl	__assert_fail
.LVL80:
	.loc 1 366 0 discriminator 1
	ldr	r3, [r4, #68]
	cmp	r3, #0
	bne	.L53
.L75:
	movw	r1, #:lower16:.LC0
	movw	r0, #:lower16:.LC10
	movt	r1, #:upper16:.LC0
	movt	r0, #:upper16:.LC10
	ldr	r3, .L78
	movw	r2, #366
	bl	__assert_fail
.LVL81:
	b	.L53
.L76:
	.loc 1 367 0 discriminator 1
	movw	r1, #:lower16:.LC0
	movw	r0, #:lower16:.LC11
	movt	r1, #:upper16:.LC0
	movt	r0, #:upper16:.LC11
	ldr	r3, .L78
	movw	r2, #367
	bl	__assert_fail
.LVL82:
	b	.L54
.L79:
	.align	2
.L78:
	.word	.LANCHOR0+48
	.cfi_endproc
.LFE26:
	.fnend
	.size	enet_mdio_read, .-enet_mdio_read
	.align	2
	.global	enet_mdio_write
	.syntax unified
	.arm
	.type	enet_mdio_write, %function
enet_mdio_write:
	.fnstart
.LFB27:
	.loc 1 376 0
	.cfi_startproc
	@ args = 0, pretend = 0, frame = 0
	@ frame_needed = 0, uses_anonymous_args = 0
.LVL83:
	push	{r4, r5, r6, r7, r8, lr}
	.save {r4, r5, r6, r7, r8, lr}
	.cfi_def_cfa_offset 24
	.cfi_offset 4, -24
	.cfi_offset 5, -20
	.cfi_offset 6, -16
	.cfi_offset 7, -12
	.cfi_offset 8, -8
	.cfi_offset 14, -4
	.loc 1 376 0
	mov	r6, r1
	.loc 1 379 0
	bic	r1, r1, #31
.LVL84:
	.loc 1 376 0
	mov	r4, r0
	.loc 1 379 0
	cmp	r1, #0
	.loc 1 376 0
	mov	r7, r2
	mov	r5, r3
	.loc 1 379 0
	bne	.L98
	.loc 1 380 0
	bic	r3, r7, #31
.LVL85:
	cmp	r3, #0
	bne	.L99
.LVL86:
.L82:
	.loc 1 381 0
	ldr	r3, [r4, #68]
	cmp	r3, #0
	beq	.L100
.L83:
.LVL87:
.LBB98:
.LBB99:
	.loc 1 470 0
	ldr	r3, [r4, #4]
	and	r3, r3, #8388608
.LVL88:
.LBE99:
.LBE98:
	.loc 1 382 0
	cmp	r3, #0
.LBB101:
.LBB100:
	.loc 1 472 0
	str	r3, [r4, #4]
.LVL89:
.LBE100:
.LBE101:
	.loc 1 382 0
	bne	.L101
.L84:
	.loc 1 383 0
	orr	r3, r5, r7, lsl #18
	orr	r3, r3, r6, lsl #23
.LVL90:
	.loc 1 384 0
	orr	r3, r3, #1342177280
.LVL91:
	orr	r3, r3, #131072
.LVL92:
	.loc 1 385 0
	str	r3, [r4, #64]
.LVL93:
.L85:
.LBB102:
.LBB103:
	.loc 1 470 0 discriminator 1
	ldr	r3, [r4, #4]
	and	r3, r3, #8388608
.LVL94:
.LBE103:
.LBE102:
	.loc 1 386 0 discriminator 1
	cmp	r3, #0
.LBB105:
.LBB104:
	.loc 1 472 0 discriminator 1
	str	r3, [r4, #4]
.LVL95:
.LBE104:
.LBE105:
	.loc 1 386 0 discriminator 1
	beq	.L85
	.loc 1 388 0
	mov	r0, #0
	pop	{r4, r5, r6, r7, r8, pc}
.LVL96:
.L98:
	.loc 1 379 0 discriminator 1
	movw	r1, #:lower16:.LC0
	movw	r0, #:lower16:.LC8
.LVL97:
	ldr	r3, .L102
.LVL98:
	movt	r1, #:upper16:.LC0
	movt	r0, #:upper16:.LC8
	movw	r2, #379
.LVL99:
	bl	__assert_fail
.LVL100:
	.loc 1 380 0 discriminator 1
	bic	r3, r7, #31
	cmp	r3, #0
	beq	.L82
.L99:
	movw	r1, #:lower16:.LC0
	movw	r0, #:lower16:.LC9
	ldr	r3, .L102
	movt	r1, #:upper16:.LC0
	movt	r0, #:upper16:.LC9
	mov	r2, #380
	bl	__assert_fail
.LVL101:
	.loc 1 381 0 discriminator 1
	ldr	r3, [r4, #68]
	cmp	r3, #0
	bne	.L83
.L100:
	movw	r1, #:lower16:.LC0
	movw	r0, #:lower16:.LC10
	movt	r1, #:upper16:.LC0
	movt	r0, #:upper16:.LC10
	ldr	r3, .L102
	movw	r2, #381
	bl	__assert_fail
.LVL102:
	b	.L83
.L101:
	.loc 1 382 0 discriminator 1
	movw	r1, #:lower16:.LC0
	movw	r0, #:lower16:.LC11
	movt	r1, #:upper16:.LC0
	movt	r0, #:upper16:.LC11
	ldr	r3, .L102
	movw	r2, #382
	bl	__assert_fail
.LVL103:
	b	.L84
.L103:
	.align	2
.L102:
	.word	.LANCHOR0+64
	.cfi_endproc
.LFE27:
	.fnend
	.size	enet_mdio_write, .-enet_mdio_write
	.align	2
	.global	enet_rx_enable
	.syntax unified
	.arm
	.type	enet_rx_enable, %function
enet_rx_enable:
	.fnstart
.LFB28:
	.loc 1 395 0
	.cfi_startproc
	@ args = 0, pretend = 0, frame = 0
	@ frame_needed = 0, uses_anonymous_args = 0
	@ link register save eliminated.
.LVL104:
	.loc 1 396 0
	mov	r3, #16777216
	str	r3, [r0, #16]
	bx	lr
	.cfi_endproc
.LFE28:
	.fnend
	.size	enet_rx_enable, .-enet_rx_enable
	.align	2
	.global	enet_rx_enabled
	.syntax unified
	.arm
	.type	enet_rx_enabled, %function
enet_rx_enabled:
	.fnstart
.LFB29:
	.loc 1 400 0
	.cfi_startproc
	@ args = 0, pretend = 0, frame = 0
	@ frame_needed = 0, uses_anonymous_args = 0
	@ link register save eliminated.
.LVL105:
	.loc 1 401 0
	ldr	r0, [r0, #16]
.LVL106:
	.loc 1 402 0
	sub	r0, r0, #16777216
	clz	r0, r0
	lsr	r0, r0, #5
	bx	lr
	.cfi_endproc
.LFE29:
	.fnend
	.size	enet_rx_enabled, .-enet_rx_enabled
	.align	2
	.global	enet_tx_enabled
	.syntax unified
	.arm
	.type	enet_tx_enabled, %function
enet_tx_enabled:
	.fnstart
.LFB30:
	.loc 1 405 0
	.cfi_startproc
	@ args = 0, pretend = 0, frame = 0
	@ frame_needed = 0, uses_anonymous_args = 0
	@ link register save eliminated.
.LVL107:
	.loc 1 406 0
	ldr	r0, [r0, #20]
.LVL108:
	.loc 1 407 0
	sub	r0, r0, #16777216
	clz	r0, r0
	lsr	r0, r0, #5
	bx	lr
	.cfi_endproc
.LFE30:
	.fnend
	.size	enet_tx_enabled, .-enet_tx_enabled
	.align	2
	.global	enet_tx_enable
	.syntax unified
	.arm
	.type	enet_tx_enable, %function
enet_tx_enable:
	.fnstart
.LFB31:
	.loc 1 411 0
	.cfi_startproc
	@ args = 0, pretend = 0, frame = 0
	@ frame_needed = 0, uses_anonymous_args = 0
	@ link register save eliminated.
.LVL109:
	.loc 1 412 0
	mov	r3, #16777216
	str	r3, [r0, #20]
	bx	lr
	.cfi_endproc
.LFE31:
	.fnend
	.size	enet_tx_enable, .-enet_tx_enable
	.align	2
	.global	enet_enable
	.syntax unified
	.arm
	.type	enet_enable, %function
enet_enable:
	.fnstart
.LFB32:
	.loc 1 416 0
	.cfi_startproc
	@ args = 0, pretend = 0, frame = 0
	@ frame_needed = 0, uses_anonymous_args = 0
	@ link register save eliminated.
.LVL110:
	.loc 1 418 0
	ldr	r3, [r0, #36]
	orr	r3, r3, #2
	str	r3, [r0, #36]
	bx	lr
	.cfi_endproc
.LFE32:
	.fnend
	.size	enet_enable, .-enet_enable
	.align	2
	.global	enet_enabled
	.syntax unified
	.arm
	.type	enet_enabled, %function
enet_enabled:
	.fnstart
.LFB33:
	.loc 1 422 0
	.cfi_startproc
	@ args = 0, pretend = 0, frame = 0
	@ frame_needed = 0, uses_anonymous_args = 0
	@ link register save eliminated.
.LVL111:
	.loc 1 424 0
	ldr	r0, [r0, #36]
.LVL112:
	.loc 1 425 0
	ubfx	r0, r0, #1, #1
	bx	lr
	.cfi_endproc
.LFE33:
	.fnend
	.size	enet_enabled, .-enet_enabled
	.align	2
	.global	enet_disable
	.syntax unified
	.arm
	.type	enet_disable, %function
enet_disable:
	.fnstart
.LFB34:
	.loc 1 428 0
	.cfi_startproc
	@ args = 0, pretend = 0, frame = 0
	@ frame_needed = 0, uses_anonymous_args = 0
.LVL113:
	push	{r4, lr}
	.save {r4, lr}
	.cfi_def_cfa_offset 8
	.cfi_offset 4, -8
	.cfi_offset 14, -4
	.loc 1 430 0
	movw	r1, #:lower16:.LC0
	.loc 1 428 0
	mov	r4, r0
	.loc 1 430 0
	movw	r0, #:lower16:.LC12
.LVL114:
	movt	r1, #:upper16:.LC0
	movt	r0, #:upper16:.LC12
	ldr	r3, .L112
	movw	r2, #430
	bl	__assert_fail
.LVL115:
	.loc 1 431 0
	ldr	r3, [r4, #36]
	bic	r3, r3, #2
	str	r3, [r4, #36]
	pop	{r4, pc}
.L113:
	.align	2
.L112:
	.word	.LANCHOR0+80
	.cfi_endproc
.LFE34:
	.fnend
	.size	enet_disable, .-enet_disable
	.align	2
	.global	enet_set_mac
	.syntax unified
	.arm
	.type	enet_set_mac, %function
enet_set_mac:
	.fnstart
.LFB35:
	.loc 1 435 0
	.cfi_startproc
	@ args = 0, pretend = 0, frame = 0
	@ frame_needed = 0, uses_anonymous_args = 0
.LVL116:
	.loc 1 437 0
	ldrb	r2, [r1, #1]	@ zero_extendqisi2
	.loc 1 435 0
	str	lr, [sp, #-4]!
	.save {lr}
	.cfi_def_cfa_offset 4
	.cfi_offset 14, -4
	.loc 1 437 0
	ldrb	lr, [r1]	@ zero_extendqisi2
	lsl	r2, r2, #16
	ldrb	r3, [r1, #3]	@ zero_extendqisi2
	ldrb	ip, [r1, #2]	@ zero_extendqisi2
	orr	r2, r2, lr, lsl #24
	orr	r3, r2, r3
	orr	r3, r3, ip, lsl #8
	str	r3, [r0, #228]
	.loc 1 438 0
	ldrb	r3, [r1, #5]	@ zero_extendqisi2
	ldrb	r2, [r1, #4]	@ zero_extendqisi2
	lsl	r3, r3, #16
	orr	r3, r3, r2, lsl #24
	orr	r3, r3, #34816
	orr	r3, r3, #8
	str	r3, [r0, #232]
	ldr	pc, [sp], #4
	.cfi_endproc
.LFE35:
	.fnend
	.size	enet_set_mac, .-enet_set_mac
	.align	2
	.global	enet_get_mac
	.syntax unified
	.arm
	.type	enet_get_mac, %function
enet_get_mac:
	.fnstart
.LFB36:
	.loc 1 442 0
	.cfi_startproc
	@ args = 0, pretend = 0, frame = 0
	@ frame_needed = 0, uses_anonymous_args = 0
.LVL117:
	.loc 1 444 0
	ldr	r3, [r0, #228]
.LVL118:
	.loc 1 445 0
	ldr	r2, [r0, #232]
.LVL119:
	.loc 1 442 0
	str	lr, [sp, #-4]!
	.save {lr}
	.cfi_def_cfa_offset 4
	.cfi_offset 14, -4
	.loc 1 451 0
	strb	r3, [r1, #3]
	.loc 1 448 0
	lsr	lr, r3, #24
	.loc 1 449 0
	lsr	ip, r3, #16
	.loc 1 452 0
	lsr	r0, r2, #24
.LVL120:
	.loc 1 450 0
	lsr	r3, r3, #8
.LVL121:
	.loc 1 453 0
	lsr	r2, r2, #16
.LVL122:
	.loc 1 448 0
	strb	lr, [r1]
	.loc 1 449 0
	strb	ip, [r1, #1]
	.loc 1 450 0
	strb	r3, [r1, #2]
	.loc 1 452 0
	strb	r0, [r1, #4]
	.loc 1 453 0
	strb	r2, [r1, #5]
	ldr	pc, [sp], #4
	.cfi_endproc
.LFE36:
	.fnend
	.size	enet_get_mac, .-enet_get_mac
	.align	2
	.global	enet_enable_events
	.syntax unified
	.arm
	.type	enet_enable_events, %function
enet_enable_events:
	.fnstart
.LFB37:
	.loc 1 457 0
	.cfi_startproc
	@ args = 0, pretend = 0, frame = 0
	@ frame_needed = 0, uses_anonymous_args = 0
.LVL123:
	push	{r4, r5, r6, lr}
	.save {r4, r5, r6, lr}
	.cfi_def_cfa_offset 16
	.cfi_offset 4, -16
	.cfi_offset 5, -12
	.cfi_offset 6, -8
	.cfi_offset 14, -4
	.loc 1 458 0
	subs	r4, r0, #0
	.loc 1 457 0
	mov	r5, r1
	.loc 1 458 0
	beq	.L121
	.loc 1 459 0
	str	r5, [r4, #8]
	pop	{r4, r5, r6, pc}
.L121:
	.loc 1 458 0 discriminator 1
	movw	r1, #:lower16:.LC0
.LVL124:
	movw	r0, #:lower16:.LC13
.LVL125:
	movt	r1, #:upper16:.LC0
	movt	r0, #:upper16:.LC13
	ldr	r3, .L122
	movw	r2, #458
	bl	__assert_fail
.LVL126:
	.loc 1 459 0 discriminator 1
	str	r5, [r4, #8]
	pop	{r4, r5, r6, pc}
.L123:
	.align	2
.L122:
	.word	.LANCHOR0+96
	.cfi_endproc
.LFE37:
	.fnend
	.size	enet_enable_events, .-enet_enable_events
	.align	2
	.global	enet_get_events
	.syntax unified
	.arm
	.type	enet_get_events, %function
enet_get_events:
	.fnstart
.LFB38:
	.loc 1 463 0
	.cfi_startproc
	@ args = 0, pretend = 0, frame = 0
	@ frame_needed = 0, uses_anonymous_args = 0
	@ link register save eliminated.
.LVL127:
	.loc 1 464 0
	ldr	r0, [r0, #4]
.LVL128:
	.loc 1 465 0
	bx	lr
	.cfi_endproc
.LFE38:
	.fnend
	.size	enet_get_events, .-enet_get_events
	.align	2
	.global	enet_clr_events
	.syntax unified
	.arm
	.type	enet_clr_events, %function
enet_clr_events:
	.fnstart
.LFB39:
	.loc 1 468 0
	.cfi_startproc
	@ args = 0, pretend = 0, frame = 0
	@ frame_needed = 0, uses_anonymous_args = 0
	@ link register save eliminated.
.LVL129:
	.loc 1 470 0
	ldr	r3, [r0, #4]
	and	r1, r1, r3
.LVL130:
	.loc 1 472 0
	str	r1, [r0, #4]
	.loc 1 474 0
	mov	r0, r1
.LVL131:
	bx	lr
	.cfi_endproc
.LFE39:
	.fnend
	.size	enet_clr_events, .-enet_clr_events
	.align	2
	.global	enet_init
	.syntax unified
	.arm
	.type	enet_init, %function
enet_init:
	.fnstart
.LFB40:
	.loc 1 478 0
	.cfi_startproc
	@ args = 0, pretend = 0, frame = 16
	@ frame_needed = 0, uses_anonymous_args = 0
.LVL132:
	push	{r4, r5, r6, lr}
	.save {r4, r5, r6, lr}
	.cfi_def_cfa_offset 16
	.cfi_offset 4, -16
	.cfi_offset 5, -12
	.cfi_offset 6, -8
	.cfi_offset 14, -4
.LBB118:
.LBB119:
	.file 3 "/home/mint/seL4/dhs-demo-feb-2018/stage/arm/imx6/include/platsupport/io.h"
	.loc 3 70 0
	subs	r6, r3, #0
.LBE119:
.LBE118:
	.loc 1 478 0
	.pad #24
	sub	sp, sp, #24
	.cfi_def_cfa_offset 40
	.loc 1 478 0
	add	r3, sp, #24
.LVL133:
	stmdb	r3, {r0, r1, r2}
.LBB123:
.LBB120:
	.loc 3 70 0
	beq	.L146
.L127:
	.loc 3 71 0
	ldr	r4, [r6, #4]
	cmp	r4, #0
	beq	.L147
.L128:
	.loc 3 72 0
	mov	r3, #0
	mov	r1, #32768
	ldr	r0, [r6]
	movt	r1, 536
	str	r3, [sp]
	mov	r2, #16384
	blx	r4
.LVL134:
.LBE120:
.LBE123:
	.loc 1 485 0
	subs	r4, r0, #0
	beq	.L129
	.loc 1 490 0
	mov	r3, #1
	str	r3, [r4, #36]
.L130:
	.loc 1 491 0 discriminator 1
	ldr	r3, [r4, #36]
	ands	r3, r3, #1
	bne	.L130
	.loc 1 492 0
	ldr	r2, [r4, #36]
	.loc 1 496 0
	mvn	r1, #0
	.loc 1 499 0
	mov	r0, #12
	.loc 1 492 0
	orr	r2, r2, #256
	str	r2, [r4, #36]
	.loc 1 495 0
	str	r3, [r4, #8]
	.loc 1 496 0
	str	r1, [r4, #4]
	.loc 1 499 0
	bl	malloc
.LVL135:
	mov	r5, r0
.LVL136:
	.loc 1 500 0
	mov	r1, r0
	mov	r0, r6
.LVL137:
	bl	clock_sys_init
.LVL138:
.LBB124:
.LBB125:
	.loc 2 125 0
	cmp	r5, #0
	beq	.L148
.L131:
	.loc 2 126 0
	ldr	r3, [r5]
	cmp	r3, #0
	beq	.L149
.L132:
	.loc 2 127 0
	mov	r0, r5
	mov	r1, #6
	blx	r3
.LVL139:
.LBE125:
.LBE124:
.LBB128:
.LBB129:
	.loc 2 162 0
	subs	r6, r0, #0
.LVL140:
	beq	.L150
.L133:
	.loc 2 163 0
	ldr	r1, [r6, #48]
	cmp	r1, #0
	beq	.L151
.L134:
.LBE129:
.LBE128:
	.loc 1 504 0
	movw	r5, #:lower16:.LANCHOR1
.LVL141:
.LBB134:
.LBB130:
	.loc 2 164 0
	adr	r3, .L153
	ldrd	r2, [r3]
.LBE130:
.LBE134:
	.loc 1 504 0
	movt	r5, #:upper16:.LANCHOR1
.LBB135:
.LBB131:
	.loc 2 164 0
	mov	r0, r6
	blx	r1
.LVL142:
.LBE131:
.LBE135:
	.loc 1 505 0
	mov	r1, r5
	mov	r0, r6
	.loc 1 504 0
	str	r4, [r5, #8]
	.loc 1 505 0
	bl	clk_register_child
.LVL143:
.LBB136:
.LBB137:
	.loc 2 163 0
	ldr	r1, [r5, #48]
	cmp	r1, #0
	beq	.L152
.L135:
	.loc 2 164 0
	movw	r0, #:lower16:.LANCHOR1
	adr	r3, .L153+8
	ldrd	r2, [r3]
	movt	r0, #:upper16:.LANCHOR1
	blx	r1
.LVL144:
.LBE137:
.LBE136:
.LBB139:
.LBB140:
	.loc 1 584 0
	ldr	r3, [r4, #100]
	orr	r3, r3, #-2147483648
	str	r3, [r4, #100]
.L136:
	.loc 1 585 0
	ldr	r3, [r4, #100]
	tst	r3, #1073741824
	beq	.L136
	.loc 1 587 0
	ldr	r3, [r4, #100]
	orr	r3, r3, #536870912
	str	r3, [r4, #100]
.L137:
	.loc 1 588 0
	ldr	r3, [r4, #100]
	tst	r3, #1073741824
	beq	.L137
	.loc 1 590 0
	ldr	r2, [r4, #100]
.LBE140:
.LBE139:
	.loc 1 512 0
	mov	r3, #0
.LBB145:
.LBB146:
	.loc 1 438 0
	movw	r5, #34824
.LBE146:
.LBE145:
	.loc 1 521 0
	mov	r0, #65536
	.loc 1 534 0
	mov	ip, #2
	.loc 1 529 0
	mov	r6, #8
.LBB148:
.LBB141:
	.loc 1 590 0
	bic	r2, r2, #536870912
.LBE141:
.LBE148:
	.loc 1 543 0
	ldr	lr, [sp, #12]
.LBB149:
.LBB142:
	.loc 1 590 0
	str	r2, [r4, #100]
.LBE142:
.LBE149:
	.loc 1 548 0
	mov	r1, #68
.LBB150:
.LBB143:
	.loc 1 591 0
	ldr	r2, [r4, #100]
.LBE143:
.LBE150:
	.loc 1 548 0
	movt	r1, 1518
.LBB151:
.LBB144:
	.loc 1 591 0
	bic	r2, r2, #-2147483648
	str	r2, [r4, #100]
.LBE144:
.LBE151:
	.loc 1 512 0
	str	r3, [r4, #280]
	.loc 1 513 0
	str	r3, [r4, #284]
	.loc 1 514 0
	str	r3, [r4, #288]
	.loc 1 515 0
	str	r3, [r4, #292]
.LBB152:
.LBB147:
	.loc 1 437 0
	str	r3, [r4, #228]
	.loc 1 438 0
	str	r5, [r4, #232]
.LBE147:
.LBE152:
	.loc 1 540 0
	mov	r5, #64
	.loc 1 521 0
	str	r0, [r4, #236]
	.loc 1 550 0
	mov	r0, #4
	.loc 1 524 0
	ldr	r2, [r4, #236]
	orr	r2, r2, #32
	str	r2, [r4, #236]
	.loc 1 529 0
	str	r6, [r4, #428]
	.loc 1 531 0
	str	r3, [r4, #324]
	.loc 1 534 0
	str	ip, [r4, #324]
	.loc 1 535 0
	ldr	r3, [r4, #324]
	.loc 1 544 0
	ldr	ip, [sp, #16]
	.loc 1 545 0
	ldr	r2, [sp, #20]
	.loc 1 535 0
	orr	r3, r3, #256
	str	r3, [r4, #324]
	.loc 1 540 0
	str	r5, [r4, #452]
	.loc 1 543 0
	str	lr, [r4, #388]
	.loc 1 544 0
	str	ip, [r4, #384]
	.loc 1 545 0
	str	r2, [r4, #392]
	.loc 1 548 0
	str	r1, [r4, #132]
	.loc 1 550 0
	str	r0, [r4, #196]
.L129:
	.loc 1 554 0
	mov	r0, r4
	add	sp, sp, #24
	.cfi_remember_state
	.cfi_def_cfa_offset 16
	@ sp needed
	pop	{r4, r5, r6, pc}
.LVL145:
.L147:
	.cfi_restore_state
.LBB153:
.LBB121:
	.loc 3 71 0
	movw	r1, #:lower16:.LC14
	movw	r0, #:lower16:.LC16
	movt	r1, #:upper16:.LC14
	movt	r0, #:upper16:.LC16
	ldr	r3, .L153+16
	mov	r2, #71
	bl	__assert_fail
.LVL146:
	ldr	r4, [r6, #4]
	b	.L128
.LVL147:
.L149:
.LBE121:
.LBE153:
.LBB154:
.LBB126:
	.loc 2 126 0
	movw	r1, #:lower16:.LC4
	movw	r0, #:lower16:.LC18
	ldr	r3, .L153+20
	movt	r1, #:upper16:.LC4
	movt	r0, #:upper16:.LC18
	mov	r2, #126
	bl	__assert_fail
.LVL148:
	ldr	r3, [r5]
	b	.L132
.LVL149:
.L151:
.LBE126:
.LBE154:
.LBB155:
.LBB132:
	.loc 2 163 0
	movw	r1, #:lower16:.LC4
	movw	r0, #:lower16:.LC19
	movt	r1, #:upper16:.LC4
	movt	r0, #:upper16:.LC19
	ldr	r3, .L153+24
	mov	r2, #163
	bl	__assert_fail
.LVL150:
	ldr	r1, [r6, #48]
	b	.L134
.LVL151:
.L152:
.LBE132:
.LBE155:
.LBB156:
.LBB138:
	movw	r1, #:lower16:.LC4
	movw	r0, #:lower16:.LC19
	movt	r1, #:upper16:.LC4
	movt	r0, #:upper16:.LC19
	ldr	r3, .L153+24
	mov	r2, #163
	bl	__assert_fail
.LVL152:
	ldr	r1, [r5, #48]
	b	.L135
.LVL153:
.L146:
.LBE138:
.LBE156:
.LBB157:
.LBB122:
	.loc 3 70 0
	movw	r1, #:lower16:.LC14
	movw	r0, #:lower16:.LC15
	movt	r1, #:upper16:.LC14
	movt	r0, #:upper16:.LC15
	ldr	r3, .L153+16
	mov	r2, #70
	bl	__assert_fail
.LVL154:
	b	.L127
.LVL155:
.L150:
.LBE122:
.LBE157:
.LBB158:
.LBB133:
	.loc 2 162 0
	movw	r1, #:lower16:.LC4
	movw	r0, #:lower16:.LC5
	movt	r1, #:upper16:.LC4
	movt	r0, #:upper16:.LC5
	ldr	r3, .L153+24
	mov	r2, #162
	bl	__assert_fail
.LVL156:
	b	.L133
.LVL157:
.L148:
.LBE133:
.LBE158:
.LBB159:
.LBB127:
	.loc 2 125 0
	movw	r1, #:lower16:.LC4
	movw	r0, #:lower16:.LC17
	movt	r1, #:upper16:.LC4
	movt	r0, #:upper16:.LC17
	ldr	r3, .L153+20
	mov	r2, #125
	bl	__assert_fail
.LVL158:
	b	.L131
.L154:
	.align	3
.L153:
	.word	125000000
	.word	0
	.word	20000000
	.word	0
	.word	.LANCHOR0+116
	.word	.LANCHOR0+128
	.word	.LANCHOR0+144
.LBE127:
.LBE159:
	.cfi_endproc
.LFE40:
	.fnend
	.size	enet_init, .-enet_init
	.align	2
	.global	enet_dump_regs
	.syntax unified
	.arm
	.type	enet_dump_regs, %function
enet_dump_regs:
	.fnstart
.LFB42:
	.loc 1 574 0
	.cfi_startproc
	@ args = 0, pretend = 0, frame = 0
	@ frame_needed = 0, uses_anonymous_args = 0
.LVL159:
	push	{r4, lr}
	.save {r4, lr}
	.cfi_def_cfa_offset 8
	.cfi_offset 4, -8
	.cfi_offset 14, -4
	.loc 1 574 0
	mov	r4, r0
	.loc 1 576 0
	movw	r0, #:lower16:.LC20
.LVL160:
	movt	r0, #:upper16:.LC20
	bl	puts
.LVL161:
	.loc 1 577 0
	mov	r0, r4
	movw	r1, #1576
	bl	dump_regs
.LVL162:
	.loc 1 578 0
	mov	r0, #10
	.loc 1 579 0
	pop	{r4, lr}
	.cfi_restore 14
	.cfi_restore 4
	.cfi_def_cfa_offset 0
.LVL163:
	.loc 1 578 0
	b	putchar
.LVL164:
	.cfi_endproc
.LFE42:
	.fnend
	.size	enet_dump_regs, .-enet_dump_regs
	.align	2
	.global	enet_clear_mib
	.syntax unified
	.arm
	.type	enet_clear_mib, %function
enet_clear_mib:
	.fnstart
.LFB43:
	.loc 1 581 0
	.cfi_startproc
	@ args = 0, pretend = 0, frame = 0
	@ frame_needed = 0, uses_anonymous_args = 0
	@ link register save eliminated.
.LVL165:
	.loc 1 584 0
	ldr	r3, [r0, #100]
	orr	r3, r3, #-2147483648
	str	r3, [r0, #100]
.L158:
	.loc 1 585 0 discriminator 1
	ldr	r3, [r0, #100]
	tst	r3, #1073741824
	beq	.L158
	.loc 1 587 0
	ldr	r3, [r0, #100]
	orr	r3, r3, #536870912
	str	r3, [r0, #100]
.L159:
	.loc 1 588 0 discriminator 1
	ldr	r3, [r0, #100]
	tst	r3, #1073741824
	beq	.L159
	.loc 1 590 0
	ldr	r3, [r0, #100]
	bic	r3, r3, #536870912
	str	r3, [r0, #100]
	.loc 1 591 0
	ldr	r3, [r0, #100]
	bic	r3, r3, #-2147483648
	str	r3, [r0, #100]
	bx	lr
	.cfi_endproc
.LFE43:
	.fnend
	.size	enet_clear_mib, .-enet_clear_mib
	.align	2
	.global	enet_print_mib
	.syntax unified
	.arm
	.type	enet_print_mib, %function
enet_print_mib:
	.fnstart
.LFB44:
	.loc 1 596 0
	.cfi_startproc
	@ args = 0, pretend = 0, frame = 0
	@ frame_needed = 0, uses_anonymous_args = 0
.LVL166:
	push	{r4, r5, r6, lr}
	.save {r4, r5, r6, lr}
	.cfi_def_cfa_offset 16
	.cfi_offset 4, -16
	.cfi_offset 5, -12
	.cfi_offset 6, -8
	.cfi_offset 14, -4
	.loc 1 596 0
	mov	r4, r0
.LVL167:
	.loc 1 599 0
	ldr	r3, [r4, #100]
	.loc 1 601 0
	movw	r0, #:lower16:.LC21
.LVL168:
	movt	r0, #:upper16:.LC21
	.loc 1 605 0
	movw	r5, #:lower16:.LC22
	movt	r5, #:upper16:.LC22
	.loc 1 599 0
	orr	r3, r3, #-2147483648
	str	r3, [r4, #100]
	.loc 1 601 0
	bl	puts
.LVL169:
	.loc 1 602 0
	mov	r1, #256
	add	r0, r4, #512
.LVL170:
	bl	dump_regs
.LVL171:
	.loc 1 603 0
	mov	r0, #10
	bl	putchar
.LVL172:
	.loc 1 605 0
	mov	r0, r5
	bl	puts
.LVL173:
	.loc 1 606 0
	movw	r0, #:lower16:.LC23
	ldr	r1, [r4, #716]
	movt	r0, #:upper16:.LC23
	ldr	r2, [r4, #644]
	bl	printf
.LVL174:
	.loc 1 608 0
	movw	r0, #:lower16:.LC24
	ldr	r1, [r4, #728]
	movt	r0, #:upper16:.LC24
	bl	printf
.LVL175:
	.loc 1 609 0
	movw	r0, #:lower16:.LC25
	ldr	r1, [r4, #732]
	movt	r0, #:upper16:.LC25
	bl	printf
.LVL176:
	.loc 1 610 0
	mov	r0, r5
	bl	puts
.LVL177:
	.loc 1 611 0
	movw	r0, #:lower16:.LC26
	ldr	r1, [r4, #588]
	movt	r0, #:upper16:.LC26
	ldr	r2, [r4, #516]
	bl	printf
.LVL178:
	.loc 1 613 0
	movw	r0, #:lower16:.LC27
	ldr	r1, [r4, #612]
	movt	r0, #:upper16:.LC27
	bl	printf
.LVL179:
	.loc 1 614 0
	movw	r0, #:lower16:.LC28
	ldr	r1, [r4, #624]
	movt	r0, #:upper16:.LC28
	bl	printf
.LVL180:
	.loc 1 615 0
	mov	r0, r5
	bl	puts
.LVL181:
	.loc 1 616 0
	mov	r0, #10
	bl	putchar
.LVL182:
	.loc 1 617 0
	ldr	r3, [r4, #100]
	bic	r3, r3, #-2147483648
	str	r3, [r4, #100]
	pop	{r4, r5, r6, pc}
	.cfi_endproc
.LFE44:
	.fnend
	.size	enet_print_mib, .-enet_print_mib
	.align	2
	.global	enet_print_state
	.syntax unified
	.arm
	.type	enet_print_state, %function
enet_print_state:
	.fnstart
.LFB45:
	.loc 1 623 0
	.cfi_startproc
	@ args = 0, pretend = 0, frame = 0
	@ frame_needed = 0, uses_anonymous_args = 0
.LVL183:
.LBB160:
.LBB161:
	.loc 1 424 0
	ldr	r3, [r0, #36]
.LBE161:
.LBE160:
	.loc 1 623 0
	push	{r4, r5, r6, lr}
	.save {r4, r5, r6, lr}
	.cfi_def_cfa_offset 16
	.cfi_offset 4, -16
	.cfi_offset 5, -12
	.cfi_offset 6, -8
	.cfi_offset 14, -4
	.loc 1 625 0
	movw	r6, #:lower16:.LC29
	movw	r5, #:lower16:.LC30
	.loc 1 623 0
	mov	r4, r0
.LVL184:
	.loc 1 625 0
	tst	r3, #2
	movt	r6, #:upper16:.LC29
	movt	r5, #:upper16:.LC30
	movw	r0, #:lower16:.LC31
.LVL185:
	movne	r1, r6
	moveq	r1, r5
	movt	r0, #:upper16:.LC31
	bl	printf
.LVL186:
.LBB162:
.LBB163:
	.loc 1 406 0
	ldr	r1, [r4, #20]
.LVL187:
.LBE163:
.LBE162:
	.loc 1 626 0
	movw	r0, #:lower16:.LC32
	movt	r0, #:upper16:.LC32
	cmp	r1, #16777216
	moveq	r1, r6
	movne	r1, r5
	bl	printf
.LVL188:
.LBB164:
.LBB165:
	.loc 1 401 0
	ldr	r1, [r4, #16]
.LVL189:
.LBE165:
.LBE164:
	.loc 1 627 0
	movw	r0, #:lower16:.LC33
	movt	r0, #:upper16:.LC33
	cmp	r1, #16777216
	moveq	r1, r6
	movne	r1, r5
	bl	printf
.LVL190:
	.loc 1 628 0
	movw	r0, #:lower16:.LC34
	ldr	r1, [r4, #196]
	movt	r0, #:upper16:.LC34
	bl	printf
.LVL191:
	.loc 1 629 0
	movw	r0, #:lower16:.LC35
	ldr	r1, [r4, #132]
	movt	r0, #:upper16:.LC35
	bl	printf
.LVL192:
	.loc 1 630 0
	movw	r0, #:lower16:.LC36
	ldr	r1, [r4, #384]
	movt	r0, #:upper16:.LC36
	ldr	r2, [r4, #392]
	bl	printf
.LVL193:
	.loc 1 631 0
	movw	r0, #:lower16:.LC37
	ldr	r1, [r4, #388]
	movt	r0, #:upper16:.LC37
	bl	printf
.LVL194:
	.loc 1 632 0
	movw	r0, #:lower16:.LC38
	ldr	r1, [r4, #8]
	movt	r0, #:upper16:.LC38
	bl	printf
.LVL195:
	.loc 1 633 0
	movw	r0, #:lower16:.LC39
	ldr	r1, [r4, #4]
	movt	r0, #:upper16:.LC39
	bl	printf
.LVL196:
	.loc 1 634 0
	movw	r0, #:lower16:.LC40
	movt	r0, #:upper16:.LC40
	bl	puts
.LVL197:
	.loc 1 635 0
	mov	r0, #10
	.loc 1 636 0
	pop	{r4, r5, r6, lr}
	.cfi_restore 14
	.cfi_restore 6
	.cfi_restore 5
	.cfi_restore 4
	.cfi_def_cfa_offset 0
.LVL198:
	.loc 1 635 0
	b	putchar
.LVL199:
	.cfi_endproc
.LFE45:
	.fnend
	.size	enet_print_state, .-enet_print_state
	.section	.rodata
	.align	2
	.set	.LANCHOR0,. + 0
	.type	__func__.5299, %object
	.size	__func__.5299, 15
__func__.5299:
	.ascii	"_mdc_clk_recal\000"
	.space	1
	.type	__func__.4732, %object
	.size	__func__.4732, 13
__func__.4732:
	.ascii	"clk_get_freq\000"
	.space	3
	.type	__func__.5317, %object
	.size	__func__.5317, 15
__func__.5317:
	.ascii	"enet_set_speed\000"
	.space	1
	.type	__func__.5325, %object
	.size	__func__.5325, 15
__func__.5325:
	.ascii	"enet_mdio_read\000"
	.space	1
	.type	__func__.5341, %object
	.size	__func__.5341, 16
__func__.5341:
	.ascii	"enet_mdio_write\000"
	.type	__func__.5369, %object
	.size	__func__.5369, 13
__func__.5369:
	.ascii	"enet_disable\000"
	.space	3
	.type	__func__.5386, %object
	.size	__func__.5386, 19
__func__.5386:
	.ascii	"enet_enable_events\000"
	.space	1
	.type	__func__.4791, %object
	.size	__func__.4791, 10
__func__.4791:
	.ascii	"ps_io_map\000"
	.space	2
	.type	__func__.4715, %object
	.size	__func__.4715, 14
__func__.4715:
	.ascii	"clk_get_clock\000"
	.space	2
	.type	__func__.4728, %object
	.size	__func__.4728, 13
__func__.4728:
	.ascii	"clk_set_freq\000"
	.data
	.align	3
	.set	.LANCHOR1,. + 0
	.type	mdc_clk, %object
	.size	mdc_clk, 56
mdc_clk:
	.word	12
	.word	.LC41
	.word	0
	.space	4
	.word	2500000
	.word	0
	.word	0
	.word	0
	.word	0
	.space	4
	.word	_mdc_clk_init
	.word	_mdc_clk_get_freq
	.word	_mdc_clk_set_freq
	.word	_mdc_clk_recal
	.section	.rodata.str1.4,"aMS",%progbits,1
	.align	2
.LC0:
	.ascii	"/home/mint/seL4/dhs-demo-feb-2018/libs/libethdriver"
	.ascii	"s/src/plat/imx6/enet.c\000"
	.space	2
.LC1:
	.ascii	"0\000"
	.space	2
.LC2:
	.ascii	"+0x%03x: \000"
	.space	2
.LC3:
	.ascii	"0x%08x \000"
.LC4:
	.ascii	"/home/mint/seL4/dhs-demo-feb-2018/stage/arm/imx6/in"
	.ascii	"clude/platsupport/clock.h\000"
	.space	3
.LC5:
	.ascii	"clk\000"
.LC6:
	.ascii	"clk->get_freq\000"
	.space	2
.LC7:
	.ascii	"Invalid speed\000"
	.space	2
.LC8:
	.ascii	"!(phy & ~0x1f)\000"
	.space	1
.LC9:
	.ascii	"!(reg & ~0x1f)\000"
	.space	1
.LC10:
	.ascii	"regs->mscr\000"
	.space	1
.LC11:
	.ascii	"!enet_clr_events(enet, NETIRQ_MII)\000"
	.space	1
.LC12:
	.ascii	"!\"WARNING Descriptors will be reset\"\000"
	.space	3
.LC13:
	.ascii	"enet\000"
	.space	3
.LC14:
	.ascii	"/home/mint/seL4/dhs-demo-feb-2018/stage/arm/imx6/in"
	.ascii	"clude/platsupport/io.h\000"
	.space	2
.LC15:
	.ascii	"io_mapper\000"
	.space	2
.LC16:
	.ascii	"io_mapper->io_map_fn\000"
	.space	3
.LC17:
	.ascii	"clock_sys\000"
	.space	2
.LC18:
	.ascii	"clock_sys->get_clock\000"
	.space	3
.LC19:
	.ascii	"clk->set_freq\000"
	.space	2
.LC20:
	.ascii	"\012Ethernet regs\000"
	.space	1
.LC21:
	.ascii	"Ethernet Counter regs\000"
	.space	2
.LC22:
	.ascii	"-----------------------------\000"
	.space	2
.LC23:
	.ascii	"RX  Frames RX OK: %d/%d\012\000"
	.space	3
.LC24:
	.ascii	"RX FIFO overflow: %d\012\000"
	.space	2
.LC25:
	.ascii	"RX  pause frames: %d\012\000"
	.space	2
.LC26:
	.ascii	"TX  Frames TX OK: %d/%d\012\000"
	.space	3
.LC27:
	.ascii	"TX FIFO underrun: %d\012\000"
	.space	2
.LC28:
	.ascii	"TX  pause frames: %d\012\000"
	.space	2
.LC29:
	.ascii	"Active\000"
	.space	1
.LC30:
	.ascii	"Inactive\000"
	.space	3
.LC31:
	.ascii	"Ethernet state: %s\012\000"
.LC32:
	.ascii	"      TX state: %s\012\000"
.LC33:
	.ascii	"      RX state: %s\012\000"
.LC34:
	.ascii	"    TX control: 0x%08x\012\000"
.LC35:
	.ascii	"    RX control: 0x%08x\012\000"
.LC36:
	.ascii	"  RX desc base: 0x%08x (size: 0x%x)\012\000"
	.space	3
.LC37:
	.ascii	"  TX desc base: 0x%08x\012\000"
.LC38:
	.ascii	"Enabled events: 0x%08x\012\000"
.LC39:
	.ascii	"Pending events: 0x%08x\012\000"
.LC40:
	.ascii	"         Speed: ????\000"
	.space	3
.LC41:
	.ascii	"mdc_clk\000"
	.text
.Letext0:
	.file 4 "/home/mint/seL4/dhs-demo-feb-2018/stage/arm/imx6/include/bits/alltypes.h"
	.file 5 "/home/mint/seL4/dhs-demo-feb-2018/stage/arm/imx6/include/platsupport/plat/clock.h"
	.file 6 "/home/mint/seL4/dhs-demo-feb-2018/stage/arm/imx6/include/platsupport/mux.h"
	.file 7 "/home/mint/seL4/dhs-demo-feb-2018/stage/arm/imx6/include/platsupport/plat/mux.h"
	.file 8 "/home/mint/seL4/dhs-demo-feb-2018/libs/libethdrivers/src/plat/imx6/enet.h"
	.file 9 "/home/mint/seL4/dhs-demo-feb-2018/stage/arm/imx6/include/assert.h"
	.file 10 "/home/mint/seL4/dhs-demo-feb-2018/stage/arm/imx6/include/stdio.h"
	.file 11 "<built-in>"
	.file 12 "/home/mint/seL4/dhs-demo-feb-2018/stage/arm/imx6/include/stdlib.h"
	.section	.note.GNU-stack,"",%progbits
