	.cpu cortex-a9
	.fpu softvfp
	.eabi_attribute 20, 1
	.eabi_attribute 21, 1
	.eabi_attribute 23, 3
	.eabi_attribute 24, 1
	.eabi_attribute 25, 1
	.eabi_attribute 26, 2
	.eabi_attribute 30, 2
	.eabi_attribute 34, 1
	.eabi_attribute 18, 4
	.file	"miiphyutil.c"
	.text
.Ltext0:
	.cfi_sections	.debug_frame
	.align	2
	.syntax unified
	.arm
	.type	legacy_miiphy_read, %function
legacy_miiphy_read:
	.fnstart
.LFB61:
	.file 1 "/home/mint/seL4/dhs-demo-feb-2018/libs/libethdrivers/src/plat/imx6/uboot/miiphyutil.c"
	.loc 1 92 0
	.cfi_startproc
	@ args = 0, pretend = 0, frame = 8
	@ frame_needed = 0, uses_anonymous_args = 0
.LVL0:
	.loc 1 97 0
	ldr	ip, [r0, #40]
	uxtb	r2, r3
.LVL1:
	.loc 1 92 0
	push	{r4, lr}
	.save {r4, lr}
	.cfi_def_cfa_offset 8
	.cfi_offset 4, -8
	.cfi_offset 14, -4
	.loc 1 97 0
	uxtb	r1, r1
.LVL2:
	.loc 1 92 0
	.pad #8
	sub	sp, sp, #8
	.cfi_def_cfa_offset 16
	.loc 1 97 0
	add	r3, sp, #6
.LVL3:
	add	r0, r0, #8
.LVL4:
	ldr	r4, [ip]
	blx	r4
.LVL5:
	.loc 1 99 0
	cmp	r0, #0
	ldrheq	r0, [sp, #6]
.LVL6:
	mvnne	r0, #0
	.loc 1 100 0
	add	sp, sp, #8
	.cfi_def_cfa_offset 8
	@ sp needed
	pop	{r4, pc}
	.cfi_endproc
.LFE61:
	.fnend
	.size	legacy_miiphy_read, .-legacy_miiphy_read
	.align	2
	.syntax unified
	.arm
	.type	legacy_miiphy_write, %function
legacy_miiphy_write:
	.fnstart
.LFB62:
	.loc 1 104 0
	.cfi_startproc
	@ args = 4, pretend = 0, frame = 0
	@ frame_needed = 0, uses_anonymous_args = 0
.LVL7:
	.loc 1 107 0
	ldr	ip, [r0, #40]
	uxtb	r2, r3
.LVL8:
	.loc 1 104 0
	str	lr, [sp, #-4]!
	.save {lr}
	.cfi_def_cfa_offset 4
	.cfi_offset 14, -4
	.loc 1 107 0
	uxtb	r1, r1
.LVL9:
	ldrh	r3, [sp, #4]
.LVL10:
	add	r0, r0, #8
.LVL11:
	ldr	lr, [ip, #4]
	mov	ip, lr
.LVL12:
	.loc 1 108 0
	ldr	lr, [sp], #4
	.cfi_restore 14
	.cfi_def_cfa_offset 0
	.loc 1 107 0
	bx	ip
.LVL13:
	.cfi_endproc
.LFE62:
	.fnend
	.size	legacy_miiphy_write, .-legacy_miiphy_write
	.align	2
	.global	miiphy_get_dev_by_name
	.syntax unified
	.arm
	.type	miiphy_get_dev_by_name, %function
miiphy_get_dev_by_name:
	.fnstart
.LFB59:
	.loc 1 62 0
	.cfi_startproc
	@ args = 0, pretend = 0, frame = 0
	@ frame_needed = 0, uses_anonymous_args = 0
.LVL14:
	push	{r4, r5, r6, lr}
	.save {r4, r5, r6, lr}
	.cfi_def_cfa_offset 16
	.cfi_offset 4, -16
	.cfi_offset 5, -12
	.cfi_offset 6, -8
	.cfi_offset 14, -4
	.loc 1 66 0
	subs	r6, r0, #0
	beq	.L16
	.loc 1 71 0
	movw	r5, #:lower16:.LANCHOR0
	movt	r5, #:upper16:.LANCHOR0
	ldr	r4, [r5]
.LVL15:
	cmp	r4, r5
	bne	.L11
	b	.L12
.LVL16:
.L17:
	.loc 1 71 0 is_stmt 0 discriminator 2
	ldr	r4, [r4]
.LVL17:
	cmp	r4, r5
	beq	.L12
.LVL18:
.L11:
	.loc 1 73 0 is_stmt 1
	mov	r1, r6
	add	r0, r4, #8
	bl	strcmp
.LVL19:
	cmp	r0, #0
	bne	.L17
	mov	r0, r4
	.loc 1 78 0
	pop	{r4, r5, r6, pc}
.LVL20:
.L12:
	.loc 1 77 0
	mov	r0, #0
	pop	{r4, r5, r6, pc}
.LVL21:
.L16:
	.loc 1 67 0
	movw	r0, #:lower16:.LC0
.LVL22:
	movt	r0, #:upper16:.LC0
	bl	puts
.LVL23:
	.loc 1 68 0
	mov	r0, r6
	pop	{r4, r5, r6, pc}
	.cfi_endproc
.LFE59:
	.fnend
	.size	miiphy_get_dev_by_name, .-miiphy_get_dev_by_name
	.align	2
	.global	miiphy_init
	.syntax unified
	.arm
	.type	miiphy_init, %function
miiphy_init:
	.fnstart
.LFB60:
	.loc 1 85 0
	.cfi_startproc
	@ args = 0, pretend = 0, frame = 0
	@ frame_needed = 0, uses_anonymous_args = 0
	@ link register save eliminated.
	.loc 1 86 0
	movw	r3, #:lower16:.LANCHOR0
	.loc 1 88 0
	mov	r2, #0
	.loc 1 86 0
	movt	r3, #:upper16:.LANCHOR0
	str	r3, [r3]
	.loc 1 87 0
	str	r3, [r3, #4]
	.loc 1 88 0
	str	r2, [r3, #8]
	bx	lr
	.cfi_endproc
.LFE60:
	.fnend
	.size	miiphy_init, .-miiphy_init
	.align	2
	.global	mdio_alloc
	.syntax unified
	.arm
	.type	mdio_alloc, %function
mdio_alloc:
	.fnstart
.LFB64:
	.loc 1 163 0
	.cfi_startproc
	@ args = 0, pretend = 0, frame = 0
	@ frame_needed = 0, uses_anonymous_args = 0
	push	{r4, lr}
	.save {r4, lr}
	.cfi_def_cfa_offset 8
	.cfi_offset 4, -8
	.cfi_offset 14, -4
	.loc 1 166 0
	mov	r1, #1
	mov	r0, #188
	bl	calloc
.LVL24:
	.loc 1 167 0
	cmp	r0, #0
.LVL25:
.LBB29:
.LBB30:
	.file 2 "/home/mint/seL4/dhs-demo-feb-2018/libs/libethdrivers/src/plat/imx6/uboot/list.h"
	.loc 2 35 0
	strne	r0, [r0]
	.loc 2 36 0
	strne	r0, [r0, #4]
.LVL26:
.LBE30:
.LBE29:
	.loc 1 176 0
	pop	{r4, pc}
	.cfi_endproc
.LFE64:
	.fnend
	.size	mdio_alloc, .-mdio_alloc
	.align	2
	.global	miiphy_register
	.syntax unified
	.arm
	.type	miiphy_register, %function
miiphy_register:
	.fnstart
.LFB63:
	.loc 1 120 0
	.cfi_startproc
	@ args = 0, pretend = 0, frame = 0
	@ frame_needed = 0, uses_anonymous_args = 0
.LVL27:
	push	{r4, r5, r6, r7, r8, r9, r10, lr}
	.save {r4, r5, r6, r7, r8, r9, r10, lr}
	.cfi_def_cfa_offset 32
	.cfi_offset 4, -32
	.cfi_offset 5, -28
	.cfi_offset 6, -24
	.cfi_offset 7, -20
	.cfi_offset 8, -16
	.cfi_offset 9, -12
	.cfi_offset 10, -8
	.cfi_offset 14, -4
	.loc 1 120 0
	mov	r7, r1
	mov	r6, r2
	mov	r4, r0
	.loc 1 127 0
	bl	miiphy_get_dev_by_name
.LVL28:
	.loc 1 128 0
	cmp	r0, #0
	beq	.L26
	.loc 1 129 0
	movw	r0, #:lower16:.LC1
.LVL29:
	mov	r1, r4
	movt	r0, #:upper16:.LC1
	.loc 1 160 0
	pop	{r4, r5, r6, r7, r8, r9, r10, lr}
	.cfi_remember_state
	.cfi_restore 14
	.cfi_restore 10
	.cfi_restore 9
	.cfi_restore 8
	.cfi_restore 7
	.cfi_restore 6
	.cfi_restore 5
	.cfi_restore 4
	.cfi_def_cfa_offset 0
.LVL30:
	.loc 1 129 0
	b	printf
.LVL31:
.L26:
	.cfi_restore_state
	.loc 1 134 0
	bl	mdio_alloc
.LVL32:
	mov	r5, r0
.LVL33:
	.loc 1 135 0
	mov	r0, #8
.LVL34:
	bl	malloc
.LVL35:
	.loc 1 137 0
	cmp	r0, #0
	cmpne	r5, #0
	mov	r8, r0
	moveq	r9, #1
	movne	r9, #0
	beq	.L30
	.loc 1 144 0
	movw	r2, #:lower16:legacy_miiphy_read
	.loc 1 145 0
	movw	r3, #:lower16:legacy_miiphy_write
	movt	r3, #:upper16:legacy_miiphy_write
	.loc 1 144 0
	movt	r2, #:upper16:legacy_miiphy_read
	.loc 1 146 0
	mov	r1, r4
	.loc 1 144 0
	str	r2, [r5, #44]
	.loc 1 145 0
	str	r3, [r5, #48]
	.loc 1 146 0
	mov	r2, #32
	add	r0, r5, #8
.LVL36:
	bl	strncpy
.LVL37:
.LBB31:
.LBB32:
	.loc 2 78 0
	movw	r3, #:lower16:.LANCHOR0
.LBE32:
.LBE31:
	.loc 1 147 0
	strb	r9, [r5, #39]
.LBB41:
.LBB37:
	.loc 2 78 0
	movt	r3, #:upper16:.LANCHOR0
.LBE37:
.LBE41:
	.loc 1 148 0
	str	r7, [r8]
	.loc 1 158 0
	ldr	r1, [r3, #8]
.LBB42:
.LBB38:
	.loc 2 78 0
	ldr	r2, [r3, #4]
.LBE38:
.LBE42:
	.loc 1 149 0
	str	r6, [r8, #4]
	.loc 1 158 0
	cmp	r1, #0
.LBB43:
.LBB39:
.LBB33:
.LBB34:
	.loc 2 49 0
	str	r5, [r3, #4]
.LBE34:
.LBE33:
.LBE39:
.LBE43:
	.loc 1 150 0
	str	r8, [r5, #40]
.LVL38:
.LBB44:
.LBB40:
.LBB36:
.LBB35:
	.loc 2 51 0
	str	r2, [r5, #4]
	.loc 2 50 0
	str	r3, [r5]
	.loc 2 52 0
	str	r5, [r2]
.LVL39:
.LBE35:
.LBE36:
.LBE40:
.LBE44:
	.loc 1 158 0
	.loc 1 159 0
	streq	r5, [r3, #8]
	pop	{r4, r5, r6, r7, r8, r9, r10, pc}
.LVL40:
.L30:
	.loc 1 138 0
	movw	r0, #:lower16:.LC2
.LVL41:
	mov	r1, r4
	movt	r0, #:upper16:.LC2
	.loc 1 160 0
	pop	{r4, r5, r6, r7, r8, r9, r10, lr}
	.cfi_restore 14
	.cfi_restore 10
	.cfi_restore 9
	.cfi_restore 8
	.cfi_restore 7
	.cfi_restore 6
	.cfi_restore 5
	.cfi_restore 4
	.cfi_def_cfa_offset 0
.LVL42:
	.loc 1 138 0
	b	printf
.LVL43:
	.cfi_endproc
.LFE63:
	.fnend
	.size	miiphy_register, .-miiphy_register
	.align	2
	.global	mdio_register
	.syntax unified
	.arm
	.type	mdio_register, %function
mdio_register:
	.fnstart
.LFB65:
	.loc 1 179 0
	.cfi_startproc
	@ args = 0, pretend = 0, frame = 0
	@ frame_needed = 0, uses_anonymous_args = 0
.LVL44:
	.loc 1 180 0
	cmp	r0, #0
	beq	.L34
	.loc 1 180 0 is_stmt 0 discriminator 1
	ldr	r3, [r0, #44]
	.loc 1 179 0 is_stmt 1 discriminator 1
	push	{r4, r5, r6, lr}
	.save {r4, r5, r6, lr}
	.cfi_def_cfa_offset 16
	.cfi_offset 4, -16
	.cfi_offset 5, -12
	.cfi_offset 6, -8
	.cfi_offset 14, -4
	.loc 1 180 0 discriminator 1
	add	r5, r0, #8
	cmp	r3, #0
	beq	.L36
	.loc 1 180 0 is_stmt 0 discriminator 3
	ldr	r3, [r0, #48]
	cmp	r3, #0
	beq	.L36
	mov	r4, r0
	.loc 1 184 0 is_stmt 1
	mov	r0, r5
.LVL45:
	bl	miiphy_get_dev_by_name
.LVL46:
	cmp	r0, #0
	bne	.L39
.LVL47:
.LBB45:
.LBB46:
	.loc 2 78 0
	movw	r3, #:lower16:.LANCHOR0
	movt	r3, #:upper16:.LANCHOR0
.LBE46:
.LBE45:
	.loc 1 193 0
	ldr	r1, [r3, #8]
.LBB56:
.LBB53:
	.loc 2 78 0
	ldr	r2, [r3, #4]
.LVL48:
.LBB47:
.LBB48:
	.loc 2 49 0
	str	r4, [r3, #4]
.LBE48:
.LBE47:
.LBE53:
.LBE56:
	.loc 1 193 0
	cmp	r1, #0
.LBB57:
.LBB54:
.LBB51:
.LBB49:
	.loc 2 50 0
	str	r3, [r4]
	.loc 2 51 0
	str	r2, [r4, #4]
.LBE49:
.LBE51:
.LBE54:
.LBE57:
	.loc 1 196 0
	moveq	r0, r1
.LBB58:
.LBB55:
.LBB52:
.LBB50:
	.loc 2 52 0
	str	r4, [r2]
.LVL49:
.LBE50:
.LBE52:
.LBE55:
.LBE58:
	.loc 1 194 0
	streq	r4, [r3, #8]
	pop	{r4, r5, r6, pc}
.L39:
	.loc 1 185 0
	movw	r0, #:lower16:.LC3
	mov	r1, r5
	movt	r0, #:upper16:.LC3
	bl	printf
.LVL50:
	.loc 1 187 0
	mvn	r0, #0
	pop	{r4, r5, r6, pc}
.LVL51:
.L36:
	.loc 1 181 0
	mvn	r0, #0
.LVL52:
	.loc 1 197 0
	pop	{r4, r5, r6, pc}
.LVL53:
.L34:
	.cfi_def_cfa_offset 0
	.cfi_restore 4
	.cfi_restore 5
	.cfi_restore 6
	.cfi_restore 14
	.loc 1 181 0
	mvn	r0, #0
.LVL54:
	.loc 1 197 0
	bx	lr
	.cfi_endproc
.LFE65:
	.fnend
	.size	mdio_register, .-mdio_register
	.align	2
	.global	mdio_list_devices
	.syntax unified
	.arm
	.type	mdio_list_devices, %function
mdio_list_devices:
	.fnstart
.LFB66:
	.loc 1 200 0
	.cfi_startproc
	@ args = 0, pretend = 0, frame = 0
	@ frame_needed = 0, uses_anonymous_args = 0
	push	{r3, r4, r5, r6, r7, r8, r9, r10, fp, lr}
	.save {r3, r4, r5, r6, r7, r8, r9, r10, fp, lr}
	.cfi_def_cfa_offset 40
	.cfi_offset 3, -40
	.cfi_offset 4, -36
	.cfi_offset 5, -32
	.cfi_offset 6, -28
	.cfi_offset 7, -24
	.cfi_offset 8, -20
	.cfi_offset 9, -16
	.cfi_offset 10, -12
	.cfi_offset 11, -8
	.cfi_offset 14, -4
	.loc 1 203 0
	movw	r10, #:lower16:.LANCHOR0
	movt	r10, #:upper16:.LANCHOR0
	ldr	r9, [r10]
.LVL55:
	cmp	r9, r10
	popeq	{r3, r4, r5, r6, r7, r8, r9, r10, fp, pc}
.LBB59:
	.loc 1 207 0
	movw	fp, #:lower16:.LC4
.LBB60:
	.loc 1 213 0
	movw	r7, #:lower16:.LC5
	.loc 1 216 0
	movw	r8, #:lower16:.LC6
.LBE60:
	.loc 1 207 0
	movt	fp, #:upper16:.LC4
.LBB61:
	.loc 1 213 0
	movt	r7, #:upper16:.LC5
	.loc 1 216 0
	movt	r8, #:upper16:.LC6
.LVL56:
.L45:
.LBE61:
	.loc 1 207 0
	add	r1, r9, #8
	mov	r0, fp
	add	r6, r9, #52
	.loc 1 209 0
	mov	r4, #0
	.loc 1 207 0
	bl	printf
.LVL57:
	b	.L44
.LVL58:
.L54:
.LBB62:
	.loc 1 216 0
	bl	printf
.LVL59:
.L42:
.LBE62:
	.loc 1 209 0 discriminator 2
	add	r4, r4, #1
.LVL60:
	cmp	r4, #32
	beq	.L53
.LVL61:
.L44:
.LBB63:
	.loc 1 210 0
	ldr	r5, [r6, #4]!
.LVL62:
	.loc 1 213 0
	mov	r1, r4
	mov	r0, r7
	.loc 1 212 0
	cmp	r5, #0
	beq	.L42
	.loc 1 213 0
	ldr	r3, [r5, #4]
	ldr	r2, [r3]
	bl	printf
.LVL63:
	.loc 1 215 0
	ldr	r1, [r5, #12]
	.loc 1 216 0
	mov	r0, r8
	.loc 1 215 0
	cmp	r1, #0
	bne	.L54
	.loc 1 218 0
	mov	r0, #10
.LBE63:
	.loc 1 209 0
	add	r4, r4, #1
.LVL64:
.LBB64:
	.loc 1 218 0
	bl	putchar
.LVL65:
.LBE64:
	.loc 1 209 0
	cmp	r4, #32
	bne	.L44
.L53:
.LBE59:
	.loc 1 203 0 discriminator 2
	ldr	r9, [r9]
.LVL66:
	cmp	r9, r10
	bne	.L45
	pop	{r3, r4, r5, r6, r7, r8, r9, r10, fp, pc}
	.cfi_endproc
.LFE66:
	.fnend
	.size	mdio_list_devices, .-mdio_list_devices
	.align	2
	.global	miiphy_set_current_dev
	.syntax unified
	.arm
	.type	miiphy_set_current_dev, %function
miiphy_set_current_dev:
	.fnstart
.LFB67:
	.loc 1 225 0
	.cfi_startproc
	@ args = 0, pretend = 0, frame = 0
	@ frame_needed = 0, uses_anonymous_args = 0
.LVL67:
	push	{r4, lr}
	.save {r4, lr}
	.cfi_def_cfa_offset 8
	.cfi_offset 4, -8
	.cfi_offset 14, -4
	.loc 1 225 0
	mov	r4, r0
	.loc 1 228 0
	bl	miiphy_get_dev_by_name
.LVL68:
	.loc 1 229 0
	subs	r2, r0, #0
	beq	.L56
	.loc 1 230 0
	movw	r3, #:lower16:.LANCHOR0
	.loc 1 231 0
	mov	r0, #0
.LVL69:
	.loc 1 230 0
	movt	r3, #:upper16:.LANCHOR0
	str	r2, [r3, #8]
	.loc 1 231 0
	pop	{r4, pc}
.LVL70:
.L56:
	.loc 1 234 0
	movw	r0, #:lower16:.LC7
.LVL71:
	mov	r1, r4
	movt	r0, #:upper16:.LC7
	bl	printf
.LVL72:
	.loc 1 236 0
	mov	r0, #1
	.loc 1 237 0
	pop	{r4, pc}
	.cfi_endproc
.LFE67:
	.fnend
	.size	miiphy_set_current_dev, .-miiphy_set_current_dev
	.align	2
	.syntax unified
	.arm
	.type	miiphy_get_active_dev, %function
miiphy_get_active_dev:
	.fnstart
.LFB71:
	.loc 1 275 0
	.cfi_startproc
	@ args = 0, pretend = 0, frame = 0
	@ frame_needed = 0, uses_anonymous_args = 0
.LVL73:
	push	{r4, r5, r6, lr}
	.save {r4, r5, r6, lr}
	.cfi_def_cfa_offset 16
	.cfi_offset 4, -16
	.cfi_offset 5, -12
	.cfi_offset 6, -8
	.cfi_offset 14, -4
	.loc 1 277 0
	movw	r4, #:lower16:.LANCHOR0
	movt	r4, #:upper16:.LANCHOR0
	.loc 1 275 0
	mov	r6, r0
	.loc 1 277 0
	ldr	r5, [r4, #8]
	cmp	r5, #0
	beq	.L60
	.loc 1 278 0
	mov	r1, r0
	add	r0, r5, #8
.LVL74:
	bl	strcmp
.LVL75:
	cmp	r0, #0
	beq	.L61
.L60:
.LVL76:
.LBB67:
.LBB68:
	.loc 1 282 0
	mov	r0, r6
	bl	miiphy_set_current_dev
.LVL77:
	cmp	r0, #0
	.loc 1 285 0
	ldreq	r5, [r4, #8]
	.loc 1 283 0
	movne	r5, #0
.LVL78:
.L61:
.LBE68:
.LBE67:
	.loc 1 286 0
	mov	r0, r5
	pop	{r4, r5, r6, pc}
	.cfi_endproc
.LFE71:
	.fnend
	.size	miiphy_get_active_dev, .-miiphy_get_active_dev
	.align	2
	.global	mdio_get_current_dev
	.syntax unified
	.arm
	.type	mdio_get_current_dev, %function
mdio_get_current_dev:
	.fnstart
.LFB68:
	.loc 1 240 0
	.cfi_startproc
	@ args = 0, pretend = 0, frame = 0
	@ frame_needed = 0, uses_anonymous_args = 0
	@ link register save eliminated.
	.loc 1 241 0
	movw	r3, #:lower16:.LANCHOR0
	movt	r3, #:upper16:.LANCHOR0
	.loc 1 242 0
	ldr	r0, [r3, #8]
	bx	lr
	.cfi_endproc
.LFE68:
	.fnend
	.size	mdio_get_current_dev, .-mdio_get_current_dev
	.align	2
	.global	mdio_phydev_for_ethname
	.syntax unified
	.arm
	.type	mdio_phydev_for_ethname, %function
mdio_phydev_for_ethname:
	.fnstart
.LFB69:
	.loc 1 245 0
	.cfi_startproc
	@ args = 0, pretend = 0, frame = 0
	@ frame_needed = 0, uses_anonymous_args = 0
.LVL79:
	push	{r4, r5, r6, r7, r8, r9, r10, lr}
	.save {r4, r5, r6, r7, r8, r9, r10, lr}
	.cfi_def_cfa_offset 32
	.cfi_offset 4, -32
	.cfi_offset 5, -28
	.cfi_offset 6, -24
	.cfi_offset 7, -20
	.cfi_offset 8, -16
	.cfi_offset 9, -12
	.cfi_offset 10, -8
	.cfi_offset 14, -4
	.loc 1 249 0
	movw	r9, #:lower16:.LANCHOR0
	movt	r9, #:upper16:.LANCHOR0
	.loc 1 245 0
	mov	r6, r0
	.loc 1 249 0
	ldr	r8, [r9]
.LVL80:
	cmp	r8, r9
	beq	.L72
.LVL81:
.L76:
	add	r4, r8, #52
	add	r7, r8, #180
	b	.L75
.LVL82:
.L73:
.LBB69:
	.loc 1 253 0 discriminator 2
	cmp	r7, r4
	beq	.L89
.L75:
	.loc 1 254 0
	ldr	r5, [r4, #4]!
	.loc 1 257 0
	mov	r1, r6
	.loc 1 254 0
	cmp	r5, #0
	beq	.L73
.LVL83:
	.loc 1 254 0 is_stmt 0 discriminator 1
	ldr	r3, [r5, #12]
	subs	r0, r3, #0
	beq	.L73
	.loc 1 257 0 is_stmt 1
	bl	strcmp
.LVL84:
	cmp	r0, #0
	bne	.L73
.L74:
.LBE69:
	.loc 1 264 0
	mov	r0, r5
	pop	{r4, r5, r6, r7, r8, r9, r10, pc}
.L89:
	.loc 1 249 0 discriminator 2
	ldr	r8, [r8]
.LVL85:
	cmp	r8, r9
	bne	.L76
.LVL86:
.L72:
	.loc 1 262 0
	movw	r0, #:lower16:.LC8
	mov	r1, r6
	movt	r0, #:upper16:.LC8
	.loc 1 263 0
	mov	r5, #0
	.loc 1 262 0
	bl	printf
.LVL87:
	.loc 1 263 0
	b	.L74
	.cfi_endproc
.LFE69:
	.fnend
	.size	mdio_phydev_for_ethname, .-mdio_phydev_for_ethname
	.align	2
	.global	miiphy_get_current_dev
	.syntax unified
	.arm
	.type	miiphy_get_current_dev, %function
miiphy_get_current_dev:
	.fnstart
.LFB70:
	.loc 1 267 0
	.cfi_startproc
	@ args = 0, pretend = 0, frame = 0
	@ frame_needed = 0, uses_anonymous_args = 0
	@ link register save eliminated.
	.loc 1 268 0
	movw	r3, #:lower16:.LANCHOR0
	movt	r3, #:upper16:.LANCHOR0
	ldr	r0, [r3, #8]
	cmp	r0, #0
	.loc 1 269 0
	addne	r0, r0, #8
	.loc 1 272 0
	bx	lr
	.cfi_endproc
.LFE70:
	.fnend
	.size	miiphy_get_current_dev, .-miiphy_get_current_dev
	.align	2
	.global	miiphy_read
	.syntax unified
	.arm
	.type	miiphy_read, %function
miiphy_read:
	.fnstart
.LFB72:
	.loc 1 300 0
	.cfi_startproc
	@ args = 0, pretend = 0, frame = 0
	@ frame_needed = 0, uses_anonymous_args = 0
.LVL88:
	push	{r4, r5, r6, r7, r8, lr}
	.save {r4, r5, r6, r7, r8, lr}
	.cfi_def_cfa_offset 24
	.cfi_offset 4, -24
	.cfi_offset 5, -20
	.cfi_offset 6, -16
	.cfi_offset 7, -12
	.cfi_offset 8, -8
	.cfi_offset 14, -4
	.loc 1 300 0
	mov	r6, r3
	mov	r4, r1
	mov	r5, r2
	.loc 1 304 0
	bl	miiphy_get_active_dev
.LVL89:
	.loc 1 305 0
	subs	r3, r0, #0
	beq	.L96
	.loc 1 308 0
	ldr	r7, [r3, #44]
	mov	r1, r4
	mov	r3, r5
	mvn	r2, #0
	blx	r7
.LVL90:
	.loc 1 309 0
	subs	r3, r0, #0
	blt	.L96
	.loc 1 313 0
	mov	r0, #0
.LVL91:
	.loc 1 312 0
	strh	r3, [r6]	@ movhi
	.loc 1 314 0
	pop	{r4, r5, r6, r7, r8, pc}
.LVL92:
.L96:
	.loc 1 306 0
	mov	r0, #1
	pop	{r4, r5, r6, r7, r8, pc}
	.cfi_endproc
.LFE72:
	.fnend
	.size	miiphy_read, .-miiphy_read
	.align	2
	.global	miiphy_write
	.syntax unified
	.arm
	.type	miiphy_write, %function
miiphy_write:
	.fnstart
.LFB73:
	.loc 1 328 0
	.cfi_startproc
	@ args = 0, pretend = 0, frame = 0
	@ frame_needed = 0, uses_anonymous_args = 0
.LVL93:
	push	{r4, r5, r6, lr}
	.save {r4, r5, r6, lr}
	.cfi_def_cfa_offset 16
	.cfi_offset 4, -16
	.cfi_offset 5, -12
	.cfi_offset 6, -8
	.cfi_offset 14, -4
	.pad #8
	sub	sp, sp, #8
	.cfi_def_cfa_offset 24
	.loc 1 328 0
	mov	r4, r1
	mov	r5, r2
	mov	r6, r3
	.loc 1 331 0
	bl	miiphy_get_active_dev
.LVL94:
	.loc 1 332 0
	subs	r1, r0, #0
	.loc 1 335 0
	moveq	r0, #1
.LVL95:
	.loc 1 332 0
	beq	.L99
	.loc 1 333 0
	str	r6, [sp]
	mov	r3, r5
	mvn	r2, #0
	ldr	r5, [r1, #48]
	mov	r1, r4
.LVL96:
	blx	r5
.LVL97:
.L99:
	.loc 1 336 0
	add	sp, sp, #8
	.cfi_def_cfa_offset 16
	@ sp needed
	pop	{r4, r5, r6, pc}
	.cfi_endproc
.LFE73:
	.fnend
	.size	miiphy_write, .-miiphy_write
	.align	2
	.global	miiphy_listdev
	.syntax unified
	.arm
	.type	miiphy_listdev, %function
miiphy_listdev:
	.fnstart
.LFB74:
	.loc 1 343 0
	.cfi_startproc
	@ args = 0, pretend = 0, frame = 0
	@ frame_needed = 0, uses_anonymous_args = 0
	push	{r4, r5, r6, lr}
	.save {r4, r5, r6, lr}
	.cfi_def_cfa_offset 16
	.cfi_offset 4, -16
	.cfi_offset 5, -12
	.cfi_offset 6, -8
	.cfi_offset 14, -4
	.loc 1 347 0
	movw	r0, #:lower16:.LC9
	.loc 1 348 0
	movw	r5, #:lower16:.LANCHOR0
	.loc 1 347 0
	movt	r0, #:upper16:.LC9
	.loc 1 348 0
	movt	r5, #:upper16:.LANCHOR0
	.loc 1 347 0
	bl	puts
.LVL98:
	.loc 1 348 0
	ldr	r4, [r5]
.LVL99:
	cmp	r4, r5
	.loc 1 350 0
	movwne	r6, #:lower16:.LC11
	movtne	r6, #:upper16:.LC11
	.loc 1 348 0
	beq	.L107
.LVL100:
.L106:
	.loc 1 350 0 discriminator 3
	add	r1, r4, #8
	mov	r0, r6
	bl	printf
.LVL101:
	.loc 1 348 0 discriminator 3
	ldr	r4, [r4]
.LVL102:
	cmp	r4, r5
	bne	.L106
.LVL103:
.L107:
	.loc 1 352 0
	movw	r0, #:lower16:.LC10
	movt	r0, #:upper16:.LC10
	bl	puts
.LVL104:
	.loc 1 354 0
	ldr	r1, [r5, #8]
	cmp	r1, #0
	beq	.L111
	.loc 1 355 0
	movw	r0, #:lower16:.LC12
	add	r1, r1, #8
	movt	r0, #:upper16:.LC12
	.loc 1 356 0
	pop	{r4, r5, r6, lr}
	.cfi_remember_state
	.cfi_restore 14
	.cfi_restore 6
	.cfi_restore 5
	.cfi_restore 4
	.cfi_def_cfa_offset 0
.LVL105:
	.loc 1 355 0
	b	printf
.LVL106:
.L111:
	.cfi_restore_state
	pop	{r4, r5, r6, pc}
	.cfi_endproc
.LFE74:
	.fnend
	.size	miiphy_listdev, .-miiphy_listdev
	.align	2
	.global	miiphy_info
	.syntax unified
	.arm
	.type	miiphy_info, %function
miiphy_info:
	.fnstart
.LFB75:
	.loc 1 373 0
	.cfi_startproc
	@ args = 4, pretend = 0, frame = 8
	@ frame_needed = 0, uses_anonymous_args = 0
.LVL107:
	push	{r4, r5, r6, r7, r8, lr}
	.save {r4, r5, r6, r7, r8, lr}
	.cfi_def_cfa_offset 24
	.cfi_offset 4, -24
	.cfi_offset 5, -20
	.cfi_offset 6, -16
	.cfi_offset 7, -12
	.cfi_offset 8, -8
	.cfi_offset 14, -4
	.pad #8
	sub	sp, sp, #8
	.cfi_def_cfa_offset 32
	.loc 1 373 0
	mov	r8, r2
	mov	r7, r3
	.loc 1 377 0
	mov	r2, #3
.LVL108:
	add	r3, sp, #6
.LVL109:
	.loc 1 373 0
	mov	r5, r0
	mov	r6, r1
	.loc 1 377 0
	bl	miiphy_read
.LVL110:
	cmp	r0, #0
	bne	.L115
	.loc 1 381 0
	ldrh	r4, [sp, #6]
.LVL111:
	.loc 1 385 0
	movw	r3, #65535
	cmp	r4, r3
	beq	.L115
	.loc 1 390 0
	add	r3, sp, #6
	mov	r1, r6
	mov	r0, r5
	mov	r2, #2
	bl	miiphy_read
.LVL112:
	cmp	r0, #0
	bne	.L115
	.loc 1 394 0
	ldrh	r3, [sp, #6]
	orr	r3, r4, r3, lsl #16
.LVL113:
	.loc 1 397 0
	lsr	r1, r3, #10
	.loc 1 398 0
	ubfx	r2, r3, #4, #6
	.loc 1 399 0
	and	r3, r3, #15
.LVL114:
	.loc 1 397 0
	str	r1, [r8]
	.loc 1 398 0
	strb	r2, [r7]
	.loc 1 399 0
	ldr	r2, [sp, #32]
	strb	r3, [r2]
	.loc 1 401 0
	add	sp, sp, #8
	.cfi_remember_state
	.cfi_def_cfa_offset 24
	@ sp needed
	pop	{r4, r5, r6, r7, r8, pc}
.LVL115:
.L115:
	.cfi_restore_state
	.loc 1 379 0
	mvn	r0, #0
	.loc 1 401 0
	add	sp, sp, #8
	.cfi_def_cfa_offset 24
	@ sp needed
	pop	{r4, r5, r6, r7, r8, pc}
	.cfi_endproc
.LFE75:
	.fnend
	.size	miiphy_info, .-miiphy_info
	.align	2
	.global	miiphy_speed
	.syntax unified
	.arm
	.type	miiphy_speed, %function
miiphy_speed:
	.fnstart
.LFB76:
	.loc 1 457 0
	.cfi_startproc
	@ args = 0, pretend = 0, frame = 8
	@ frame_needed = 0, uses_anonymous_args = 0
.LVL116:
	push	{r4, r5, lr}
	.save {r4, r5, lr}
	.cfi_def_cfa_offset 12
	.cfi_offset 4, -12
	.cfi_offset 5, -8
	.cfi_offset 14, -4
	.pad #12
	sub	sp, sp, #12
	.cfi_def_cfa_offset 24
	.loc 1 484 0
	add	r3, sp, #4
	mov	r2, #0
	.loc 1 457 0
	mov	r4, r0
	mov	r5, r1
	.loc 1 484 0
	bl	miiphy_read
.LVL117:
	cmp	r0, #0
	bne	.L130
	.loc 1 489 0
	ldrh	r3, [sp, #4]
	tst	r3, #4096
	bne	.L131
	.loc 1 498 0
	tst	r3, #8192
	bne	.L124
.L129:
	.loc 1 502 0
	mov	r0, #10
	.loc 1 503 0
	add	sp, sp, #12
	.cfi_remember_state
	.cfi_def_cfa_offset 12
	@ sp needed
	pop	{r4, r5, pc}
.LVL118:
.L131:
	.cfi_restore_state
	.loc 1 491 0
	mov	r1, r5
	mov	r0, r4
	add	r3, sp, #6
	mov	r2, #5
	bl	miiphy_read
.LVL119:
	cmp	r0, #0
	bne	.L132
	.loc 1 495 0
	ldrh	r3, [sp, #6]
	tst	r3, #896
	beq	.L129
.L124:
	mov	r0, #100
	.loc 1 503 0
	add	sp, sp, #12
	.cfi_remember_state
	.cfi_def_cfa_offset 12
	@ sp needed
	pop	{r4, r5, pc}
.LVL120:
.L130:
	.cfi_restore_state
	.loc 1 485 0
	movw	r0, #:lower16:.LC13
	movt	r0, #:upper16:.LC13
	bl	printf
.LVL121:
.L119:
	.loc 1 501 0
	movw	r0, #:lower16:.LC15
	movt	r0, #:upper16:.LC15
	bl	puts
.LVL122:
	b	.L129
.L132:
	.loc 1 492 0
	movw	r0, #:lower16:.LC14
	movt	r0, #:upper16:.LC14
	bl	printf
.LVL123:
	.loc 1 493 0
	b	.L119
	.cfi_endproc
.LFE76:
	.fnend
	.size	miiphy_speed, .-miiphy_speed
	.align	2
	.global	miiphy_duplex
	.syntax unified
	.arm
	.type	miiphy_duplex, %function
miiphy_duplex:
	.fnstart
.LFB77:
	.loc 1 510 0
	.cfi_startproc
	@ args = 0, pretend = 0, frame = 8
	@ frame_needed = 0, uses_anonymous_args = 0
.LVL124:
	push	{r4, r5, lr}
	.save {r4, r5, lr}
	.cfi_def_cfa_offset 12
	.cfi_offset 4, -12
	.cfi_offset 5, -8
	.cfi_offset 14, -4
	.pad #12
	sub	sp, sp, #12
	.cfi_def_cfa_offset 24
	.loc 1 542 0
	add	r3, sp, #4
	mov	r2, #0
	.loc 1 510 0
	mov	r4, r0
	mov	r5, r1
	.loc 1 542 0
	bl	miiphy_read
.LVL125:
	cmp	r0, #0
	bne	.L146
	.loc 1 547 0
	ldrh	r3, [sp, #4]
	tst	r3, #4096
	bne	.L147
	.loc 1 557 0
	tst	r3, #256
	bne	.L140
.L145:
	.loc 1 561 0
	mov	r0, #22
	.loc 1 562 0
	add	sp, sp, #12
	.cfi_remember_state
	.cfi_def_cfa_offset 12
	@ sp needed
	pop	{r4, r5, pc}
.LVL126:
.L147:
	.cfi_restore_state
	.loc 1 549 0
	mov	r1, r5
	mov	r0, r4
	add	r3, sp, #6
	mov	r2, #5
	bl	miiphy_read
.LVL127:
	cmp	r0, #0
	bne	.L148
	.loc 1 554 0
	ldrh	r3, [sp, #6]
	tst	r3, #320
	beq	.L145
.L140:
	mov	r0, #44
	.loc 1 562 0
	add	sp, sp, #12
	.cfi_remember_state
	.cfi_def_cfa_offset 12
	@ sp needed
	pop	{r4, r5, pc}
.LVL128:
.L146:
	.cfi_restore_state
	.loc 1 543 0
	movw	r0, #:lower16:.LC16
	movt	r0, #:upper16:.LC16
	bl	puts
.LVL129:
.L135:
	.loc 1 560 0
	movw	r0, #:lower16:.LC18
	movt	r0, #:upper16:.LC18
	bl	puts
.LVL130:
	b	.L145
.L148:
	.loc 1 550 0
	movw	r0, #:lower16:.LC17
	movt	r0, #:upper16:.LC17
	bl	puts
.LVL131:
	.loc 1 551 0
	b	.L135
	.cfi_endproc
.LFE77:
	.fnend
	.size	miiphy_duplex, .-miiphy_duplex
	.align	2
	.global	miiphy_is_1000base_x
	.syntax unified
	.arm
	.type	miiphy_is_1000base_x, %function
miiphy_is_1000base_x:
	.fnstart
.LFB78:
	.loc 1 570 0
	.cfi_startproc
	@ args = 0, pretend = 0, frame = 0
	@ frame_needed = 0, uses_anonymous_args = 0
	@ link register save eliminated.
.LVL132:
	.loc 1 583 0
	mov	r0, #0
.LVL133:
	bx	lr
	.cfi_endproc
.LFE78:
	.fnend
	.size	miiphy_is_1000base_x, .-miiphy_is_1000base_x
	.section	.rodata.str1.4,"aMS",%progbits,1
	.align	2
.LC0:
	.ascii	"NULL device name!\000"
	.space	2
.LC1:
	.ascii	"miiphy_register: non unique device name '%s'\012\000"
	.space	2
.LC2:
	.ascii	"miiphy_register: cannot allocate memory for '%s'\012"
	.ascii	"\000"
	.space	2
.LC3:
	.ascii	"mdio_register: non unique device name '%s'\012\000"
.LC4:
	.ascii	"%s:\012\000"
	.space	3
.LC5:
	.ascii	"%d - %s\000"
.LC6:
	.ascii	" <--> %s\012\000"
	.space	2
.LC7:
	.ascii	"No such device: %s\012\000"
.LC8:
	.ascii	"%s is not a known ethernet\012\000"
.LC9:
	.ascii	"MII devices: \000"
	.space	2
.LC10:
	.ascii	"\012\000"
	.space	2
.LC11:
	.ascii	"'%s' \000"
	.space	2
.LC12:
	.ascii	"Current device: '%s'\012\000"
	.space	2
.LC13:
	.ascii	"PHY speed\000"
	.space	2
.LC14:
	.ascii	"PHY AN speed\000"
	.space	3
.LC15:
	.ascii	" read failed, assuming 10BASE-T\000"
.LC16:
	.ascii	"PHY duplex\000"
	.space	1
.LC17:
	.ascii	"PHY AN duplex\000"
	.space	2
.LC18:
	.ascii	" read failed, assuming half duplex\000"
	.bss
	.align	2
	.set	.LANCHOR0,. + 0
	.type	mii_devs, %object
	.size	mii_devs, 8
mii_devs:
	.space	8
	.type	current_mii, %object
	.size	current_mii, 4
current_mii:
	.space	4
	.text
.Letext0:
	.file 3 "/home/mint/seL4/dhs-demo-feb-2018/stage/arm/imx6/include/bits/alltypes.h"
	.file 4 "/home/mint/seL4/dhs-demo-feb-2018/libs/libethdrivers/src/plat/imx6/uboot/phy.h"
	.file 5 "/home/mint/seL4/dhs-demo-feb-2018/libs/libethdrivers/src/plat/imx6/uboot/fec_mxc.h"
	.file 6 "/home/mint/seL4/dhs-demo-feb-2018/libs/libethdrivers/src/plat/imx6/uboot/miiphy.h"
	.file 7 "<built-in>"
	.file 8 "/home/mint/seL4/dhs-demo-feb-2018/stage/arm/imx6/include/string.h"
	.file 9 "/home/mint/seL4/dhs-demo-feb-2018/stage/arm/imx6/include/stdio.h"
	.file 10 "/home/mint/seL4/dhs-demo-feb-2018/stage/arm/imx6/include/stdlib.h"
	.file 11 "/home/mint/seL4/dhs-demo-feb-2018/libs/libethdrivers/src/plat/imx6/uboot/../unimplemented.h"
	.section	.note.GNU-stack,"",%progbits
