	.cpu cortex-a9
	.fpu softvfp
	.eabi_attribute 20, 1
	.eabi_attribute 21, 1
	.eabi_attribute 23, 3
	.eabi_attribute 24, 1
	.eabi_attribute 25, 1
	.eabi_attribute 26, 2
	.eabi_attribute 30, 2
	.eabi_attribute 34, 1
	.eabi_attribute 18, 4
	.file	"mx6qsabrelite.c"
	.text
.Ltext0:
	.cfi_sections	.debug_frame
	.align	2
	.syntax unified
	.arm
	.type	imx_iomux_v3_setup_multiple_pads, %function
imx_iomux_v3_setup_multiple_pads:
	.fnstart
.LFB60:
	.file 1 "/home/mint/seL4/dhs-demo-feb-2018/libs/libethdrivers/src/plat/imx6/uboot/mx6qsabrelite.c"
	.loc 1 116 0
	.cfi_startproc
	@ args = 0, pretend = 0, frame = 8
	@ frame_needed = 0, uses_anonymous_args = 0
.LVL0:
	.loc 1 121 0
	subs	r3, r2, #0
	.loc 1 116 0
	push	{r4, r5, r6, r7, r8, r9, r10, fp, lr}
	.save {r4, r5, r6, r7, r8, r9, r10, fp, lr}
	.cfi_def_cfa_offset 36
	.cfi_offset 4, -36
	.cfi_offset 5, -32
	.cfi_offset 6, -28
	.cfi_offset 7, -24
	.cfi_offset 8, -20
	.cfi_offset 9, -16
	.cfi_offset 10, -12
	.cfi_offset 11, -8
	.cfi_offset 14, -4
	.pad #12
	sub	sp, sp, #12
	.cfi_def_cfa_offset 48
	.loc 1 121 0
	str	r3, [sp, #4]
.LVL1:
	beq	.L18
	sub	r1, r1, #8
.LVL2:
	mov	lr, #0
.LBB4:
.LBB5:
	.loc 1 100 0
	mov	ip, r1
	str	r0, [sp]
.LVL3:
.L6:
.LBE5:
.LBE4:
	.loc 1 122 0
	ldrd	r0, [ip, #8]!
.LVL4:
.LBB8:
.LBB6:
	.loc 1 99 0
	mov	r2, #61440
	movt	r2, 255
	.loc 1 100 0
	mov	r8, #0
	.loc 1 99 0
	mov	r3, #0
.LBE6:
.LBE8:
	.loc 1 121 0
	add	lr, lr, #1
.LVL5:
.LBB9:
.LBB7:
	.loc 1 97 0
	and	r4, r0, #-16777216
	and	r5, r1, #15
	lsr	r10, r4, #24
	.loc 1 95 0
	ubfx	r4, r0, #0, #12
.LVL6:
	.loc 1 96 0
	and	r9, r1, #496
	.loc 1 97 0
	lsr	fp, r5, #24
	.loc 1 102 0
	cmp	r4, #0
	.loc 1 97 0
	orr	r10, r10, r5, lsl #8
.LVL7:
	.loc 1 99 0
	and	r2, r2, r0
	.loc 1 96 0
	lsr	r6, r9, #4
	.loc 1 100 0
	and	r8, r8, r0
	.loc 1 99 0
	lsr	r2, r2, #12
	.loc 1 100 0
	mov	r0, r8
.LVL8:
	.loc 1 106 0
	ldr	r5, [sp]
	.loc 1 103 0
	ldrne	r0, [sp]
	.loc 1 100 0
	mov	r9, #65024
	.loc 1 99 0
	and	r3, r3, r1
	.loc 1 98 0
	and	r7, r1, #2013265920
	.loc 1 100 0
	movt	r9, 2047
	.loc 1 99 0
	orr	r2, r2, r3, lsl #20
	.loc 1 98 0
	lsr	r7, r7, #27
	.loc 1 99 0
	lsr	r3, r3, #12
.LVL9:
	.loc 1 103 0
	strne	r6, [r0, r4]
	.loc 1 100 0
	and	r9, r9, r1
	.loc 1 105 0
	orrs	r0, r10, fp
	.loc 1 100 0
	lsr	r1, r9, #9
.LVL10:
	.loc 1 106 0
	add	r5, r5, r10
	strne	r7, [r5]
	.loc 1 108 0
	orrs	r3, r2, r3
	movne	r3, #1
	moveq	r3, #0
	eor	r0, r1, #131072
	ands	r3, r3, r0, lsr #17
	.loc 1 109 0
	ldrne	r3, [sp]
	strne	r1, [r3, r2]
.LBE7:
.LBE9:
	.loc 1 121 0
	ldr	r3, [sp, #4]
	cmp	lr, r3
	bne	.L6
.LVL11:
.L18:
	.loc 1 128 0
	mov	r0, #0
	add	sp, sp, #12
	.cfi_def_cfa_offset 36
	@ sp needed
	pop	{r4, r5, r6, r7, r8, r9, r10, fp, pc}
	.cfi_endproc
.LFE60:
	.fnend
	.size	imx_iomux_v3_setup_multiple_pads, .-imx_iomux_v3_setup_multiple_pads
	.align	2
	.global	setup_iomux_enet
	.syntax unified
	.arm
	.type	setup_iomux_enet, %function
setup_iomux_enet:
	.fnstart
.LFB61:
	.loc 1 132 0
	.cfi_startproc
	@ args = 0, pretend = 0, frame = 0
	@ frame_needed = 0, uses_anonymous_args = 0
.LVL12:
	push	{r4, r5, r6, lr}
	.save {r4, r5, r6, lr}
	.cfi_def_cfa_offset 16
	.cfi_offset 4, -16
	.cfi_offset 5, -12
	.cfi_offset 6, -8
	.cfi_offset 14, -4
.LBB14:
.LBB15:
	.file 2 "/home/mint/seL4/dhs-demo-feb-2018/stage/arm/imx6/include/platsupport/io.h"
	.loc 2 70 0
	subs	r4, r0, #0
.LBE15:
.LBE14:
	.loc 1 132 0
	.pad #8
	sub	sp, sp, #8
	.cfi_def_cfa_offset 24
.LBB18:
.LBB16:
	.loc 2 70 0
	beq	.L31
.LVL13:
.L22:
	.loc 2 71 0
	ldr	r6, [r4, #4]
	cmp	r6, #0
	beq	.L32
.L23:
	.loc 2 72 0
	mov	r5, #0
	ldr	r0, [r4]
	mov	r1, r5
	str	r5, [sp]
	mov	r3, r5
	movt	r1, 526
	mov	r2, #16384
	blx	r6
.LVL14:
.LBE16:
.LBE18:
	.loc 1 135 0
	subs	r6, r0, #0
	.loc 1 136 0
	moveq	r0, #1
	.loc 1 135 0
	beq	.L24
	.loc 1 139 0
	mov	r1, r5
	mov	r2, r4
	mov	r0, #87
	bl	gpio_direction_output
.LVL15:
	.loc 1 140 0
	mov	r2, r4
	mov	r1, #1
	mov	r0, #190
	bl	gpio_direction_output
.LVL16:
	.loc 1 141 0
	mov	r2, r4
	mov	r1, #1
	mov	r0, #185
	bl	gpio_direction_output
.LVL17:
	.loc 1 142 0
	mov	r2, r4
	mov	r1, #1
	mov	r0, #187
	bl	gpio_direction_output
.LVL18:
	.loc 1 143 0
	mov	r2, r4
	mov	r1, #1
	mov	r0, #188
	bl	gpio_direction_output
.LVL19:
	.loc 1 144 0
	mov	r2, r4
	mov	r1, #1
	mov	r0, #189
	bl	gpio_direction_output
.LVL20:
	.loc 1 145 0
	mov	r2, #16
	ldr	r1, .L36
	mov	r0, r6
	bl	imx_iomux_v3_setup_multiple_pads
.LVL21:
	.loc 1 146 0
	cmp	r0, #0
	beq	.L33
.LVL22:
.L24:
	.loc 1 161 0
	add	sp, sp, #8
	.cfi_remember_state
	.cfi_def_cfa_offset 16
	@ sp needed
	pop	{r4, r5, r6, pc}
.LVL23:
.L33:
	.cfi_restore_state
	.loc 1 149 0
	mov	r2, r4
	mov	r1, #1
	mov	r0, #184
.LVL24:
	bl	gpio_direction_output
.LVL25:
	.loc 1 151 0
	movw	r0, #10000
	bl	udelay
.LVL26:
	.loc 1 152 0
	mov	r1, #1
	mov	r0, #87
	bl	gpio_set_value
.LVL27:
	.loc 1 154 0
	mov	r2, #6
	ldr	r1, .L36+4
	mov	r0, r6
	bl	imx_iomux_v3_setup_multiple_pads
.LVL28:
	.loc 1 155 0
	cmp	r0, #0
	bne	.L24
.LVL29:
.LBB19:
.LBB20:
	.loc 2 78 0
	cmp	r4, r5
	beq	.L34
.LVL30:
.L25:
	.loc 2 79 0
	ldr	r3, [r4, #8]
	cmp	r3, #0
	beq	.L35
.L26:
	.loc 2 80 0
	ldr	r0, [r4]
	mov	r1, r6
	mov	r2, #16384
	blx	r3
.LVL31:
.LBE20:
.LBE19:
	.loc 1 160 0
	mov	r0, #0
	.loc 1 161 0
	add	sp, sp, #8
	.cfi_remember_state
	.cfi_def_cfa_offset 16
	@ sp needed
	pop	{r4, r5, r6, pc}
.LVL32:
.L32:
	.cfi_restore_state
.LBB22:
.LBB17:
	.loc 2 71 0
	movw	r3, #:lower16:.LANCHOR0
	movw	r1, #:lower16:.LC0
	movw	r0, #:lower16:.LC2
	movt	r3, #:upper16:.LANCHOR0
	movt	r1, #:upper16:.LC0
	movt	r0, #:upper16:.LC2
	mov	r2, #71
	bl	__assert_fail
.LVL33:
	ldr	r6, [r4, #4]
	b	.L23
.LVL34:
.L31:
	.loc 2 70 0
	movw	r3, #:lower16:.LANCHOR0
	movw	r1, #:lower16:.LC0
	movw	r0, #:lower16:.LC1
.LVL35:
	movt	r3, #:upper16:.LANCHOR0
	movt	r1, #:upper16:.LC0
	movt	r0, #:upper16:.LC1
	mov	r2, #70
	bl	__assert_fail
.LVL36:
	b	.L22
.LVL37:
.L35:
.LBE17:
.LBE22:
.LBB23:
.LBB21:
	.loc 2 79 0
	movw	r1, #:lower16:.LC0
	movw	r0, #:lower16:.LC3
	ldr	r3, .L36+8
	movt	r1, #:upper16:.LC0
	movt	r0, #:upper16:.LC3
	mov	r2, #79
	bl	__assert_fail
.LVL38:
	ldr	r3, [r4, #8]
	b	.L26
.LVL39:
.L34:
	.loc 2 78 0
	movw	r1, #:lower16:.LC0
	movw	r0, #:lower16:.LC1
.LVL40:
	movt	r1, #:upper16:.LC0
	movt	r0, #:upper16:.LC1
	ldr	r3, .L36+8
	mov	r2, #78
	bl	__assert_fail
.LVL41:
	b	.L25
.L37:
	.align	2
.L36:
	.word	.LANCHOR0+16
	.word	.LANCHOR0+144
	.word	.LANCHOR0+192
.LBE21:
.LBE23:
	.cfi_endproc
.LFE61:
	.fnend
	.size	setup_iomux_enet, .-setup_iomux_enet
	.section	.rodata
	.align	3
	.set	.LANCHOR0,. + 0
	.type	__func__.5019, %object
	.size	__func__.5019, 10
__func__.5019:
	.ascii	"ps_io_map\000"
	.space	6
	.type	enet_pads1, %object
	.size	enet_pads1, 128
enet_pads1:
	.word	1078870480
	.word	56713240
	.word	5276148
	.word	56713232
	.word	3588184
	.word	56713232
	.word	3604572
	.word	56713232
	.word	3620960
	.word	56713232
	.word	3637348
	.word	56713232
	.word	3653736
	.word	56713232
	.word	3702900
	.word	56713232
	.word	5145044
	.word	56713232
	.word	3768452
	.word	67108944
	.word	3686512
	.word	67108944
	.word	3719288
	.word	67108944
	.word	3735676
	.word	67108944
	.word	3752064
	.word	67108944
	.word	3670124
	.word	67108944
	.word	3932332
	.word	67108944
	.type	enet_pads2, %object
	.size	enet_pads2, 48
enet_pads2:
	.word	1144619140
	.word	56713240
	.word	1211646064
	.word	56713240
	.word	1278787704
	.word	56713240
	.word	1345912956
	.word	56713240
	.word	1413038208
	.word	56713240
	.word	1480065132
	.word	56713240
	.type	__func__.5025, %object
	.size	__func__.5025, 12
__func__.5025:
	.ascii	"ps_io_unmap\000"
	.section	.rodata.str1.4,"aMS",%progbits,1
	.align	2
.LC0:
	.ascii	"/home/mint/seL4/dhs-demo-feb-2018/stage/arm/imx6/in"
	.ascii	"clude/platsupport/io.h\000"
	.space	2
.LC1:
	.ascii	"io_mapper\000"
	.space	2
.LC2:
	.ascii	"io_mapper->io_map_fn\000"
	.space	3
.LC3:
	.ascii	"io_mapper->io_unmap_fn\000"
	.text
.Letext0:
	.file 3 "/home/mint/seL4/dhs-demo-feb-2018/stage/arm/imx6/include/bits/alltypes.h"
	.file 4 "/home/mint/seL4/dhs-demo-feb-2018/stage/arm/imx6/include/platsupport/clock.h"
	.file 5 "/home/mint/seL4/dhs-demo-feb-2018/stage/arm/imx6/include/platsupport/plat/clock.h"
	.file 6 "/home/mint/seL4/dhs-demo-feb-2018/stage/arm/imx6/include/platsupport/mux.h"
	.file 7 "/home/mint/seL4/dhs-demo-feb-2018/stage/arm/imx6/include/platsupport/plat/mux.h"
	.file 8 "/home/mint/seL4/dhs-demo-feb-2018/libs/libethdrivers/src/plat/imx6/uboot/mx6qsabrelite.h"
	.file 9 "/home/mint/seL4/dhs-demo-feb-2018/libs/libethdrivers/src/plat/imx6/uboot/phy.h"
	.file 10 "/home/mint/seL4/dhs-demo-feb-2018/stage/arm/imx6/include/assert.h"
	.file 11 "/home/mint/seL4/dhs-demo-feb-2018/libs/libethdrivers/src/plat/imx6/uboot/gpio.h"
	.file 12 "/home/mint/seL4/dhs-demo-feb-2018/libs/libethdrivers/src/plat/imx6/uboot/../unimplemented.h"
	.file 13 "/home/mint/seL4/dhs-demo-feb-2018/libs/libethdrivers/src/plat/imx6/uboot/mx6x_pins.h"
	.section	.note.GNU-stack,"",%progbits
