	.cpu cortex-a9
	.fpu softvfp
	.eabi_attribute 20, 1
	.eabi_attribute 21, 1
	.eabi_attribute 23, 3
	.eabi_attribute 24, 1
	.eabi_attribute 25, 1
	.eabi_attribute 26, 2
	.eabi_attribute 30, 2
	.eabi_attribute 34, 1
	.eabi_attribute 18, 4
	.file	"phy.c"
	.text
.Ltext0:
	.cfi_sections	.debug_frame
	.align	2
	.global	genphy_shutdown
	.syntax unified
	.arm
	.type	genphy_shutdown, %function
genphy_shutdown:
	.fnstart
.LFB68:
	.file 1 "/home/mint/seL4/dhs-demo-feb-2018/libs/libethdrivers/src/plat/imx6/uboot/phy.c"
	.loc 1 407 0
	.cfi_startproc
	@ args = 0, pretend = 0, frame = 0
	@ frame_needed = 0, uses_anonymous_args = 0
	@ link register save eliminated.
.LVL0:
	.loc 1 409 0
	mov	r0, #0
.LVL1:
	bx	lr
	.cfi_endproc
.LFE68:
	.fnend
	.size	genphy_shutdown, .-genphy_shutdown
	.align	2
	.syntax unified
	.arm
	.type	phy_device_create, %function
phy_device_create:
	.fnstart
.LFB73:
	.loc 1 475 0
	.cfi_startproc
	@ args = 0, pretend = 0, frame = 0
	@ frame_needed = 0, uses_anonymous_args = 0
.LVL2:
	push	{r4, r5, r6, r7, r8, lr}
	.save {r4, r5, r6, r7, r8, lr}
	.cfi_def_cfa_offset 24
	.cfi_offset 4, -24
	.cfi_offset 5, -20
	.cfi_offset 6, -16
	.cfi_offset 7, -12
	.cfi_offset 8, -8
	.cfi_offset 14, -4
	.loc 1 475 0
	mov	r6, r0
	mov	r5, r1
	.loc 1 480 0
	mov	r0, #72
.LVL3:
	mov	r1, #1
.LVL4:
	.loc 1 475 0
	mov	r7, r2
	mov	r8, r3
	.loc 1 480 0
	bl	calloc
.LVL5:
	.loc 1 481 0
	subs	r4, r0, #0
	beq	.L18
.LBB84:
.LBB85:
	.loc 1 462 0
	movw	r2, #:lower16:.LANCHOR0
.LBE85:
.LBE84:
	.loc 1 490 0
	mov	r1, #1
.LBB93:
.LBB87:
	.loc 1 462 0
	movt	r2, #:upper16:.LANCHOR0
.LBE87:
.LBE93:
	.loc 1 489 0
	mvn	r0, #0
.LVL6:
.LBB94:
.LBB88:
	.loc 1 462 0
	mov	ip, r2
.LBE88:
.LBE94:
	.loc 1 491 0
	str	r8, [r4, #32]
.LBB95:
.LBB89:
	.loc 1 462 0
	ldr	r3, [ip, #44]!
.LBE89:
.LBE95:
	.loc 1 495 0
	str	r5, [r4, #52]
	.loc 1 496 0
	str	r7, [r4, #64]
.LBB96:
.LBB90:
	.loc 1 462 0
	cmp	r3, ip
.LBE90:
.LBE96:
	.loc 1 497 0
	str	r6, [r4]
.LVL7:
	.loc 1 489 0
	str	r0, [r4, #20]
.LVL8:
	.loc 1 490 0
	str	r1, [r4, #24]
	.loc 1 493 0
	str	r1, [r4, #48]
.LBB97:
.LBB91:
	.loc 1 462 0
	beq	.L10
.LVL9:
	.loc 1 464 0
	ldr	r2, [r3, #-32]
	ldr	r1, [r3, #-28]
	eor	r2, r2, r7
	tst	r2, r1
	bne	.L7
	b	.L16
.LVL10:
.L8:
	ldr	r1, [r3, #-32]
	ldr	r0, [r3, #-28]
	eor	r1, r1, r7
	tst	r1, r0
	beq	.L16
.LVL11:
.L7:
	.loc 1 462 0
	ldr	r3, [r3]
.LVL12:
	cmp	r3, ip
	bne	.L8
	.loc 1 469 0
	movw	r3, #:lower16:.LANCHOR0
.LVL13:
	movt	r3, #:upper16:.LANCHOR0
.L5:
.LBE91:
.LBE97:
.LBB98:
.LBB99:
	.loc 1 439 0
	ldr	r1, [r3, #20]
	.loc 1 436 0
	ldr	r2, [r3, #16]
	.loc 1 437 0
	ldr	r0, [r3, #12]
	.loc 1 439 0
	cmp	r1, #0
.LBE99:
.LBE98:
	.loc 1 499 0
	str	r3, [r4, #4]
.LVL14:
.LBB101:
.LBB100:
	.loc 1 436 0
	str	r2, [r4, #40]
	str	r2, [r4, #36]
	.loc 1 437 0
	str	r0, [r4, #44]
	.loc 1 439 0
	beq	.L9
	.loc 1 440 0
	mov	r0, r4
	blx	r1
.LVL15:
.L9:
.LBE100:
.LBE101:
	.loc 1 503 0
	add	r5, r5, #14
.LVL16:
	str	r4, [r6, r5, lsl #2]
.LVL17:
.L4:
	.loc 1 506 0
	mov	r0, r4
	pop	{r4, r5, r6, r7, r8, pc}
.LVL18:
.L16:
.LBB102:
.LBB92:
.LBB86:
	.loc 1 463 0
	sub	r3, r3, #36
.LVL19:
	b	.L5
.LVL20:
.L10:
.LBE86:
	.loc 1 469 0
	mov	r3, r2
.LVL21:
	b	.L5
.LVL22:
.L18:
.LBE92:
.LBE102:
	.loc 1 482 0
	movw	r0, #:lower16:.LC0
.LVL23:
	mov	r2, r5
	add	r1, r6, #8
	movt	r0, #:upper16:.LC0
	bl	printf
.LVL24:
	.loc 1 484 0
	b	.L4
	.cfi_endproc
.LFE73:
	.fnend
	.size	phy_device_create, .-phy_device_create
	.align	2
	.syntax unified
	.arm
	.type	get_phy_device_by_mask, %function
get_phy_device_by_mask:
	.fnstart
.LFB77:
	.loc 1 575 0
	.cfi_startproc
	@ args = 0, pretend = 0, frame = 8
	@ frame_needed = 0, uses_anonymous_args = 0
.LVL25:
	push	{r4, r5, r6, r7, r8, r9, r10, fp, lr}
	.save {r4, r5, r6, r7, r8, r9, r10, fp, lr}
	.cfi_def_cfa_offset 36
	.cfi_offset 4, -36
	.cfi_offset 5, -32
	.cfi_offset 6, -28
	.cfi_offset 7, -24
	.cfi_offset 8, -20
	.cfi_offset 9, -16
	.cfi_offset 10, -12
	.cfi_offset 11, -8
	.cfi_offset 14, -4
.LBB125:
.LBB126:
	.loc 1 562 0
	subs	fp, r1, #0
.LBE126:
.LBE125:
	.loc 1 575 0
	.pad #12
	sub	sp, sp, #12
	.cfi_def_cfa_offset 48
	.loc 1 575 0
	mov	r7, r0
.LVL26:
.LBB138:
.LBB137:
	.loc 1 562 0
	mov	r6, fp
	beq	.L20
.LBB127:
	.loc 1 568 0
	mov	lr, #1
	b	.L28
.LVL27:
.L26:
.LBE127:
	.loc 1 562 0
	bics	r6, r6, lr, lsl r3
.LVL28:
	beq	.L20
.LVL29:
.L28:
.LBB136:
.LBB128:
.LBB129:
.LBB130:
.LBB131:
	.file 2 "/home/mint/seL4/dhs-demo-feb-2018/libs/libethdrivers/src/plat/imx6/uboot/bitops.h"
	.loc 2 22 0
	uxth	r3, r6
.LBE131:
.LBE130:
.LBE129:
.LBE128:
	.loc 1 563 0
	mov	r1, r6
.LVL30:
.LBB135:
.LBB134:
.LBB133:
.LBB132:
	.loc 2 22 0
	cmp	r3, #0
.LVL31:
	.loc 2 23 0
	asreq	r1, r6, #16
.LVL32:
	.loc 2 24 0
	moveq	r3, #17
	.loc 2 18 0
	movne	r3, #1
.LVL33:
	.loc 2 26 0
	tst	r1, #255
.LVL34:
	.loc 2 27 0
	asreq	r1, r1, #8
.LVL35:
	.loc 2 28 0
	addeq	r3, r3, #8
.LVL36:
	.loc 2 30 0
	tst	r1, #15
.LVL37:
	.loc 2 31 0
	asreq	r1, r1, #4
.LVL38:
	.loc 2 32 0
	addeq	r3, r3, #4
.LVL39:
	.loc 2 34 0
	tst	r1, #3
.LVL40:
	.loc 2 35 0
	asreq	r1, r1, #2
.LVL41:
	.loc 2 36 0
	addeq	r3, r3, #2
.LVL42:
	.loc 2 38 0
	tst	r1, #1
.LVL43:
	.loc 2 40 0
	addeq	r3, r3, #1
.LVL44:
.LBE132:
.LBE133:
.LBE134:
.LBE135:
	.loc 1 564 0
	add	r1, r3, #13
	.loc 1 563 0
	sub	r3, r3, #1
.LVL45:
	.loc 1 564 0
	ldr	r0, [r7, r1, lsl #2]
	cmp	r0, #0
	beq	.L26
	.loc 1 565 0
	str	r2, [r0, #32]
.LVL46:
.L58:
.LBE136:
.LBE137:
.LBE138:
	.loc 1 593 0
	add	sp, sp, #12
	.cfi_remember_state
	.cfi_def_cfa_offset 36
	@ sp needed
	pop	{r4, r5, r6, r7, r8, r9, r10, fp, pc}
.LVL47:
.L20:
	.cfi_restore_state
.LBB139:
.LBB140:
.LBB141:
	.loc 1 553 0
	mov	r10, #1
	str	r2, [sp, #4]
.LVL48:
.L31:
.LBE141:
.LBE140:
.LBE139:
	.loc 1 585 0
	cmp	r6, #0
	movne	r9, r6
	mvneq	r9, #0
.LVL49:
.LBB173:
.LBB171:
	.loc 1 545 0
	cmp	fp, #0
	movne	r8, fp
	bne	.L42
	b	.L43
.LVL50:
.L67:
.LBB168:
.LBB142:
.LBB143:
	.loc 1 531 0
	mov	r3, #3
	mov	r2, r9
	mov	r1, r5
	mov	r0, r7
.LVL51:
	ldr	ip, [r7, #44]
	.loc 1 528 0
	lsl	r4, r4, #16
.LVL52:
	.loc 1 531 0
	blx	ip
.LVL53:
	.loc 1 533 0
	cmp	r0, #0
	blt	.L40
	.loc 1 536 0
	uxth	r0, r0
.LVL54:
	orr	r4, r0, r4
.LVL55:
.LBE143:
.LBE142:
	.loc 1 551 0
	bic	r3, r4, #-536870912
	cmn	r3, #-536870911
	bne	.L66
.LVL56:
.LBE168:
	.loc 1 545 0
	bics	r8, r8, r10, lsl r5
.LVL57:
	beq	.L43
.LVL58:
.L42:
.LBB169:
.LBB148:
.LBB149:
.LBB150:
.LBB151:
	.loc 2 22 0
	uxth	r2, r8
.LBE151:
.LBE150:
.LBE149:
.LBE148:
	.loc 1 546 0
	mov	r3, r8
.LVL59:
.LBB161:
.LBB144:
	.loc 1 523 0
	ldr	r4, [r7, #44]
	mov	r0, r7
.LBE144:
.LBE161:
.LBB162:
.LBB158:
.LBB155:
.LBB152:
	.loc 2 22 0
	cmp	r2, #0
.LVL60:
.LBE152:
.LBE155:
.LBE158:
.LBE162:
.LBB163:
.LBB145:
	.loc 1 523 0
	mov	r2, r9
.LBE145:
.LBE163:
.LBB164:
.LBB159:
.LBB156:
.LBB153:
	.loc 2 23 0
	asreq	r3, r8, #16
.LVL61:
	.loc 2 24 0
	moveq	r5, #17
	.loc 2 18 0
	movne	r5, #1
.LVL62:
	.loc 2 26 0
	tst	r3, #255
.LVL63:
	.loc 2 27 0
	asreq	r3, r3, #8
.LVL64:
	.loc 2 28 0
	addeq	r5, r5, #8
.LVL65:
	.loc 2 30 0
	tst	r3, #15
.LVL66:
	.loc 2 31 0
	asreq	r3, r3, #4
.LVL67:
	.loc 2 32 0
	addeq	r5, r5, #4
.LVL68:
	.loc 2 34 0
	tst	r3, #3
.LVL69:
	.loc 2 35 0
	asreq	r3, r3, #2
.LVL70:
	.loc 2 36 0
	addeq	r5, r5, #2
.LVL71:
	.loc 2 38 0
	tst	r3, #1
.LVL72:
.LBE153:
.LBE156:
.LBE159:
.LBE164:
.LBB165:
.LBB146:
	.loc 1 523 0
	mov	r3, #2
.LBE146:
.LBE165:
.LBB166:
.LBB160:
.LBB157:
.LBB154:
	.loc 2 40 0
	addeq	r5, r5, #1
.LVL73:
.LBE154:
.LBE157:
.LBE160:
.LBE166:
	.loc 1 546 0
	sub	r5, r5, #1
.LVL74:
.LBB167:
.LBB147:
	.loc 1 523 0
	mov	r1, r5
	blx	r4
.LVL75:
	.loc 1 525 0
	subs	r4, r0, #0
	bge	.L67
.LVL76:
.L40:
.LBE147:
.LBE167:
.LBE169:
.LBE171:
.LBE173:
	.loc 1 587 0
	mov	r0, #0
	.loc 1 593 0
	add	sp, sp, #12
	.cfi_remember_state
	.cfi_def_cfa_offset 36
	@ sp needed
	pop	{r4, r5, r6, r7, r8, r9, r10, fp, pc}
.LVL77:
.L66:
	.cfi_restore_state
	mov	r2, r4
.LBB174:
.LBB172:
.LBB170:
	.loc 1 552 0
	mov	r1, r5
	ldr	r3, [sp, #4]
	mov	r0, r7
	bl	phy_device_create
.LVL78:
.LBE170:
.LBE172:
.LBE174:
	.loc 1 586 0
	cmn	r0, #4096
	bcs	.L40
	.loc 1 588 0
	cmp	r0, #0
	bne	.L58
.LVL79:
.L43:
	.loc 1 584 0
	add	r6, r6, #1
.LVL80:
	cmp	r6, #5
	bne	.L31
.LVL81:
.LBB175:
.LBB176:
	.loc 1 591 0
	movw	r0, #:lower16:.LC1
	movt	r0, #:upper16:.LC1
	bl	puts
.LVL82:
.LBB177:
.LBB178:
	.loc 2 20 0
	cmp	fp, #0
	mvneq	r1, #0
	beq	.L44
.LVL83:
.LBB179:
.LBB180:
	.loc 2 22 0
	uxth	r3, fp
	cmp	r3, #0
.LVL84:
	.loc 2 23 0
	asreq	fp, fp, #16
.LVL85:
	.loc 2 24 0
	moveq	r1, #17
	.loc 2 18 0
	movne	r1, #1
.LVL86:
	.loc 2 26 0
	tst	fp, #255
.LVL87:
	.loc 2 27 0
	asreq	fp, fp, #8
.LVL88:
	.loc 2 28 0
	addeq	r1, r1, #8
.LVL89:
	.loc 2 30 0
	tst	fp, #15
.LVL90:
	.loc 2 31 0
	asreq	fp, fp, #4
.LVL91:
	.loc 2 32 0
	addeq	r1, r1, #4
.LVL92:
	.loc 2 34 0
	tst	fp, #3
.LVL93:
	.loc 2 35 0
	asreq	fp, fp, #2
.LVL94:
	.loc 2 36 0
	addeq	r1, r1, #2
.LVL95:
	.loc 2 38 0
	tst	fp, #1
	subne	r1, r1, #1
.LVL96:
.L44:
.LBE180:
.LBE179:
.LBE178:
.LBE177:
	.loc 1 592 0
	ldr	r3, [sp, #4]
	mov	r0, r7
	mvn	r2, #0
.LBE176:
.LBE175:
	.loc 1 593 0
	add	sp, sp, #12
	.cfi_def_cfa_offset 36
	@ sp needed
	pop	{r4, r5, r6, r7, r8, r9, r10, fp, lr}
	.cfi_restore 14
	.cfi_restore 11
	.cfi_restore 10
	.cfi_restore 9
	.cfi_restore 8
	.cfi_restore 7
	.cfi_restore 6
	.cfi_restore 5
	.cfi_restore 4
	.cfi_def_cfa_offset 0
.LVL97:
.LBB182:
.LBB181:
	.loc 1 592 0
	b	phy_device_create
.LVL98:
.LBE181:
.LBE182:
	.cfi_endproc
.LFE77:
	.fnend
	.size	get_phy_device_by_mask, .-get_phy_device_by_mask
	.align	2
	.global	genphy_restart_aneg
	.syntax unified
	.arm
	.type	genphy_restart_aneg, %function
genphy_restart_aneg:
	.fnstart
.LFB62:
	.loc 1 153 0
	.cfi_startproc
	@ args = 0, pretend = 0, frame = 0
	@ frame_needed = 0, uses_anonymous_args = 0
.LVL99:
	push	{r4, r5, lr}
	.save {r4, r5, lr}
	.cfi_def_cfa_offset 12
	.cfi_offset 4, -12
	.cfi_offset 5, -8
	.cfi_offset 14, -4
	mov	r4, r0
	ldr	r0, [r0]
.LVL100:
	.pad #12
	sub	sp, sp, #12
	.cfi_def_cfa_offset 24
.LBB183:
.LBB184:
	.file 3 "/home/mint/seL4/dhs-demo-feb-2018/libs/libethdrivers/src/plat/imx6/uboot/phy.h"
	.loc 3 185 0
	mov	r3, #0
	mvn	r2, #0
	ldr	r1, [r4, #52]
	ldr	r5, [r0, #44]
	blx	r5
.LVL101:
.LBE184:
.LBE183:
	.loc 1 158 0
	cmp	r0, #0
	blt	.L69
.LVL102:
	ldr	ip, [r4]
.LVL103:
.LBB185:
.LBB186:
	.loc 3 193 0
	movw	r3, #59903
	and	r3, r3, r0
	ldr	r1, [r4, #52]
	orr	r2, r3, #4608
	mov	r3, #0
	str	r2, [sp]
	mov	r0, ip
.LVL104:
	ldr	r4, [ip, #48]
.LVL105:
	mvn	r2, #0
	blx	r4
.LVL106:
.L69:
.LBE186:
.LBE185:
	.loc 1 169 0
	add	sp, sp, #12
	.cfi_def_cfa_offset 12
	@ sp needed
	pop	{r4, r5, pc}
	.cfi_endproc
.LFE62:
	.fnend
	.size	genphy_restart_aneg, .-genphy_restart_aneg
	.align	2
	.global	genphy_config_aneg
	.syntax unified
	.arm
	.type	genphy_config_aneg, %function
genphy_config_aneg:
	.fnstart
.LFB63:
	.loc 1 181 0
	.cfi_startproc
	@ args = 0, pretend = 0, frame = 0
	@ frame_needed = 0, uses_anonymous_args = 0
.LVL107:
	.loc 1 184 0
	ldr	r3, [r0, #48]
	.loc 1 181 0
	push	{r4, r5, r6, r7, lr}
	.save {r4, r5, r6, r7, lr}
	.cfi_def_cfa_offset 20
	.cfi_offset 4, -20
	.cfi_offset 5, -16
	.cfi_offset 6, -12
	.cfi_offset 7, -8
	.cfi_offset 14, -4
	mov	r4, r0
	.pad #12
	sub	sp, sp, #12
	.cfi_def_cfa_offset 32
	.loc 1 184 0
	cmp	r3, #1
	beq	.L72
.LVL108:
.LBB206:
.LBB207:
	.loc 1 134 0
	ldr	r2, [r0, #16]
	.loc 1 132 0
	mov	r3, #0
	str	r3, [r0, #60]
	str	r3, [r0, #56]
	.loc 1 134 0
	cmp	r2, #1000
	.loc 1 135 0
	moveq	r3, #64
	.loc 1 134 0
	beq	.L73
	.loc 1 137 0
	cmp	r2, #100
	moveq	r3, #8192
.L73:
.LVL109:
	.loc 1 139 0
	ldr	r2, [r4, #20]
	ldr	r0, [r4]
.LVL110:
.LBB208:
.LBB209:
	.loc 3 193 0
	ldr	r1, [r4, #52]
.LBE209:
.LBE208:
	.loc 1 139 0
	cmp	r2, #1
	.loc 1 140 0
	orreq	r3, r3, #256
.LVL111:
.LBB211:
.LBB210:
	.loc 3 193 0
	uxth	r2, r3
	mov	r3, #0
.LVL112:
	str	r2, [sp]
	mvn	r2, #0
.LVL113:
	ldr	r4, [r0, #48]
.LVL114:
	blx	r4
.LVL115:
.L104:
.LBE210:
.LBE211:
.LBE207:
.LBE206:
	.loc 1 210 0
	add	sp, sp, #12
	.cfi_remember_state
	.cfi_def_cfa_offset 20
	@ sp needed
	pop	{r4, r5, r6, r7, pc}
.LVL116:
.L72:
	.cfi_restore_state
.LBB212:
.LBB213:
.LBB214:
.LBB215:
	.loc 1 60 0
	ldr	r0, [r0, #36]
.LVL117:
.LBB216:
.LBB217:
	.loc 3 185 0
	mov	r3, #4
.LBE217:
.LBE216:
	.loc 1 60 0
	ldr	r5, [r4, #40]
.LBB220:
.LBB218:
	.loc 3 185 0
	mvn	r2, #0
	ldr	ip, [r4]
	ldr	r1, [r4, #52]
.LBE218:
.LBE220:
	.loc 1 60 0
	and	r5, r5, r0
	str	r5, [r4, #36]
.LVL118:
.LBB221:
.LBB219:
	.loc 3 185 0
	mov	r0, ip
	ldr	r6, [ip, #44]
	blx	r6
.LVL119:
.LBE219:
.LBE221:
	.loc 1 66 0
	cmp	r0, #0
	blt	.L104
	.loc 1 69 0
	bic	r3, r0, #4064
.LVL120:
	.loc 1 71 0
	tst	r5, #1
	.loc 1 72 0
	orrne	r3, r3, #32
.LVL121:
	.loc 1 73 0
	tst	r5, #2
	.loc 1 74 0
	orrne	r3, r3, #64
.LVL122:
	.loc 1 75 0
	tst	r5, #4
	.loc 1 76 0
	orrne	r3, r3, #128
.LVL123:
	.loc 1 77 0
	tst	r5, #8
	.loc 1 78 0
	orrne	r3, r3, #256
.LVL124:
	.loc 1 79 0
	tst	r5, #8192
	.loc 1 80 0
	orrne	r3, r3, #1024
.LVL125:
	.loc 1 81 0
	tst	r5, #16384
	.loc 1 82 0
	orrne	r3, r3, #2048
.LVL126:
	.loc 1 84 0
	cmp	r0, r3
	beq	.L83
	ldr	r0, [r4]
.LVL127:
.LBB222:
.LBB223:
	.loc 3 193 0
	uxth	r2, r3
	ldr	r1, [r4, #52]
	mov	r3, #4
.LVL128:
	str	r2, [sp]
	mvn	r2, #0
.LVL129:
	ldr	r6, [r0, #48]
	blx	r6
.LVL130:
.LBE223:
.LBE222:
	.loc 1 87 0
	cmp	r0, #0
	blt	.L104
.LVL131:
	.loc 1 93 0
	ldr	r3, [r4, #40]
	tst	r3, #48
	bne	.L127
.LVL132:
.L88:
.LBE215:
.LBE214:
	.loc 1 207 0
	mov	r0, r4
.LBE213:
.LBE212:
	.loc 1 210 0
	add	sp, sp, #12
	.cfi_remember_state
	.cfi_def_cfa_offset 20
	@ sp needed
	pop	{r4, r5, r6, r7, lr}
	.cfi_restore 14
	.cfi_restore 7
	.cfi_restore 6
	.cfi_restore 5
	.cfi_restore 4
	.cfi_def_cfa_offset 0
.LVL133:
.LBB238:
.LBB237:
	.loc 1 207 0
	b	genphy_restart_aneg
.LVL134:
.L83:
	.cfi_restore_state
.LBB231:
.LBB228:
	.loc 1 93 0
	ldr	r3, [r4, #40]
.LVL135:
	tst	r3, #48
	bne	.L128
.LVL136:
.L89:
	ldr	r0, [r4]
.LVL137:
.LBE228:
.LBE231:
.LBB232:
.LBB233:
.LBB234:
	.loc 3 185 0
	mov	r3, #0
	mvn	r2, #0
	ldr	r1, [r4, #52]
	ldr	r5, [r0, #44]
.LVL138:
	blx	r5
.LVL139:
.LBE234:
.LBE233:
	.loc 1 197 0
	cmp	r0, #0
	blt	.L104
	.loc 1 200 0
	and	r0, r0, #5120
	cmp	r0, #4096
	moveq	r0, #0
	bne	.L88
	b	.L104
.LVL140:
.L128:
.LBE232:
.LBB235:
.LBB229:
	.loc 1 56 0
	mov	r7, #0
.LVL141:
.L90:
	ldr	r0, [r4]
.LVL142:
.LBB224:
.LBB225:
	.loc 3 185 0
	mov	r3, #9
	mvn	r2, #0
	ldr	r1, [r4, #52]
	ldr	r6, [r0, #44]
	blx	r6
.LVL143:
.LBE225:
.LBE224:
	.loc 1 97 0
	cmp	r0, #0
	blt	.L104
	.loc 1 100 0
	bic	r3, r0, #768
.LVL144:
	.loc 1 101 0
	tst	r5, #16
	.loc 1 102 0
	orrne	r3, r3, #256
.LVL145:
	.loc 1 103 0
	tst	r5, #32
	.loc 1 104 0
	orrne	r3, r3, #512
.LVL146:
	.loc 1 106 0
	cmp	r0, r3
	beq	.L87
	ldr	r0, [r4]
.LVL147:
.LBB226:
.LBB227:
	.loc 3 193 0
	uxth	r2, r3
	ldr	r1, [r4, #52]
	mov	r3, #9
.LVL148:
	str	r2, [sp]
	mvn	r2, #0
.LVL149:
	ldr	r5, [r0, #48]
.LVL150:
	blx	r5
.LVL151:
.LBE227:
.LBE226:
	.loc 1 110 0
	cmp	r0, #0
	bge	.L88
	b	.L104
.LVL152:
.L87:
.LBE229:
.LBE235:
	.loc 1 192 0
	cmp	r7, #0
	bne	.L88
	b	.L89
.LVL153:
.L127:
.LBB236:
.LBB230:
	.loc 1 89 0
	mov	r7, #1
	b	.L90
.LBE230:
.LBE236:
.LBE237:
.LBE238:
	.cfi_endproc
.LFE63:
	.fnend
	.size	genphy_config_aneg, .-genphy_config_aneg
	.align	2
	.global	genphy_config
	.syntax unified
	.arm
	.type	genphy_config, %function
genphy_config:
	.fnstart
.LFB66:
	.loc 1 350 0
	.cfi_startproc
	@ args = 0, pretend = 0, frame = 0
	@ frame_needed = 0, uses_anonymous_args = 0
.LVL154:
	push	{r4, r5, r6, lr}
	.save {r4, r5, r6, lr}
	.cfi_def_cfa_offset 16
	.cfi_offset 4, -16
	.cfi_offset 5, -12
	.cfi_offset 6, -8
	.cfi_offset 14, -4
	.loc 1 350 0
	mov	r5, r0
	ldr	r0, [r0]
.LVL155:
.LBB239:
.LBB240:
	.loc 3 185 0
	mov	r3, #1
	mvn	r2, #0
	ldr	r1, [r5, #52]
	ldr	r4, [r0, #44]
	blx	r4
.LVL156:
.LBE240:
.LBE239:
	.loc 1 363 0
	cmp	r0, #0
	poplt	{r4, r5, r6, pc}
	.loc 1 367 0
	tst	r0, #8
	movne	r4, #4032
	moveq	r4, #3968
.LVL157:
	.loc 1 369 0
	tst	r0, #16384
	.loc 1 370 0
	orrne	r4, r4, #8
.LVL158:
	.loc 1 371 0
	tst	r0, #8192
	.loc 1 372 0
	orrne	r4, r4, #4
.LVL159:
	.loc 1 373 0
	tst	r0, #4096
	.loc 1 374 0
	orrne	r4, r4, #2
.LVL160:
	.loc 1 375 0
	tst	r0, #2048
	.loc 1 376 0
	orrne	r4, r4, #1
.LVL161:
	.loc 1 378 0
	tst	r0, #256
	beq	.L136
	ldr	r0, [r5]
.LVL162:
.LBB241:
.LBB242:
	.loc 3 185 0
	mov	r3, #15
	mvn	r2, #0
	ldr	r1, [r5, #52]
	ldr	r6, [r0, #44]
	blx	r6
.LVL163:
.LBE242:
.LBE241:
	.loc 1 381 0
	cmp	r0, #0
	poplt	{r4, r5, r6, pc}
	.loc 1 384 0
	tst	r0, #8192
	.loc 1 385 0
	orrne	r4, r4, #32
.LVL164:
	.loc 1 386 0
	tst	r0, #4096
	.loc 1 387 0
	orrne	r4, r4, #16
.LVL165:
.L136:
	.loc 1 390 0
	str	r4, [r5, #40]
	.loc 1 393 0
	mov	r0, r5
	.loc 1 391 0
	str	r4, [r5, #36]
	.loc 1 393 0
	bl	genphy_config_aneg
.LVL166:
	.loc 1 395 0
	mov	r0, #0
	.loc 1 396 0
	pop	{r4, r5, r6, pc}
	.cfi_endproc
.LFE66:
	.fnend
	.size	genphy_config, .-genphy_config
	.align	2
	.global	genphy_update_link
	.syntax unified
	.arm
	.type	genphy_update_link, %function
genphy_update_link:
	.fnstart
.LFB64:
	.loc 1 221 0
	.cfi_startproc
	@ args = 0, pretend = 0, frame = 0
	@ frame_needed = 0, uses_anonymous_args = 0
.LVL167:
	push	{r4, r5, r6, r7, r8, r9, r10, lr}
	.save {r4, r5, r6, r7, r8, r9, r10, lr}
	.cfi_def_cfa_offset 32
	.cfi_offset 4, -32
	.cfi_offset 5, -28
	.cfi_offset 6, -24
	.cfi_offset 7, -20
	.cfi_offset 8, -16
	.cfi_offset 9, -12
	.cfi_offset 10, -8
	.cfi_offset 14, -4
	.loc 1 221 0
	mov	r4, r0
	ldr	r0, [r0]
.LVL168:
.LBB243:
.LBB244:
	.loc 3 185 0
	mov	r3, #1
	mvn	r2, #0
	ldr	r1, [r4, #52]
	ldr	r5, [r0, #44]
	blx	r5
.LVL169:
.LBE244:
.LBE243:
	.loc 1 234 0
	ldr	r3, [r4, #24]
.LBB246:
.LBB245:
	.loc 3 185 0
	mov	r5, r0
.LVL170:
.LBE245:
.LBE246:
	.loc 1 234 0
	cmp	r3, #0
	beq	.L162
	.loc 1 234 0 is_stmt 0 discriminator 1
	tst	r0, #4
	bne	.L163
.L162:
	.loc 1 237 0 is_stmt 1
	and	r3, r5, #40
	cmp	r3, #8
	beq	.L176
	ldr	r0, [r4]
.LVL171:
.LBB247:
.LBB248:
	.loc 3 185 0
	mov	r3, #1
	mvn	r2, #0
	ldr	r1, [r4, #52]
	ldr	r5, [r0, #44]
	blx	r5
.LVL172:
.LBE248:
.LBE247:
	.loc 1 266 0
	ands	r0, r0, #4
.LVL173:
	.loc 1 267 0
	movne	r3, #1
	.loc 1 269 0
	streq	r0, [r4, #24]
	.loc 1 267 0
	strne	r3, [r4, #24]
.LVL174:
.L163:
	.loc 1 273 0
	mov	r0, #0
	pop	{r4, r5, r6, r7, r8, r9, r10, pc}
.L176:
.LVL175:
.LBB249:
	.loc 1 240 0
	movw	r0, #:lower16:.LC2
	ldr	r1, [r4, #12]
	movt	r0, #:upper16:.LC2
	bl	printf
.LVL176:
	.loc 1 241 0
	movw	r3, #:lower16:stdout
	movt	r3, #:upper16:stdout
	ldr	r8, [r3]
	mov	r0, r8
	bl	fflush
.LVL177:
	.loc 1 242 0
	ands	r3, r5, #32
	.loc 1 252 0
	movweq	r6, #19923
	.loc 1 242 0
	moveq	r2, r3
	.loc 1 252 0
	movteq	r6, 4194
	moveq	r7, #500
	.loc 1 242 0
	beq	.L166
	b	.L169
.LVL178:
.L167:
	.loc 1 257 0
	mov	r0, #1000
	bl	udelay
.LVL179:
	ldr	r0, [r4]
.LVL180:
.LBB250:
.LBB251:
	.loc 3 185 0
	mov	r3, #1
	mvn	r2, #0
	ldr	r1, [r4, #52]
	ldr	r9, [r0, #44]
	blx	r9
.LVL181:
.LBE251:
.LBE250:
	.loc 1 242 0
	ands	r9, r0, #32
	.loc 1 246 0
	movw	r3, #40001
	mov	r2, r5
	.loc 1 242 0
	bne	.L169
.LVL182:
	.loc 1 246 0
	cmp	r5, r3
	beq	.L177
.LVL183:
.L166:
	.loc 1 252 0
	smull	r0, r1, r2, r6
	asr	r3, r2, #31
	add	r5, r2, #1
.LVL184:
	rsb	r3, r3, r1, asr #5
	mls	r3, r7, r3, r2
	cmp	r3, #0
	bne	.L167
	.loc 1 253 0
	mov	r0, #46
	bl	putchar
.LVL185:
	.loc 1 254 0
	mov	r0, r8
	bl	fflush
.LVL186:
	b	.L167
.LVL187:
.L169:
	.loc 1 260 0
	movw	r0, #:lower16:.LC3
	movt	r0, #:upper16:.LC3
	bl	puts
.LVL188:
	.loc 1 261 0
	mov	r3, #1
.LBE249:
	.loc 1 273 0
	mov	r0, #0
.LBB252:
	.loc 1 261 0
	str	r3, [r4, #24]
.LBE252:
	.loc 1 273 0
	pop	{r4, r5, r6, r7, r8, r9, r10, pc}
.LVL189:
.L177:
.LBB253:
	.loc 1 247 0
	movw	r0, #:lower16:.LC4
.LVL190:
	movt	r0, #:upper16:.LC4
	bl	puts
.LVL191:
	.loc 1 248 0
	str	r9, [r4, #24]
	.loc 1 249 0
	b	.L163
.LBE253:
	.cfi_endproc
.LFE64:
	.fnend
	.size	genphy_update_link, .-genphy_update_link
	.align	2
	.global	genphy_startup
	.syntax unified
	.arm
	.type	genphy_startup, %function
genphy_startup:
	.fnstart
.LFB67:
	.loc 1 399 0
	.cfi_startproc
	@ args = 0, pretend = 0, frame = 0
	@ frame_needed = 0, uses_anonymous_args = 0
.LVL192:
	push	{r4, r5, r6, lr}
	.save {r4, r5, r6, lr}
	.cfi_def_cfa_offset 16
	.cfi_offset 4, -16
	.cfi_offset 5, -12
	.cfi_offset 6, -8
	.cfi_offset 14, -4
	.loc 1 399 0
	mov	r4, r0
	.loc 1 400 0
	bl	genphy_update_link
.LVL193:
.LBB270:
.LBB271:
.LBB272:
.LBB273:
	.loc 3 185 0
	mov	r3, #1
	mvn	r2, #0
	ldr	r0, [r4]
.LVL194:
	ldr	r1, [r4, #52]
	ldr	r5, [r0, #44]
	blx	r5
.LVL195:
.LBE273:
.LBE272:
	.loc 1 289 0
	ands	r3, r0, #8
	beq	.L179
.LVL196:
.LBB274:
	.loc 1 294 0
	ands	r0, r0, #1
	.loc 1 306 0
	moveq	r3, #10
	.loc 1 307 0
	streq	r0, [r4, #20]
	.loc 1 306 0
	streq	r3, [r4, #16]
	.loc 1 294 0
	bne	.L197
.LVL197:
.L181:
	ldr	r0, [r4]
.LVL198:
.LBB275:
.LBB276:
	.loc 3 185 0
	mov	r3, #4
	mvn	r2, #0
	ldr	r1, [r4, #52]
	ldr	r5, [r0, #44]
	blx	r5
.LVL199:
	mov	r5, r0
.LVL200:
	ldr	r0, [r4]
.LVL201:
.LBE276:
.LBE275:
.LBB277:
.LBB278:
	mov	r3, #5
	mvn	r2, #0
	ldr	r1, [r4, #52]
	ldr	r6, [r0, #44]
	blx	r6
.LVL202:
.LBE278:
.LBE277:
	.loc 1 321 0
	and	r0, r0, r5
.LVL203:
	.loc 1 323 0
	tst	r0, #384
	beq	.L184
	.loc 1 326 0
	tst	r0, #256
	.loc 1 324 0
	mov	r3, #100
	str	r3, [r4, #16]
	.loc 1 326 0
	bne	.L182
.LVL204:
.L193:
.LBE274:
.LBE271:
.LBE270:
	.loc 1 404 0
	mov	r0, #0
	pop	{r4, r5, r6, pc}
.L179:
	ldr	r0, [r4]
.LVL205:
.LBB295:
.LBB290:
.LBB283:
.LBB284:
.LBB285:
	.loc 3 185 0
	mvn	r2, #0
	ldr	r1, [r4, #52]
	ldr	r5, [r0, #44]
	blx	r5
.LVL206:
.LBE285:
.LBE284:
	.loc 1 334 0
	mov	r3, #10
	.loc 1 337 0
	ands	r2, r0, #256
	.loc 1 334 0
	str	r3, [r4, #16]
	.loc 1 338 0
	movne	r3, #1
	strne	r3, [r4, #20]
	.loc 1 335 0
	streq	r2, [r4, #20]
	.loc 1 340 0
	tst	r0, #64
	.loc 1 341 0
	movne	r3, #1000
	strne	r3, [r4, #16]
	.loc 1 340 0
	bne	.L193
	.loc 1 342 0
	tst	r0, #8192
.LBE283:
.LBE290:
.LBE295:
	.loc 1 404 0
	mov	r0, #0
.LVL207:
.LBB296:
.LBB291:
.LBB286:
	.loc 1 343 0
	movne	r3, #100
	strne	r3, [r4, #16]
.LVL208:
.LBE286:
.LBE291:
.LBE296:
	.loc 1 404 0
	pop	{r4, r5, r6, pc}
.LVL209:
.L197:
	ldr	r0, [r4]
.LVL210:
.LBB297:
.LBB292:
.LBB287:
.LBB279:
.LBB280:
	.loc 3 185 0
	mov	r3, #10
	mvn	r2, #0
	ldr	r1, [r4, #52]
	ldr	r5, [r0, #44]
	blx	r5
.LVL211:
	mov	r5, r0
.LVL212:
	ldr	r0, [r4]
.LVL213:
.LBE280:
.LBE279:
.LBB281:
.LBB282:
	mov	r3, #9
	mvn	r2, #0
	ldr	r1, [r4, #52]
	ldr	r6, [r0, #44]
	blx	r6
.LVL214:
.LBE282:
.LBE281:
	.loc 1 299 0
	and	r0, r5, r0, lsl #2
.LVL215:
	.loc 1 306 0
	mov	r2, #10
	.loc 1 307 0
	mov	r3, #0
	.loc 1 306 0
	str	r2, [r4, #16]
	.loc 1 310 0
	tst	r0, #3072
	.loc 1 307 0
	str	r3, [r4, #20]
	.loc 1 310 0
	beq	.L181
	.loc 1 313 0
	tst	r0, #2048
	.loc 1 311 0
	mov	r3, #1000
	str	r3, [r4, #16]
	.loc 1 313 0
	beq	.L193
.LVL216:
.L182:
	.loc 1 314 0
	mov	r3, #1
.LBE287:
.LBE292:
.LBE297:
	.loc 1 404 0
	mov	r0, #0
.LBB298:
.LBB293:
.LBB288:
	.loc 1 314 0
	str	r3, [r4, #20]
.LBE288:
.LBE293:
.LBE298:
	.loc 1 404 0
	pop	{r4, r5, r6, pc}
.LVL217:
.L184:
.LBB299:
.LBB294:
.LBB289:
	.loc 1 329 0
	tst	r0, #64
	bne	.L182
	b	.L193
.LBE289:
.LBE294:
.LBE299:
	.cfi_endproc
.LFE67:
	.fnend
	.size	genphy_startup, .-genphy_startup
	.align	2
	.global	phy_register
	.syntax unified
	.arm
	.type	phy_register, %function
phy_register:
	.fnstart
.LFB69:
	.loc 1 424 0
	.cfi_startproc
	@ args = 0, pretend = 0, frame = 0
	@ frame_needed = 0, uses_anonymous_args = 0
	@ link register save eliminated.
.LVL218:
.LBB300:
.LBB301:
	.file 4 "/home/mint/seL4/dhs-demo-feb-2018/libs/libethdrivers/src/plat/imx6/uboot/list.h"
	.loc 4 78 0
	movw	r3, #:lower16:.LANCHOR0
.LBE301:
.LBE300:
	.loc 1 424 0
	mov	r2, r0
.LBB309:
.LBB306:
	.loc 4 78 0
	movt	r3, #:upper16:.LANCHOR0
.LBE306:
.LBE309:
	.loc 1 425 0
	add	ip, r0, #36
.LVL219:
.LBB310:
.LBB307:
	.loc 4 78 0
	ldr	r1, [r3, #48]
.LVL220:
.LBB302:
.LBB303:
	.loc 4 50 0
	add	r0, r3, #44
.LVL221:
	str	r0, [r2, #36]
.LBE303:
.LBE302:
.LBE307:
.LBE310:
	.loc 1 430 0
	mov	r0, #0
.LBB311:
.LBB308:
.LBB305:
.LBB304:
	.loc 4 49 0
	str	ip, [r3, #48]
	.loc 4 51 0
	str	r1, [r2, #40]
	.loc 4 52 0
	str	ip, [r1]
.LVL222:
.LBE304:
.LBE305:
.LBE308:
.LBE311:
	.loc 1 430 0
	bx	lr
	.cfi_endproc
.LFE69:
	.fnend
	.size	phy_register, .-phy_register
	.align	2
	.global	phy_reset
	.syntax unified
	.arm
	.type	phy_reset, %function
phy_reset:
	.fnstart
.LFB79:
	.loc 1 610 0
	.cfi_startproc
	@ args = 0, pretend = 0, frame = 0
	@ frame_needed = 0, uses_anonymous_args = 0
.LVL223:
	push	{r4, r5, r6, lr}
	.save {r4, r5, r6, lr}
	.cfi_def_cfa_offset 16
	.cfi_offset 4, -16
	.cfi_offset 5, -12
	.cfi_offset 6, -8
	.cfi_offset 14, -4
	mov	r6, r0
	ldr	r0, [r0]
.LVL224:
	.pad #8
	sub	sp, sp, #8
	.cfi_def_cfa_offset 24
.LBB312:
.LBB313:
	.loc 3 185 0
	mov	r3, #0
	mvn	r2, #0
	ldr	r1, [r6, #52]
	ldr	r4, [r0, #44]
	blx	r4
.LVL225:
.LBE313:
.LBE312:
	.loc 1 626 0
	cmp	r0, #0
	blt	.L203
.LVL226:
	ldr	r2, [r6]
.LVL227:
.LBB314:
.LBB315:
	.loc 3 193 0
	orr	r0, r0, #32768
.LVL228:
	uxth	r0, r0
.LVL229:
	ldr	r1, [r6, #52]
	mov	r3, #0
	str	r0, [sp]
	mov	r0, r2
	ldr	r4, [r2, #48]
	mvn	r2, #0
.LVL230:
	blx	r4
.LVL231:
.LBE315:
.LBE314:
	.loc 1 633 0
	cmp	r0, #0
	movge	r5, #500
	bge	.L204
	b	.L212
.LVL232:
.L214:
	.loc 1 653 0
	bl	udelay
.LVL233:
	.loc 1 646 0
	ands	r0, r4, #32768
	beq	.L207
	.loc 1 646 0 is_stmt 0 discriminator 1
	subs	r5, r5, #1
.LVL234:
	beq	.L213
.LVL235:
.L204:
	ldr	r0, [r6]
.LVL236:
.LBB316:
.LBB317:
	.loc 3 185 0 is_stmt 1
	mov	r3, #0
	mvn	r2, #0
	ldr	r1, [r6, #52]
	ldr	r4, [r0, #44]
	blx	r4
.LVL237:
.LBE317:
.LBE316:
	.loc 1 649 0
	subs	r4, r0, #0
	.loc 1 653 0
	mov	r0, #1000
	.loc 1 649 0
	bge	.L214
.LVL238:
.L203:
	.loc 1 627 0 discriminator 1
	movw	r0, #:lower16:.LC5
	movt	r0, #:upper16:.LC5
	bl	puts
.LVL239:
	.loc 1 628 0 discriminator 1
	mvn	r0, #0
.L207:
	.loc 1 662 0
	add	sp, sp, #8
	.cfi_remember_state
	.cfi_def_cfa_offset 16
	@ sp needed
	pop	{r4, r5, r6, pc}
.LVL240:
.L213:
	.cfi_restore_state
	.loc 1 657 0
	movw	r0, #:lower16:.LC7
	movt	r0, #:upper16:.LC7
	bl	puts
.LVL241:
	.loc 1 658 0
	mvn	r0, #0
	.loc 1 662 0
	add	sp, sp, #8
	.cfi_remember_state
	.cfi_def_cfa_offset 16
	@ sp needed
	pop	{r4, r5, r6, pc}
.LVL242:
.L212:
	.cfi_restore_state
	.loc 1 634 0 discriminator 1
	movw	r0, #:lower16:.LC6
	movt	r0, #:upper16:.LC6
	bl	puts
.LVL243:
	.loc 1 635 0 discriminator 1
	mvn	r0, #0
	b	.L207
	.cfi_endproc
.LFE79:
	.fnend
	.size	phy_reset, .-phy_reset
	.align	2
	.global	miiphy_reset
	.syntax unified
	.arm
	.type	miiphy_reset, %function
miiphy_reset:
	.fnstart
.LFB80:
	.loc 1 665 0
	.cfi_startproc
	@ args = 0, pretend = 0, frame = 0
	@ frame_needed = 0, uses_anonymous_args = 0
.LVL244:
	push	{r4, lr}
	.save {r4, lr}
	.cfi_def_cfa_offset 8
	.cfi_offset 4, -8
	.cfi_offset 14, -4
	.loc 1 665 0
	mov	r4, r1
	.loc 1 666 0
	bl	miiphy_get_dev_by_name
.LVL245:
.LBB318:
.LBB319:
	.loc 1 606 0
	mov	r1, #1
	mov	r2, #0
	lsl	r1, r1, r4
	bl	get_phy_device_by_mask
.LVL246:
.LBE319:
.LBE318:
	.loc 1 677 0
	pop	{r4, lr}
	.cfi_restore 14
	.cfi_restore 4
	.cfi_def_cfa_offset 0
	.loc 1 676 0
	b	phy_reset
.LVL247:
	.cfi_endproc
.LFE80:
	.fnend
	.size	miiphy_reset, .-miiphy_reset
	.align	2
	.global	phy_connect_by_mask
	.syntax unified
	.arm
	.type	phy_connect_by_mask, %function
phy_connect_by_mask:
	.fnstart
.LFB81:
	.loc 1 681 0
	.cfi_startproc
	@ args = 0, pretend = 0, frame = 0
	@ frame_needed = 0, uses_anonymous_args = 0
.LVL248:
	push	{r4, r5, r6, r7, lr}
	.save {r4, r5, r6, r7, lr}
	.cfi_def_cfa_offset 20
	.cfi_offset 4, -20
	.cfi_offset 5, -16
	.cfi_offset 6, -12
	.cfi_offset 7, -8
	.cfi_offset 14, -4
	mov	r7, r1
	.loc 1 685 0
	ldr	r1, [r0, #52]
.LVL249:
	.loc 1 681 0
	.pad #12
	sub	sp, sp, #12
	.cfi_def_cfa_offset 32
	.loc 1 681 0
	mov	r5, r0
	mov	r6, r2
	mov	r4, r3
	.loc 1 685 0
	cmp	r1, #0
	beq	.L218
	.loc 1 686 0
	blx	r1
.LVL250:
.L218:
	.loc 1 689 0
	movw	r0, #15000
	bl	udelay
.LVL251:
	.loc 1 691 0
	mov	r2, r4
	mov	r1, r7
	mov	r0, r5
	bl	get_phy_device_by_mask
.LVL252:
	.loc 1 693 0
	subs	r4, r0, #0
.LVL253:
	beq	.L227
	.loc 1 700 0
	bl	phy_reset
.LVL254:
	.loc 1 702 0
	ldr	r3, [r4, #12]
	cmp	r3, #0
	beq	.L222
	.loc 1 703 0
	movw	r0, #:lower16:.LC9
	ldr	r2, [r4, #52]
	add	r1, r5, #8
	str	r6, [sp]
	movt	r0, #:upper16:.LC9
	bl	printf
.LVL255:
.L222:
	.loc 1 708 0
	ldr	r3, [r4, #4]
	movw	r0, #:lower16:.LC10
	.loc 1 706 0
	str	r6, [r4, #12]
	.loc 1 708 0
	mov	r1, r6
	movt	r0, #:upper16:.LC10
	ldr	r2, [r3]
	bl	printf
.LVL256:
.L220:
	.loc 1 711 0
	mov	r0, r4
	add	sp, sp, #12
	.cfi_remember_state
	.cfi_def_cfa_offset 20
	@ sp needed
	pop	{r4, r5, r6, r7, pc}
.LVL257:
.L227:
	.cfi_restore_state
	.loc 1 694 0
	movw	r0, #:lower16:.LC8
.LVL258:
	mov	r2, r7
	add	r1, r5, #8
	movt	r0, #:upper16:.LC8
	bl	printf
.LVL259:
	.loc 1 696 0
	b	.L220
	.cfi_endproc
.LFE81:
	.fnend
	.size	phy_connect_by_mask, .-phy_connect_by_mask
	.align	2
	.global	phy_connect
	.syntax unified
	.arm
	.type	phy_connect, %function
phy_connect:
	.fnstart
.LFB82:
	.loc 1 718 0
	.cfi_startproc
	@ args = 0, pretend = 0, frame = 0
	@ frame_needed = 0, uses_anonymous_args = 0
	@ link register save eliminated.
.LVL260:
	.loc 1 719 0
	mov	ip, #1
	lsl	r1, ip, r1
.LVL261:
	b	phy_connect_by_mask
.LVL262:
	.cfi_endproc
.LFE82:
	.fnend
	.size	phy_connect, .-phy_connect
	.align	2
	.global	phy_shutdown
	.syntax unified
	.arm
	.type	phy_shutdown, %function
phy_shutdown:
	.fnstart
.LFB83:
	.loc 1 723 0
	.cfi_startproc
	@ args = 0, pretend = 0, frame = 0
	@ frame_needed = 0, uses_anonymous_args = 0
.LVL263:
	.loc 1 724 0
	ldr	r3, [r0, #4]
	ldr	r3, [r3, #32]
	cmp	r3, #0
	beq	.L235
	.loc 1 723 0
	push	{r4, lr}
	.save {r4, lr}
	.cfi_def_cfa_offset 8
	.cfi_offset 4, -8
	.cfi_offset 14, -4
	.loc 1 725 0
	blx	r3
.LVL264:
	.loc 1 728 0
	mov	r0, #0
	pop	{r4, pc}
.LVL265:
.L235:
	.cfi_def_cfa_offset 0
	.cfi_restore 4
	.cfi_restore 14
	mov	r0, #0
.LVL266:
	bx	lr
	.cfi_endproc
.LFE83:
	.fnend
	.size	phy_shutdown, .-phy_shutdown
	.global	phy_drivers
	.data
	.align	2
	.set	.LANCHOR0,. + 0
	.type	genphy_driver, %object
	.size	genphy_driver, 44
genphy_driver:
	.word	.LC11
	.word	-1
	.word	-1
	.space	4
	.word	0
	.space	4
	.word	genphy_config
	.word	genphy_startup
	.word	genphy_shutdown
	.space	8
	.type	phy_drivers, %object
	.size	phy_drivers, 8
phy_drivers:
	.word	phy_drivers
	.word	phy_drivers
	.section	.rodata.str1.4,"aMS",%progbits,1
	.align	2
.LC0:
	.ascii	"Failed to allocate PHY device for %s:%d\012\000"
	.space	3
.LC1:
	.ascii	"Phy not found\000"
	.space	2
.LC2:
	.ascii	"%s Waiting for PHY auto negotiation to complete\000"
.LC3:
	.ascii	" done\000"
	.space	2
.LC4:
	.ascii	" TIMEOUT !\000"
	.space	1
.LC5:
	.ascii	"PHY status read failed\000"
	.space	1
.LC6:
	.ascii	"PHY reset failed\000"
	.space	3
.LC7:
	.ascii	"PHY reset timed out\012\000"
	.space	3
.LC8:
	.ascii	"Could not get PHY for %s: phy mask %x\012\000"
	.space	1
.LC9:
	.ascii	"%s:%d is connected to %s.  Reconnecting to %s\012\000"
	.space	1
.LC10:
	.ascii	"%s connected to %s\012\000"
.LC11:
	.ascii	"Generic PHY\000"
	.text
.Letext0:
	.file 5 "/home/mint/seL4/dhs-demo-feb-2018/stage/arm/imx6/include/bits/alltypes.h"
	.file 6 "/home/mint/seL4/dhs-demo-feb-2018/libs/libethdrivers/src/plat/imx6/uboot/fec_mxc.h"
	.file 7 "/home/mint/seL4/dhs-demo-feb-2018/stage/arm/imx6/include/stdio.h"
	.file 8 "<built-in>"
	.file 9 "/home/mint/seL4/dhs-demo-feb-2018/libs/libethdrivers/src/plat/imx6/uboot/../unimplemented.h"
	.file 10 "/home/mint/seL4/dhs-demo-feb-2018/libs/libethdrivers/src/plat/imx6/uboot/miiphy.h"
	.section	.note.GNU-stack,"",%progbits
