	.cpu cortex-a9
	.fpu softvfp
	.eabi_attribute 20, 1
	.eabi_attribute 21, 1
	.eabi_attribute 23, 3
	.eabi_attribute 24, 1
	.eabi_attribute 25, 1
	.eabi_attribute 26, 2
	.eabi_attribute 30, 2
	.eabi_attribute 34, 1
	.eabi_attribute 18, 4
	.file	"i2c.c"
	.text
.Ltext0:
	.cfi_sections	.debug_frame
	.align	2
	.global	i2c_kvslave_init
	.syntax unified
	.arm
	.type	i2c_kvslave_init, %function
i2c_kvslave_init:
	.fnstart
.LFB38:
	.file 1 "/home/mint/seL4/dhs-demo-feb-2018/libs/libplatsupport/src/arch/arm/i2c.c"
	.loc 1 134 0
	.cfi_startproc
	@ args = 4, pretend = 0, frame = 0
	@ frame_needed = 0, uses_anonymous_args = 0
.LVL0:
	push	{r4, r5, r6, r7, r8, lr}
	.save {r4, r5, r6, r7, r8, lr}
	.cfi_def_cfa_offset 24
	.cfi_offset 4, -24
	.cfi_offset 5, -20
	.cfi_offset 6, -16
	.cfi_offset 7, -12
	.cfi_offset 8, -8
	.cfi_offset 14, -4
	.loc 1 134 0
	mov	r8, r0
	ldr	r4, [sp, #24]
	mov	r7, r1
	mov	r5, r2
	mov	r6, r3
	.loc 1 135 0
	cmp	r4, #0
	beq	.L5
.LVL1:
.L2:
	.loc 1 136 0
	str	r8, [r4]
	.loc 1 141 0
	mov	r0, #0
	.loc 1 137 0
	str	r7, [r4, #4]
	.loc 1 138 0
	str	r6, [r4, #8]
	.loc 1 139 0
	str	r5, [r4, #12]
	.loc 1 141 0
	pop	{r4, r5, r6, r7, r8, pc}
.LVL2:
.L5:
	.loc 1 135 0 discriminator 1
	movw	r3, #:lower16:.LANCHOR0
.LVL3:
	movw	r1, #:lower16:.LC0
.LVL4:
	movw	r0, #:lower16:.LC1
.LVL5:
	movt	r3, #:upper16:.LANCHOR0
	movt	r1, #:upper16:.LC0
	movt	r0, #:upper16:.LC1
	mov	r2, #135
.LVL6:
	bl	__assert_fail
.LVL7:
	b	.L2
	.cfi_endproc
.LFE38:
	.fnend
	.size	i2c_kvslave_init, .-i2c_kvslave_init
	.global	__aeabi_idiv
	.align	2
	.global	i2c_kvslave_read
	.syntax unified
	.arm
	.type	i2c_kvslave_read, %function
i2c_kvslave_read:
	.fnstart
.LFB39:
	.loc 1 147 0
	.cfi_startproc
	@ args = 8, pretend = 0, frame = 152
	@ frame_needed = 0, uses_anonymous_args = 0
.LVL8:
	push	{r4, r5, r6, r7, r8, r9, r10, fp, lr}
	.save {r4, r5, r6, r7, r8, r9, r10, fp, lr}
	.cfi_def_cfa_offset 36
	.cfi_offset 4, -36
	.cfi_offset 5, -32
	.cfi_offset 6, -28
	.cfi_offset 7, -24
	.cfi_offset 8, -20
	.cfi_offset 9, -16
	.cfi_offset 10, -12
	.cfi_offset 11, -8
	.cfi_offset 14, -4
	.pad #164
	sub	sp, sp, #164
	.cfi_def_cfa_offset 200
	.loc 1 148 0
	ldr	r5, [r0, #8]
	.loc 1 147 0
	strd	r2, [sp, #8]
	.loc 1 148 0
	eor	r3, r5, r5, asr #31
	sub	r3, r3, r5, asr #31
	str	r3, [sp, #20]
.LVL9:
	.loc 1 153 0
	ldr	r3, [sp, #204]
.LVL10:
	cmp	r3, #0
	ble	.L28
	ldr	r7, [sp, #204]
.LBB38:
.LBB39:
	.loc 1 72 0
	movw	r3, #:lower16:.LC0
	movw	r2, #:lower16:.LC2
.LVL11:
	mov	r6, r0
	movt	r3, #:upper16:.LC0
	movt	r2, #:upper16:.LC2
	str	r3, [sp, #24]
	str	r2, [sp, #28]
.LVL12:
.L27:
	.loc 1 70 0
	ldr	r10, [r6, #12]
	.loc 1 71 0
	cmp	r5, #0
	rsblt	r5, r5, #0
	.loc 1 70 0
	eor	r4, r10, r10, asr #31
	sub	r4, r4, r10, asr #31
.LVL13:
	.loc 1 72 0
	cmp	r5, #127
	cmple	r4, #127
	movle	r8, r4
	bgt	.L39
.L8:
	.loc 1 74 0
	mul	r3, r7, r5
	cmp	r3, #128
	movle	r9, r7
	ble	.L9
	.loc 1 75 0
	mov	r1, r5
	mov	r0, #128
	bl	__aeabi_idiv
.LVL14:
	mov	r9, r0
.LVL15:
.L9:
.LBB40:
.LBB41:
	.loc 1 56 0
	cmp	r8, #0
	beq	.L15
	ldrd	r2, [sp, #8]
	sub	lr, r8, #1
	mov	r1, r3
	mov	r0, r2
	mov	r3, #0
.LVL16:
.L14:
.LBB42:
	.loc 1 57 0
	cmp	r10, #0
	mov	r2, r3
	suble	r2, lr, r3
.LVL17:
.LBE42:
	.loc 1 56 0
	add	r3, r3, #1
.LVL18:
	lsr	ip, r0, #8
.LBB43:
	.loc 1 58 0
	add	fp, sp, #160
.LBE43:
	.loc 1 56 0
	cmp	r3, r8
.LBB44:
	.loc 1 58 0
	add	r2, fp, r2
.LVL19:
	strb	r0, [r2, #-128]
.LBE44:
	.loc 1 56 0
	orr	r0, ip, r1, lsl #24
.LVL20:
	lsr	r1, r1, #8
.LVL21:
	bne	.L14
.LVL22:
.L15:
.LBE41:
.LBE40:
.LBB45:
.LBB46:
	.loc 1 196 0
	ldm	r6, {r8, fp}
.LVL23:
.LBB47:
.LBB48:
	.file 2 "/home/mint/seL4/dhs-demo-feb-2018/stage/arm/imx6/include/platsupport/i2c.h"
	.loc 2 196 0
	cmp	r8, #0
	beq	.L40
.L12:
	.loc 2 197 0
	ldr	r10, [r8, #4]
	cmp	r10, #0
	beq	.L41
.L16:
	.loc 2 198 0
	mov	r3, #0
	mov	r1, fp
	str	r3, [sp, #4]
	mov	r0, r8
	str	r3, [sp]
	add	r2, sp, #32
.LVL24:
	mov	r3, r4
	blx	r10
.LVL25:
.LBE48:
.LBE47:
.LBE46:
.LBE45:
	.loc 1 81 0
	cmp	r4, r0
	bne	.L20
.LVL26:
.LBB55:
.LBB56:
	.loc 1 190 0
	ldr	r8, [r6]
	mul	r9, r9, r5
.LVL27:
	ldr	fp, [r6, #4]
.LVL28:
.LBB57:
.LBB58:
	.loc 2 174 0
	cmp	r8, #0
	beq	.L42
.L18:
	.loc 2 175 0
	ldr	r10, [r8]
	cmp	r10, #0
	beq	.L43
.L19:
	.loc 2 176 0
	mov	r4, #0
.LVL29:
	mov	r3, r9
	mov	r1, fp
	mov	r0, r8
	str	r4, [sp, #4]
	add	r2, sp, #32
.LVL30:
	str	r4, [sp]
	blx	r10
.LVL31:
.LBE58:
.LBE57:
.LBE56:
.LBE55:
	.loc 1 88 0
	cmp	r0, r4
	blt	.L20
	.loc 1 96 0
	mov	r1, r5
	bl	__aeabi_idiv
.LVL32:
	.loc 1 97 0
	ldr	r8, [r6, #8]
.LVL33:
.LBB65:
.LBB66:
	.loc 1 40 0
	cmp	r0, #0
	.loc 1 38 0
	eor	lr, r8, r8, asr #31
	sub	lr, lr, r8, asr #31
.LVL34:
	.loc 1 40 0
	beq	.L20
	ldr	r5, [sp, #200]
.LVL35:
	add	r9, sp, #31
	sub	r10, lr, #1
.LVL36:
.L21:
	.loc 1 41 0
	cmp	lr, #0
	movne	r1, r9
	movne	r3, #0
	beq	.L25
.LVL37:
.L23:
.LBB67:
	.loc 1 42 0
	cmp	r8, #0
	mov	r2, r3
	.loc 1 43 0
	ldrb	ip, [r1, #1]!	@ zero_extendqisi2
	suble	r2, r10, r3
.LVL38:
.LBE67:
	.loc 1 41 0
	add	r3, r3, #1
.LVL39:
	cmp	lr, r3
.LBB68:
	.loc 1 43 0
	strb	ip, [r5, r2]
.LBE68:
	.loc 1 41 0
	bne	.L23
.LVL40:
.L25:
	.loc 1 40 0
	add	r4, r4, #1
.LVL41:
	.loc 1 46 0
	add	r5, r5, lr
.LVL42:
	.loc 1 40 0
	cmp	r0, r4
	add	r9, r9, lr
	bne	.L21
.LVL43:
.LBE66:
.LBE65:
.LBE39:
.LBE38:
	.loc 1 158 0
	ldr	r3, [sp, #20]
	.loc 1 160 0
	sub	r7, r7, r0
.LVL44:
	.loc 1 158 0
	ldr	r2, [sp, #200]
	mul	r3, r0, r3
	.loc 1 159 0
	ldrd	r0, [sp, #8]
.LVL45:
	adds	r0, r0, r3
	adc	r1, r1, r3, asr #31
	.loc 1 153 0
	cmp	r7, #0
	.loc 1 158 0
	add	r3, r2, r3
	.loc 1 159 0
	strd	r0, [sp, #8]
.LVL46:
	.loc 1 158 0
	str	r3, [sp, #200]
.LVL47:
	.loc 1 153 0
	ldrgt	r5, [r6, #8]
.LVL48:
	bgt	.L27
.LVL49:
.L20:
	ldr	r3, [sp, #204]
	sub	r0, r3, r7
	.loc 1 163 0
	add	sp, sp, #164
	.cfi_remember_state
	.cfi_def_cfa_offset 36
	@ sp needed
	pop	{r4, r5, r6, r7, r8, r9, r10, fp, pc}
.LVL50:
.L39:
	.cfi_restore_state
.LBB74:
.LBB73:
	.loc 1 72 0
	ldr	r3, .L44
	mov	r2, #72
	ldr	r1, [sp, #24]
	ldr	r0, [sp, #28]
	bl	__assert_fail
.LVL51:
	ldr	r10, [r6, #12]
	eor	r8, r10, r10, asr #31
	sub	r8, r8, r10, asr #31
	b	.L8
.LVL52:
.L41:
.LBB69:
.LBB53:
.LBB51:
.LBB49:
	.loc 2 197 0
	movw	r1, #:lower16:.LC3
	movw	r0, #:lower16:.LC5
	movt	r1, #:upper16:.LC3
	movt	r0, #:upper16:.LC5
	ldr	r3, .L44+4
	mov	r2, #197
	bl	__assert_fail
.LVL53:
	ldr	r10, [r8, #4]
	b	.L16
.LVL54:
.L43:
.LBE49:
.LBE51:
.LBE53:
.LBE69:
.LBB70:
.LBB63:
.LBB61:
.LBB59:
	.loc 2 175 0
	movw	r1, #:lower16:.LC3
	movw	r0, #:lower16:.LC6
	movt	r1, #:upper16:.LC3
	movt	r0, #:upper16:.LC6
	ldr	r3, .L44+8
	mov	r2, #175
	bl	__assert_fail
.LVL55:
	ldr	r10, [r8]
	b	.L19
.LVL56:
.L40:
.LBE59:
.LBE61:
.LBE63:
.LBE70:
.LBB71:
.LBB54:
.LBB52:
.LBB50:
	.loc 2 196 0
	movw	r1, #:lower16:.LC3
	movw	r0, #:lower16:.LC4
	movt	r1, #:upper16:.LC3
	movt	r0, #:upper16:.LC4
	ldr	r3, .L44+4
	mov	r2, #196
	bl	__assert_fail
.LVL57:
	b	.L12
.LVL58:
.L42:
.LBE50:
.LBE52:
.LBE54:
.LBE71:
.LBB72:
.LBB64:
.LBB62:
.LBB60:
	.loc 2 174 0
	movw	r1, #:lower16:.LC3
	movw	r0, #:lower16:.LC4
	movt	r1, #:upper16:.LC3
	movt	r0, #:upper16:.LC4
	ldr	r3, .L44+8
	mov	r2, #174
	bl	__assert_fail
.LVL59:
	b	.L18
.LVL60:
.L28:
.LBE60:
.LBE62:
.LBE64:
.LBE72:
.LBE73:
.LBE74:
	.loc 1 153 0
	mov	r0, #0
.LVL61:
	.loc 1 163 0
	add	sp, sp, #164
	.cfi_def_cfa_offset 36
	@ sp needed
	pop	{r4, r5, r6, r7, r8, r9, r10, fp, pc}
.LVL62:
.L45:
	.align	2
.L44:
	.word	.LANCHOR0+20
	.word	.LANCHOR0+32
	.word	.LANCHOR0+44
	.cfi_endproc
.LFE39:
	.fnend
	.size	i2c_kvslave_read, .-i2c_kvslave_read
	.align	2
	.global	i2c_kvslave_write
	.syntax unified
	.arm
	.type	i2c_kvslave_write, %function
i2c_kvslave_write:
	.fnstart
.LFB40:
	.loc 1 169 0
	.cfi_startproc
	@ args = 8, pretend = 0, frame = 160
	@ frame_needed = 0, uses_anonymous_args = 0
.LVL63:
	push	{r4, r5, r6, r7, r8, r9, r10, fp, lr}
	.save {r4, r5, r6, r7, r8, r9, r10, fp, lr}
	.cfi_def_cfa_offset 36
	.cfi_offset 4, -36
	.cfi_offset 5, -32
	.cfi_offset 6, -28
	.cfi_offset 7, -24
	.cfi_offset 8, -20
	.cfi_offset 9, -16
	.cfi_offset 10, -12
	.cfi_offset 11, -8
	.cfi_offset 14, -4
	.pad #172
	sub	sp, sp, #172
	.cfi_def_cfa_offset 208
	.loc 1 170 0
	ldr	r4, [r0, #8]
	.loc 1 169 0
	strd	r2, [sp, #8]
	str	r0, [sp, #16]
	.loc 1 170 0
	eor	r3, r4, r4, asr #31
	sub	r3, r3, r4, asr #31
	str	r3, [sp, #28]
.LVL64:
	.loc 1 175 0
	ldr	r3, [sp, #212]
.LVL65:
	cmp	r3, #0
	ble	.L67
	ldr	r7, [sp, #212]
.LBB87:
.LBB88:
	.loc 1 110 0
	movw	r3, #:lower16:.LC0
	movw	r2, #:lower16:.LC2
.LVL66:
	movt	r3, #:upper16:.LC0
	movt	r2, #:upper16:.LC2
	str	r3, [sp, #32]
	str	r2, [sp, #36]
.LVL67:
.L65:
	.loc 1 108 0
	ldr	r3, [sp, #16]
	.loc 1 109 0
	eor	r8, r4, r4, asr #31
	sub	r8, r8, r4, asr #31
	.loc 1 108 0
	ldr	r10, [r3, #12]
	eor	r6, r10, r10, asr #31
	sub	r6, r6, r10, asr #31
.LVL68:
	.loc 1 110 0
	cmp	r8, #127
	cmple	r6, #127
	movle	r5, r8
	movle	r9, r6
	bgt	.L80
.L48:
	.loc 1 112 0
	mla	r3, r7, r8, r6
	cmp	r3, #128
	str	r3, [sp, #20]
	ble	.L49
	.loc 1 113 0
	mov	r1, r8
	rsb	r0, r6, #128
	bl	__aeabi_idiv
.LVL69:
	mla	r3, r0, r8, r6
.LBB89:
.LBB90:
	.loc 1 56 0
	cmp	r9, #0
	str	r3, [sp, #20]
.LVL70:
	beq	.L55
.LVL71:
.L50:
	ldrd	r2, [sp, #8]
	sub	fp, r9, #1
	str	r0, [sp, #24]
	mov	r1, r3
	mov	ip, r2
	mov	r3, #0
.LVL72:
.L54:
.LBB91:
	.loc 1 57 0
	cmp	r10, #0
	mov	r2, r3
	suble	r2, fp, r3
.LVL73:
.LBE91:
	.loc 1 56 0
	add	r3, r3, #1
.LVL74:
	lsr	lr, ip, #8
.LBB92:
	.loc 1 58 0
	add	r0, sp, #168
.LBE92:
	.loc 1 56 0
	cmp	r3, r9
.LBB93:
	.loc 1 58 0
	add	r2, r0, r2
.LVL75:
	strb	ip, [r2, #-128]
.LBE93:
	.loc 1 56 0
	orr	ip, lr, r1, lsl #24
.LVL76:
	lsr	r1, r1, #8
.LVL77:
	bne	.L54
	ldr	r0, [sp, #24]
.LVL78:
.L55:
.LBE90:
.LBE89:
.LBB95:
.LBB96:
	.loc 1 40 0
	cmp	r0, #0
.LBE96:
.LBE95:
	.loc 1 119 0
	add	r3, sp, #40
	add	lr, r3, r6
.LVL79:
.LBB101:
.LBB100:
	.loc 1 40 0
	ble	.L52
.L51:
	ldr	r3, [sp, #208]
.LBB97:
	.loc 1 42 0
	mov	r9, #0
	sub	fp, r5, #1
	sub	r10, r3, #1
.LVL80:
.L56:
.LBE97:
	.loc 1 41 0
	cmp	r5, #0
	movne	r1, r10
	movne	r3, #0
	beq	.L59
.LVL81:
.L58:
.LBB98:
	.loc 1 42 0
	cmp	r4, #0
	mov	r2, r3
	.loc 1 43 0
	ldrb	ip, [r1, #1]!	@ zero_extendqisi2
	suble	r2, fp, r3
.LVL82:
.LBE98:
	.loc 1 41 0
	add	r3, r3, #1
.LVL83:
	cmp	r3, r5
.LBB99:
	.loc 1 43 0
	strb	ip, [lr, r2]
.LBE99:
	.loc 1 41 0
	bne	.L58
.LVL84:
.L59:
	.loc 1 40 0
	add	r9, r9, #1
.LVL85:
	.loc 1 46 0
	add	lr, lr, r5
.LVL86:
	.loc 1 40 0
	cmp	r9, r0
	add	r10, r10, r5
	bne	.L56
.LVL87:
.L52:
.LBE100:
.LBE101:
.LBB102:
.LBB103:
	.loc 1 196 0
	ldr	r3, [sp, #16]
	ldm	r3, {r4, r9}
.LVL88:
.LBB104:
.LBB105:
	.loc 2 196 0
	cmp	r4, #0
	beq	.L81
.L60:
	.loc 2 197 0
	ldr	r5, [r4, #4]
	cmp	r5, #0
	beq	.L82
.L61:
	.loc 2 198 0
	mov	ip, #0
	ldr	r3, [sp, #20]
	mov	r1, r9
	mov	r0, r4
	str	ip, [sp, #4]
	add	r2, sp, #40
.LVL89:
	str	ip, [sp]
	blx	r5
.LVL90:
.LBE105:
.LBE104:
.LBE103:
.LBE102:
	.loc 1 122 0
	cmp	r0, #0
	ble	.L62
	.loc 1 126 0
	mov	r1, r8
	sub	r0, r0, r6
	bl	__aeabi_idiv
.LVL91:
.LBE88:
.LBE87:
	.loc 1 177 0
	cmp	r0, #0
	ble	.L62
	.loc 1 182 0
	ldrd	r2, [sp, #8]
	.loc 1 181 0
	sub	r7, r7, r0
.LVL92:
	.loc 1 182 0
	adds	r2, r2, r0
	adc	r3, r3, r0, asr #31
	.loc 1 175 0
	cmp	r7, #0
	.loc 1 182 0
	strd	r2, [sp, #8]
.LVL93:
	.loc 1 180 0
	ldr	r2, [sp, #208]
	ldr	r3, [sp, #28]
	mla	r3, r0, r3, r2
	str	r3, [sp, #208]
.LVL94:
	.loc 1 175 0
	ble	.L62
	ldr	r3, [sp, #16]
.LVL95:
	ldr	r4, [r3, #8]
	b	.L65
.LVL96:
.L49:
.LBB113:
.LBB111:
.LBB109:
.LBB94:
	.loc 1 56 0
	cmp	r9, #0
	movne	r0, r7
	bne	.L50
.LVL97:
.LBE94:
.LBE109:
	.loc 1 119 0
	add	r3, sp, #40
	mov	r0, r7
	add	lr, r3, r6
.LVL98:
	b	.L51
.LVL99:
.L80:
	.loc 1 110 0
	ldr	r3, .L83
.LVL100:
	mov	r2, #110
	ldr	r1, [sp, #32]
	ldr	r0, [sp, #36]
	bl	__assert_fail
.LVL101:
	ldr	r3, [sp, #16]
	ldr	r10, [r3, #12]
	ldr	r4, [r3, #8]
	eor	r9, r10, r10, asr #31
	eor	r5, r4, r4, asr #31
	sub	r9, r9, r10, asr #31
	sub	r5, r5, r4, asr #31
	b	.L48
.LVL102:
.L62:
	ldr	r3, [sp, #212]
	sub	r0, r3, r7
.LBE111:
.LBE113:
	.loc 1 185 0
	add	sp, sp, #172
	.cfi_remember_state
	.cfi_def_cfa_offset 36
	@ sp needed
	pop	{r4, r5, r6, r7, r8, r9, r10, fp, pc}
.LVL103:
.L82:
	.cfi_restore_state
.LBB114:
.LBB112:
.LBB110:
.LBB108:
.LBB107:
.LBB106:
	.loc 2 197 0
	movw	r1, #:lower16:.LC3
	movw	r0, #:lower16:.LC5
	movt	r1, #:upper16:.LC3
	movt	r0, #:upper16:.LC5
	ldr	r3, .L83+4
	mov	r2, #197
	bl	__assert_fail
.LVL104:
	ldr	r5, [r4, #4]
	b	.L61
.LVL105:
.L81:
	.loc 2 196 0
	movw	r1, #:lower16:.LC3
	movw	r0, #:lower16:.LC4
	movt	r1, #:upper16:.LC3
	movt	r0, #:upper16:.LC4
	ldr	r3, .L83+4
.LVL106:
	mov	r2, #196
	bl	__assert_fail
.LVL107:
	b	.L60
.LVL108:
.L67:
.LBE106:
.LBE107:
.LBE108:
.LBE110:
.LBE112:
.LBE114:
	.loc 1 175 0
	mov	r0, #0
.LVL109:
	.loc 1 185 0
	add	sp, sp, #172
	.cfi_def_cfa_offset 36
	@ sp needed
	pop	{r4, r5, r6, r7, r8, r9, r10, fp, pc}
.LVL110:
.L84:
	.align	2
.L83:
	.word	.LANCHOR0+56
	.word	.LANCHOR0+32
	.cfi_endproc
.LFE40:
	.fnend
	.size	i2c_kvslave_write, .-i2c_kvslave_write
	.align	2
	.global	i2c_slave_read
	.syntax unified
	.arm
	.type	i2c_slave_read, %function
i2c_slave_read:
	.fnstart
.LFB41:
	.loc 1 189 0
	.cfi_startproc
	@ args = 4, pretend = 0, frame = 0
	@ frame_needed = 0, uses_anonymous_args = 0
.LVL111:
	push	{r4, r5, r6, r7, r8, r9, r10, lr}
	.save {r4, r5, r6, r7, r8, r9, r10, lr}
	.cfi_def_cfa_offset 32
	.cfi_offset 4, -32
	.cfi_offset 5, -28
	.cfi_offset 6, -24
	.cfi_offset 7, -20
	.cfi_offset 8, -16
	.cfi_offset 9, -12
	.cfi_offset 10, -8
	.cfi_offset 14, -4
	.pad #8
	sub	sp, sp, #8
	.cfi_def_cfa_offset 40
	.loc 1 190 0
	ldr	r4, [r0]
	.loc 1 189 0
	mov	r7, r1
	mov	r9, r2
	mov	r8, r3
	.loc 1 190 0
	ldr	r6, [r0, #4]
.LVL112:
.LBB117:
.LBB118:
	.loc 2 174 0
	cmp	r4, #0
.LBE118:
.LBE117:
	.loc 1 189 0
	ldr	r10, [sp, #40]
.LVL113:
.LBB121:
.LBB119:
	.loc 2 174 0
	beq	.L89
.LVL114:
.L86:
	.loc 2 175 0
	ldr	r5, [r4]
	cmp	r5, #0
	beq	.L90
.L87:
	.loc 2 176 0
	str	r10, [sp, #4]
	mov	r3, r9
	str	r8, [sp]
	mov	r2, r7
	mov	r1, r6
	mov	r0, r4
	blx	r5
.LVL115:
.LBE119:
.LBE121:
	.loc 1 191 0
	add	sp, sp, #8
	.cfi_remember_state
	.cfi_def_cfa_offset 32
	@ sp needed
	pop	{r4, r5, r6, r7, r8, r9, r10, pc}
.LVL116:
.L90:
	.cfi_restore_state
.LBB122:
.LBB120:
	.loc 2 175 0
	movw	r1, #:lower16:.LC3
	movw	r0, #:lower16:.LC6
	movt	r1, #:upper16:.LC3
	movt	r0, #:upper16:.LC6
	ldr	r3, .L91
	mov	r2, #175
	bl	__assert_fail
.LVL117:
	ldr	r5, [r4]
	b	.L87
.LVL118:
.L89:
	.loc 2 174 0
	movw	r1, #:lower16:.LC3
.LVL119:
	movw	r0, #:lower16:.LC4
.LVL120:
	movt	r1, #:upper16:.LC3
	movt	r0, #:upper16:.LC4
	ldr	r3, .L91
.LVL121:
	mov	r2, #174
.LVL122:
	bl	__assert_fail
.LVL123:
	b	.L86
.L92:
	.align	2
.L91:
	.word	.LANCHOR0+44
.LBE120:
.LBE122:
	.cfi_endproc
.LFE41:
	.fnend
	.size	i2c_slave_read, .-i2c_slave_read
	.align	2
	.global	i2c_slave_write
	.syntax unified
	.arm
	.type	i2c_slave_write, %function
i2c_slave_write:
	.fnstart
.LFB42:
	.loc 1 195 0
	.cfi_startproc
	@ args = 4, pretend = 0, frame = 0
	@ frame_needed = 0, uses_anonymous_args = 0
.LVL124:
	push	{r4, r5, r6, r7, r8, r9, r10, lr}
	.save {r4, r5, r6, r7, r8, r9, r10, lr}
	.cfi_def_cfa_offset 32
	.cfi_offset 4, -32
	.cfi_offset 5, -28
	.cfi_offset 6, -24
	.cfi_offset 7, -20
	.cfi_offset 8, -16
	.cfi_offset 9, -12
	.cfi_offset 10, -8
	.cfi_offset 14, -4
	.pad #8
	sub	sp, sp, #8
	.cfi_def_cfa_offset 40
	.loc 1 196 0
	ldr	r4, [r0]
	.loc 1 195 0
	mov	r7, r1
	mov	r9, r2
	mov	r8, r3
	.loc 1 196 0
	ldr	r6, [r0, #4]
.LVL125:
.LBB125:
.LBB126:
	.loc 2 196 0
	cmp	r4, #0
.LBE126:
.LBE125:
	.loc 1 195 0
	ldr	r10, [sp, #40]
.LVL126:
.LBB129:
.LBB127:
	.loc 2 196 0
	beq	.L97
.LVL127:
.L94:
	.loc 2 197 0
	ldr	r5, [r4, #4]
	cmp	r5, #0
	beq	.L98
.L95:
	.loc 2 198 0
	str	r10, [sp, #4]
	mov	r3, r9
	str	r8, [sp]
	mov	r2, r7
	mov	r1, r6
	mov	r0, r4
	blx	r5
.LVL128:
.LBE127:
.LBE129:
	.loc 1 197 0
	add	sp, sp, #8
	.cfi_remember_state
	.cfi_def_cfa_offset 32
	@ sp needed
	pop	{r4, r5, r6, r7, r8, r9, r10, pc}
.LVL129:
.L98:
	.cfi_restore_state
.LBB130:
.LBB128:
	.loc 2 197 0
	movw	r1, #:lower16:.LC3
	movw	r0, #:lower16:.LC5
	movt	r1, #:upper16:.LC3
	movt	r0, #:upper16:.LC5
	ldr	r3, .L99
	mov	r2, #197
	bl	__assert_fail
.LVL130:
	ldr	r5, [r4, #4]
	b	.L95
.LVL131:
.L97:
	.loc 2 196 0
	movw	r1, #:lower16:.LC3
.LVL132:
	movw	r0, #:lower16:.LC4
.LVL133:
	movt	r1, #:upper16:.LC3
	movt	r0, #:upper16:.LC4
	ldr	r3, .L99
.LVL134:
	mov	r2, #196
.LVL135:
	bl	__assert_fail
.LVL136:
	b	.L94
.L100:
	.align	2
.L99:
	.word	.LANCHOR0+32
.LBE128:
.LBE130:
	.cfi_endproc
.LFE42:
	.fnend
	.size	i2c_slave_write, .-i2c_slave_write
	.align	2
	.global	i2c_slave_init
	.syntax unified
	.arm
	.type	i2c_slave_init, %function
i2c_slave_init:
	.fnstart
.LFB43:
	.loc 1 201 0
	.cfi_startproc
	@ args = 0, pretend = 0, frame = 0
	@ frame_needed = 0, uses_anonymous_args = 0
.LVL137:
	push	{r4, r5, r6, lr}
	.save {r4, r5, r6, lr}
	.cfi_def_cfa_offset 16
	.cfi_offset 4, -16
	.cfi_offset 5, -12
	.cfi_offset 6, -8
	.cfi_offset 14, -4
.LBB131:
.LBB132:
	.loc 1 135 0
	subs	r4, r2, #0
.LBE132:
.LBE131:
	.loc 1 201 0
	mov	r6, r0
.LVL138:
	mov	r5, r1
.LVL139:
.LBB136:
.LBB133:
	.loc 1 135 0
	beq	.L104
.LVL140:
.L102:
	.loc 1 138 0
	mov	r3, #0
	.loc 1 136 0
	str	r6, [r4]
	.loc 1 137 0
	str	r5, [r4, #4]
.LBE133:
.LBE136:
	.loc 1 203 0
	mov	r0, r3
.LBB137:
.LBB134:
	.loc 1 138 0
	str	r3, [r4, #8]
	.loc 1 139 0
	str	r3, [r4, #12]
.LVL141:
.LBE134:
.LBE137:
	.loc 1 203 0
	pop	{r4, r5, r6, pc}
.LVL142:
.L104:
.LBB138:
.LBB135:
	.loc 1 135 0
	movw	r3, #:lower16:.LANCHOR0
	movw	r1, #:lower16:.LC0
.LVL143:
	movw	r0, #:lower16:.LC1
.LVL144:
	movt	r3, #:upper16:.LANCHOR0
	movt	r1, #:upper16:.LC0
	movt	r0, #:upper16:.LC1
	mov	r2, #135
.LVL145:
	bl	__assert_fail
.LVL146:
	b	.L102
.LBE135:
.LBE138:
	.cfi_endproc
.LFE43:
	.fnend
	.size	i2c_slave_init, .-i2c_slave_init
	.align	2
	.global	i2c_scan
	.syntax unified
	.arm
	.type	i2c_scan, %function
i2c_scan:
	.fnstart
.LFB44:
	.loc 1 208 0
	.cfi_startproc
	@ args = 0, pretend = 0, frame = 16
	@ frame_needed = 0, uses_anonymous_args = 0
.LVL147:
	push	{r4, r5, r6, r7, r8, r9, r10, fp, lr}
	.save {r4, r5, r6, r7, r8, r9, r10, fp, lr}
	.cfi_def_cfa_offset 36
	.cfi_offset 4, -36
	.cfi_offset 5, -32
	.cfi_offset 6, -28
	.cfi_offset 7, -24
	.cfi_offset 8, -20
	.cfi_offset 9, -16
	.cfi_offset 10, -12
	.cfi_offset 11, -8
	.cfi_offset 14, -4
	.loc 1 213 0
	bic	r4, r1, #1
.LVL148:
	cmp	r4, #255
	.loc 1 208 0
	.pad #28
	sub	sp, sp, #28
	.cfi_def_cfa_offset 64
	.loc 1 213 0
	movle	r7, #1
	movgt	r7, #0
	cmp	r3, #0
	movle	r7, #0
	cmp	r7, #0
	beq	.L106
.LBB141:
.LBB142:
	.loc 2 174 0
	movw	r10, #:lower16:.LC3
	movw	fp, #:lower16:.LC4
	mov	r5, r0
	mov	r9, r2
	mov	r8, r3
	movt	r10, #:upper16:.LC3
	movt	fp, #:upper16:.LC4
.LBE142:
.LBE141:
	.loc 1 213 0
	mov	r7, #0
	b	.L111
.LVL149:
.L108:
.LBB146:
.LBB143:
	.loc 2 176 0
	mov	r1, #0
	mov	r3, #10
	str	r1, [sp, #4]
	add	r2, sp, #12
.LVL150:
	str	r1, [sp]
	mov	r0, r5
	mov	r1, r4
	blx	r6
.LVL151:
.LBE143:
.LBE146:
	.loc 1 215 0
	cmp	r0, #10
	.loc 1 216 0
	streq	r4, [r9]
	.loc 1 217 0
	addeq	r7, r7, #1
.LVL152:
	.loc 1 216 0
	addeq	r9, r9, #4
.LVL153:
	.loc 1 215 0
	beq	.L110
	.loc 1 218 0
	cmp	r0, #0
	.loc 1 220 0
	movw	r0, #:lower16:.LC7
	movt	r0, #:upper16:.LC7
	.loc 1 218 0
	blt	.L110
	.loc 1 220 0
	bl	puts
.LVL154:
.L110:
	.loc 1 213 0 discriminator 2
	add	r4, r4, #2
.LVL155:
	cmp	r4, #255
	cmple	r7, r8
	bge	.L106
.LVL156:
.L111:
.LBB147:
.LBB144:
	.loc 2 174 0
	cmp	r5, #0
	beq	.L115
.L107:
	.loc 2 175 0
	ldr	r6, [r5]
	cmp	r6, #0
	bne	.L108
	movw	r0, #:lower16:.LC6
	ldr	r3, .L116
	movt	r0, #:upper16:.LC6
	mov	r2, #175
	mov	r1, r10
	bl	__assert_fail
.LVL157:
	ldr	r6, [r5]
	b	.L108
.LVL158:
.L106:
.LBE144:
.LBE147:
	.loc 1 224 0
	mov	r0, r7
	add	sp, sp, #28
	.cfi_remember_state
	.cfi_def_cfa_offset 36
	@ sp needed
	pop	{r4, r5, r6, r7, r8, r9, r10, fp, pc}
.LVL159:
.L115:
	.cfi_restore_state
.LBB148:
.LBB145:
	.loc 2 174 0
	ldr	r3, .L116
	mov	r2, #174
	mov	r1, r10
	mov	r0, fp
	bl	__assert_fail
.LVL160:
	b	.L107
.L117:
	.align	2
.L116:
	.word	.LANCHOR0+44
.LBE145:
.LBE148:
	.cfi_endproc
.LFE44:
	.fnend
	.size	i2c_scan, .-i2c_scan
	.section	.rodata
	.align	2
	.set	.LANCHOR0,. + 0
	.type	__func__.5256, %object
	.size	__func__.5256, 17
__func__.5256:
	.ascii	"i2c_kvslave_init\000"
	.space	3
	.type	__func__.5237, %object
	.size	__func__.5237, 11
__func__.5237:
	.ascii	"_do_kvread\000"
	.space	1
	.type	__func__.5118, %object
	.size	__func__.5118, 11
__func__.5118:
	.ascii	"i2c_mwrite\000"
	.space	1
	.type	__func__.5109, %object
	.size	__func__.5109, 10
__func__.5109:
	.ascii	"i2c_mread\000"
	.space	2
	.type	__func__.5248, %object
	.size	__func__.5248, 12
__func__.5248:
	.ascii	"_do_kvwrite\000"
	.section	.rodata.str1.4,"aMS",%progbits,1
	.align	2
.LC0:
	.ascii	"/home/mint/seL4/dhs-demo-feb-2018/libs/libplatsuppo"
	.ascii	"rt/src/arch/arm/i2c.c\000"
	.space	3
.LC1:
	.ascii	"i2c_slave\000"
	.space	2
.LC2:
	.ascii	"abytes < BUFFER_SIZE && dbytes < BUFFER_SIZE\000"
	.space	3
.LC3:
	.ascii	"/home/mint/seL4/dhs-demo-feb-2018/stage/arm/imx6/in"
	.ascii	"clude/platsupport/i2c.h\000"
	.space	1
.LC4:
	.ascii	"i2c_bus\000"
.LC5:
	.ascii	"i2c_bus->start_write\000"
	.space	3
.LC6:
	.ascii	"i2c_bus->start_read\000"
.LC7:
	.ascii	"Invalid response\000"
	.text
.Letext0:
	.file 3 "/home/mint/seL4/dhs-demo-feb-2018/stage/arm/imx6/include/bits/alltypes.h"
	.file 4 "/home/mint/seL4/dhs-demo-feb-2018/stage/arm/imx6/include/assert.h"
	.file 5 "<built-in>"
	.section	.note.GNU-stack,"",%progbits
