	.cpu cortex-a9
	.fpu softvfp
	.eabi_attribute 20, 1
	.eabi_attribute 21, 1
	.eabi_attribute 23, 3
	.eabi_attribute 24, 1
	.eabi_attribute 25, 1
	.eabi_attribute 26, 2
	.eabi_attribute 30, 2
	.eabi_attribute 34, 1
	.eabi_attribute 18, 4
	.file	"i2c_bitbang.c"
	.text
.Ltext0:
	.cfi_sections	.debug_frame
	.align	2
	.syntax unified
	.arm
	.type	i2c_bb_handle_irq, %function
i2c_bb_handle_irq:
	.fnstart
.LFB56:
	.file 1 "/home/mint/seL4/dhs-demo-feb-2018/libs/libplatsupport/src/arch/arm/i2c_bitbang.c"
	.loc 1 244 0
	.cfi_startproc
	@ args = 0, pretend = 0, frame = 0
	@ frame_needed = 0, uses_anonymous_args = 0
	@ link register save eliminated.
.LVL0:
	bx	lr
	.cfi_endproc
.LFE56:
	.fnend
	.size	i2c_bb_handle_irq, .-i2c_bb_handle_irq
	.align	2
	.syntax unified
	.arm
	.type	i2c_bb_set_speed, %function
i2c_bb_set_speed:
	.fnstart
.LFB58:
	.loc 1 266 0
	.cfi_startproc
	@ args = 0, pretend = 0, frame = 0
	@ frame_needed = 0, uses_anonymous_args = 0
	@ link register save eliminated.
.LVL1:
	.loc 1 269 0
	ldr	r3, [r0, #52]
	.loc 1 271 0
	mov	r0, r1
.LVL2:
	.loc 1 269 0
	str	r1, [r3, #8]
	.loc 1 271 0
	bx	lr
	.cfi_endproc
.LFE58:
	.fnend
	.size	i2c_bb_set_speed, .-i2c_bb_set_speed
	.align	2
	.syntax unified
	.arm
	.type	i2c_bb_master_stop, %function
i2c_bb_master_stop:
	.fnstart
.LFB53:
	.loc 1 183 0
	.cfi_startproc
	@ args = 0, pretend = 0, frame = 0
	@ frame_needed = 0, uses_anonymous_args = 0
.LVL3:
	.loc 1 184 0
	movw	r3, #:lower16:.LANCHOR0
	movw	r1, #:lower16:.LC0
	movw	r0, #:lower16:.LC1
.LVL4:
	.loc 1 183 0
	push	{r4, lr}
	.save {r4, lr}
	.cfi_def_cfa_offset 8
	.cfi_offset 4, -8
	.cfi_offset 14, -4
	.loc 1 184 0
	movt	r3, #:upper16:.LANCHOR0
	movt	r1, #:upper16:.LC0
	movt	r0, #:upper16:.LC1
	mov	r2, #184
	bl	__assert_fail
.LVL5:
	.loc 1 186 0
	mvn	r0, #0
	pop	{r4, pc}
	.cfi_endproc
.LFE53:
	.fnend
	.size	i2c_bb_master_stop, .-i2c_bb_master_stop
	.align	2
	.syntax unified
	.arm
	.type	i2c_bb_set_address, %function
i2c_bb_set_address:
	.fnstart
.LFB57:
	.loc 1 253 0
	.cfi_startproc
	@ args = 0, pretend = 0, frame = 0
	@ frame_needed = 0, uses_anonymous_args = 0
.LVL6:
	.loc 1 259 0
	movw	r1, #:lower16:.LC0
.LVL7:
	movw	r0, #:lower16:.LC2
.LVL8:
	.loc 1 253 0
	push	{r4, lr}
	.save {r4, lr}
	.cfi_def_cfa_offset 8
	.cfi_offset 4, -8
	.cfi_offset 14, -4
	.loc 1 259 0
	movt	r1, #:upper16:.LC0
	movt	r0, #:upper16:.LC2
	ldr	r3, .L7
.LVL9:
	movw	r2, #259
.LVL10:
	bl	__assert_fail
.LVL11:
	.loc 1 261 0
	mvn	r0, #0
	pop	{r4, pc}
.L8:
	.align	2
.L7:
	.word	.LANCHOR0+20
	.cfi_endproc
.LFE57:
	.fnend
	.size	i2c_bb_set_address, .-i2c_bb_set_address
	.align	2
	.syntax unified
	.arm
	.type	i2c_bb_write, %function
i2c_bb_write:
	.fnstart
.LFB52:
	.loc 1 176 0
	.cfi_startproc
	@ args = 4, pretend = 0, frame = 0
	@ frame_needed = 0, uses_anonymous_args = 0
.LVL12:
	.loc 1 177 0
	movw	r1, #:lower16:.LC0
.LVL13:
	movw	r0, #:lower16:.LC1
.LVL14:
	.loc 1 176 0
	push	{r4, lr}
	.save {r4, lr}
	.cfi_def_cfa_offset 8
	.cfi_offset 4, -8
	.cfi_offset 14, -4
	.loc 1 177 0
	movt	r1, #:upper16:.LC0
	movt	r0, #:upper16:.LC1
	ldr	r3, .L11
.LVL15:
	mov	r2, #177
.LVL16:
	bl	__assert_fail
.LVL17:
	.loc 1 179 0
	mvn	r0, #0
	pop	{r4, pc}
.L12:
	.align	2
.L11:
	.word	.LANCHOR0+40
	.cfi_endproc
.LFE52:
	.fnend
	.size	i2c_bb_write, .-i2c_bb_write
	.align	2
	.syntax unified
	.arm
	.type	i2c_bb_read, %function
i2c_bb_read:
	.fnstart
.LFB51:
	.loc 1 169 0
	.cfi_startproc
	@ args = 4, pretend = 0, frame = 0
	@ frame_needed = 0, uses_anonymous_args = 0
.LVL18:
	.loc 1 170 0
	movw	r1, #:lower16:.LC0
.LVL19:
	movw	r0, #:lower16:.LC1
.LVL20:
	.loc 1 169 0
	push	{r4, lr}
	.save {r4, lr}
	.cfi_def_cfa_offset 8
	.cfi_offset 4, -8
	.cfi_offset 14, -4
	.loc 1 170 0
	movt	r1, #:upper16:.LC0
	movt	r0, #:upper16:.LC1
	ldr	r3, .L15
.LVL21:
	mov	r2, #170
.LVL22:
	bl	__assert_fail
.LVL23:
	.loc 1 172 0
	mvn	r0, #0
	pop	{r4, pc}
.L16:
	.align	2
.L15:
	.word	.LANCHOR0+56
	.cfi_endproc
.LFE51:
	.fnend
	.size	i2c_bb_read, .-i2c_bb_read
	.global	__aeabi_idiv
	.align	2
	.syntax unified
	.arm
	.type	i2c_bb_sendbyte, %function
i2c_bb_sendbyte:
	.fnstart
.LFB49:
	.loc 1 143 0
	.cfi_startproc
	@ args = 0, pretend = 0, frame = 16
	@ frame_needed = 0, uses_anonymous_args = 0
.LVL24:
	push	{r4, r5, r6, r7, r8, r9, r10, fp, lr}
	.save {r4, r5, r6, r7, r8, r9, r10, fp, lr}
	.cfi_def_cfa_offset 36
	.cfi_offset 4, -36
	.cfi_offset 5, -32
	.cfi_offset 6, -28
	.cfi_offset 7, -24
	.cfi_offset 8, -20
	.cfi_offset 9, -16
	.cfi_offset 10, -12
	.cfi_offset 11, -8
	.cfi_offset 14, -4
.LBB136:
.LBB137:
.LBB138:
.LBB139:
.LBB140:
.LBB141:
.LBB142:
.LBB143:
	.file 2 "/home/mint/seL4/dhs-demo-feb-2018/stage/arm/imx6/include/platsupport/gpio.h"
	.loc 2 84 0
	movw	fp, #:lower16:.LC3
.LBE143:
.LBE142:
.LBE141:
.LBE140:
.LBE139:
.LBE138:
.LBB166:
.LBB167:
	.loc 1 28 0
	movw	r8, #16960
.LBE167:
.LBE166:
.LBE137:
.LBE136:
	.loc 1 143 0
	.pad #20
	sub	sp, sp, #20
	.cfi_def_cfa_offset 56
	.loc 1 143 0
	mov	r4, r0
	mov	r9, r1
.LBB244:
.LBB239:
.LBB170:
.LBB162:
.LBB158:
.LBB154:
.LBB147:
.LBB144:
	.loc 2 84 0
	movt	fp, #:upper16:.LC3
.LBE144:
.LBE147:
.LBE154:
.LBE158:
.LBE162:
.LBE170:
.LBB171:
.LBB168:
	.loc 1 28 0
	movt	r8, 15
.LBE168:
.LBE171:
.LBE239:
.LBE244:
	.loc 1 143 0
	mov	r7, #8
	.loc 1 145 0
	mov	r6, #128
.LBB245:
.LBB240:
.LBB172:
.LBB163:
.LBB159:
.LBB155:
.LBB148:
.LBB149:
	.loc 2 165 0
	mov	r10, #0
.LVL25:
.L26:
.LBE149:
.LBE148:
.LBE155:
.LBE159:
.LBE163:
.LBE172:
	.loc 1 112 0 discriminator 3
	ands	r2, r9, r6
	ldr	r0, [r4, #12]
.LVL26:
.LBB173:
.LBB174:
.LBB175:
.LBB176:
.LBB177:
.LBB178:
.LBB179:
	.loc 2 165 0 discriminator 3
	add	r3, sp, #4
.LVL27:
.LBE179:
.LBE178:
.LBE177:
.LBE176:
.LBE175:
.LBE174:
.LBE173:
	.loc 1 112 0 discriminator 3
	bne	.L44
.LVL28:
.LBB194:
.LBB164:
.LBB160:
.LBB156:
.LBB151:
.LBB150:
	.loc 2 165 0
	ldr	r1, [r4, #4]
	ldr	r5, [r0]
	blx	r5
.LVL29:
.LBE150:
.LBE151:
.LBB152:
.LBB145:
	.loc 2 84 0
	ldr	r3, [sp, #8]
	cmp	r3, #0
	beq	.L45
.L21:
	.loc 2 85 0
	strb	r10, [sp, #3]
	.loc 2 86 0
	mov	r2, #1
	ldr	r3, [r3, #4]
	add	r1, sp, #3
	add	r0, sp, #4
.LVL30:
	blx	r3
.LVL31:
.L20:
.LBE145:
.LBE152:
.LBE156:
.LBE160:
.LBE164:
.LBE194:
.LBB195:
.LBB169:
	.loc 1 28 0
	ldr	r1, [r4, #8]
	mov	r0, r8
	bl	__aeabi_idiv
.LVL32:
	add	r0, r0, #1
	bl	ps_udelay
.LVL33:
	b	.L24
.LVL34:
.L47:
.LBE169:
.LBE195:
.LBB196:
.LBB197:
.LBB198:
.LBB199:
.LBB200:
.LBB201:
	.loc 2 103 0
	ldrb	r3, [sp, #3]	@ zero_extendqisi2
.LVL35:
.LBE201:
.LBE200:
.LBE199:
.LBE198:
	.loc 1 72 0
	cmp	r3, #0
	bne	.L34
.LVL36:
.L24:
	ldr	r0, [r4, #12]
.LVL37:
.LBB210:
.LBB208:
.LBB204:
.LBB205:
	.loc 2 165 0
	add	r3, sp, #4
.LVL38:
	mov	r2, #1
	ldr	r1, [r4]
	ldr	r5, [r0]
	blx	r5
.LVL39:
.LBE205:
.LBE204:
.LBB206:
.LBB202:
	.loc 2 100 0
	ldr	r3, [sp, #8]
	cmp	r3, #0
	beq	.L46
.L22:
	.loc 2 101 0
	mov	r2, #1
	add	r1, sp, #3
	add	r0, sp, #4
.LVL40:
	ldr	r3, [r3, #8]
	blx	r3
.LVL41:
	.loc 2 102 0
	cmp	r0, #1
	beq	.L47
.LVL42:
.L34:
.LBE202:
.LBE206:
.LBE208:
.LBE210:
.LBE197:
.LBE196:
.LBB213:
.LBB214:
	.loc 1 28 0
	ldr	r1, [r4, #8]
	mov	r0, r8
	bl	__aeabi_idiv
.LVL43:
	add	r0, r0, #1
	bl	ps_udelay
.LVL44:
	ldr	r0, [r4, #12]
.LVL45:
.LBE214:
.LBE213:
.LBB215:
.LBB216:
.LBB217:
.LBB218:
.LBB219:
.LBB220:
	.loc 2 165 0
	add	r3, sp, #4
.LVL46:
	mov	r2, #0
	ldr	r1, [r4]
	ldr	r5, [r0]
	blx	r5
.LVL47:
.LBE220:
.LBE219:
.LBB221:
.LBB222:
	.loc 2 84 0
	ldr	r3, [sp, #8]
	cmp	r3, #0
	beq	.L48
.L25:
	.loc 2 85 0
	strb	r10, [sp, #3]
	.loc 2 86 0
	mov	r2, #1
	ldr	r3, [r3, #4]
	add	r1, sp, #3
	add	r0, sp, #4
.LVL48:
.LBE222:
.LBE221:
.LBE218:
.LBE217:
.LBE216:
.LBE215:
.LBE240:
.LBE245:
	.loc 1 148 0
	lsr	r6, r6, r2
.LVL49:
.LBB246:
.LBB241:
.LBB233:
.LBB231:
.LBB229:
.LBB227:
.LBB225:
.LBB223:
	.loc 2 86 0
	blx	r3
.LVL50:
.LBE223:
.LBE225:
.LBE227:
.LBE229:
.LBE231:
.LBE233:
.LBE241:
.LBE246:
	.loc 1 146 0
	subs	r7, r7, #1
.LVL51:
	bne	.L26
.LVL52:
	ldr	r0, [r4, #12]
.LVL53:
.LBB247:
.LBB248:
.LBB249:
.LBB250:
.LBB251:
.LBB252:
.LBB253:
.LBB254:
	.loc 2 165 0
	add	r3, sp, #4
.LVL54:
	mov	r2, #1
	ldr	r1, [r4, #4]
	ldr	r5, [r0]
	blx	r5
.LVL55:
.LBE254:
.LBE253:
.LBB255:
.LBB256:
	.loc 2 100 0
	ldr	r3, [sp, #8]
	cmp	r3, #0
	beq	.L49
.L27:
	.loc 2 101 0
	ldr	r3, [r3, #8]
	mov	r2, #1
	add	r1, sp, #3
	add	r0, sp, #4
.LVL56:
	blx	r3
.LVL57:
.LBE256:
.LBE255:
.LBE252:
.LBE251:
.LBE250:
.LBE249:
.LBB262:
.LBB263:
	.loc 1 28 0
	movw	r0, #16960
	ldr	r1, [r4, #8]
	movt	r0, 15
.LBE263:
.LBE262:
.LBB266:
.LBB267:
.LBB268:
.LBB269:
.LBB270:
.LBB271:
	.loc 2 100 0
	movw	r6, #:lower16:.LC3
.LVL58:
.LBE271:
.LBE270:
.LBE269:
.LBE268:
.LBE267:
.LBE266:
.LBB293:
.LBB264:
	.loc 1 28 0
	bl	__aeabi_idiv
.LVL59:
	add	r0, r0, #1
.LBE264:
.LBE293:
.LBB294:
.LBB290:
.LBB286:
.LBB282:
.LBB276:
.LBB272:
	.loc 2 100 0
	ldr	r7, .L55
.LVL60:
	movt	r6, #:upper16:.LC3
.LBE272:
.LBE276:
.LBE282:
.LBE286:
.LBE290:
.LBE294:
.LBB295:
.LBB265:
	.loc 1 28 0
	bl	ps_udelay
.LVL61:
	b	.L30
.LVL62:
.L51:
.LBE265:
.LBE295:
.LBB296:
.LBB291:
.LBB287:
.LBB283:
.LBB277:
.LBB273:
	.loc 2 103 0
	ldrb	r3, [sp, #3]	@ zero_extendqisi2
.LVL63:
.LBE273:
.LBE277:
.LBE283:
.LBE287:
	.loc 1 72 0
	cmp	r3, #0
	bne	.L35
.LVL64:
.L30:
	ldr	r0, [r4, #12]
.LVL65:
.LBB288:
.LBB284:
.LBB278:
.LBB279:
	.loc 2 165 0
	add	r3, sp, #4
.LVL66:
	mov	r2, #1
	ldr	r1, [r4]
	ldr	r5, [r0]
	blx	r5
.LVL67:
.LBE279:
.LBE278:
.LBB280:
.LBB274:
	.loc 2 100 0
	ldr	r3, [sp, #8]
	cmp	r3, #0
	beq	.L50
.L28:
	.loc 2 101 0
	mov	r2, #1
	add	r1, sp, #3
	add	r0, sp, #4
.LVL68:
	ldr	r3, [r3, #8]
	blx	r3
.LVL69:
	.loc 2 102 0
	cmp	r0, #1
	beq	.L51
.LVL70:
.L35:
	ldr	r0, [r4, #12]
.LVL71:
.LBE274:
.LBE280:
.LBE284:
.LBE288:
.LBE291:
.LBE296:
.LBB297:
.LBB298:
.LBB299:
.LBB300:
.LBB301:
.LBB302:
	.loc 2 165 0
	add	r3, sp, #4
.LVL72:
	mov	r2, #1
	ldr	r1, [r4, #4]
	ldr	r5, [r0]
	blx	r5
.LVL73:
.LBE302:
.LBE301:
.LBB303:
.LBB304:
	.loc 2 100 0
	ldr	r3, [sp, #8]
	cmp	r3, #0
	beq	.L52
.L31:
	.loc 2 101 0
	ldr	r3, [r3, #8]
	mov	r2, #1
	add	r1, sp, #3
	add	r0, sp, #4
.LVL74:
	blx	r3
.LVL75:
	.loc 2 102 0
	cmp	r0, #1
.LBE304:
.LBE303:
.LBE300:
.LBE299:
.LBE298:
.LBE297:
.LBB315:
.LBB316:
	.loc 1 28 0
	movw	r0, #16960
	ldr	r1, [r4, #8]
	movt	r0, 15
.LBE316:
.LBE315:
.LBB318:
.LBB313:
.LBB311:
.LBB309:
.LBB307:
.LBB305:
	.loc 2 103 0
	ldrbeq	r5, [sp, #3]	@ zero_extendqisi2
	.loc 2 105 0
	mvnne	r5, #0
.LBE305:
.LBE307:
.LBE309:
.LBE311:
.LBE313:
.LBE318:
.LBB319:
.LBB317:
	.loc 1 28 0
	bl	__aeabi_idiv
.LVL76:
	add	r0, r0, #1
	bl	ps_udelay
.LVL77:
	ldr	r0, [r4, #12]
.LVL78:
.LBE317:
.LBE319:
.LBB320:
.LBB321:
.LBB322:
.LBB323:
.LBB324:
.LBB325:
	.loc 2 165 0
	add	r3, sp, #4
.LVL79:
	ldr	r1, [r4]
	mov	r2, #0
	ldr	r4, [r0]
.LVL80:
	blx	r4
.LVL81:
.LBE325:
.LBE324:
.LBB326:
.LBB327:
	.loc 2 84 0
	ldr	r3, [sp, #8]
	cmp	r3, #0
	beq	.L53
.L33:
	.loc 2 85 0
	mov	r2, #0
	.loc 2 86 0
	add	r1, sp, #3
	.loc 2 85 0
	strb	r2, [sp, #3]
	.loc 2 86 0
	add	r0, sp, #4
.LVL82:
	mov	r2, #1
	ldr	r3, [r3, #4]
	blx	r3
.LVL83:
.LBE327:
.LBE326:
.LBE323:
.LBE322:
.LBE321:
.LBE320:
.LBE248:
.LBE247:
	.loc 1 152 0
	mov	r0, r5
	add	sp, sp, #20
	.cfi_remember_state
	.cfi_def_cfa_offset 36
	@ sp needed
	pop	{r4, r5, r6, r7, r8, r9, r10, fp, pc}
.LVL84:
.L46:
	.cfi_restore_state
.LBB339:
.LBB242:
.LBB234:
.LBB212:
.LBB211:
.LBB209:
.LBB207:
.LBB203:
	.loc 2 100 0
	movw	r0, #:lower16:.LC4
	ldr	r3, .L55
	movt	r0, #:upper16:.LC4
	mov	r2, #100
	mov	r1, fp
	bl	__assert_fail
.LVL85:
	ldr	r3, [sp, #8]
	b	.L22
.LVL86:
.L44:
.LBE203:
.LBE207:
.LBE209:
.LBE211:
.LBE212:
.LBE234:
.LBB235:
.LBB192:
.LBB190:
.LBB188:
.LBB186:
.LBB181:
.LBB180:
	.loc 2 165 0
	mov	r2, #1
	ldr	r1, [r4, #4]
	ldr	r5, [r0]
	blx	r5
.LVL87:
.LBE180:
.LBE181:
.LBB182:
.LBB183:
	.loc 2 100 0
	ldr	r3, [sp, #8]
	cmp	r3, #0
	beq	.L54
.L19:
	.loc 2 101 0
	ldr	r3, [r3, #8]
	mov	r2, #1
	add	r1, sp, #3
	add	r0, sp, #4
.LVL88:
	blx	r3
.LVL89:
	b	.L20
.LVL90:
.L48:
.LBE183:
.LBE182:
.LBE186:
.LBE188:
.LBE190:
.LBE192:
.LBE235:
.LBB236:
.LBB232:
.LBB230:
.LBB228:
.LBB226:
.LBB224:
	.loc 2 84 0
	movw	r0, #:lower16:.LC4
	ldr	r3, .L55+4
	movt	r0, #:upper16:.LC4
	mov	r2, #84
	mov	r1, fp
	bl	__assert_fail
.LVL91:
	ldr	r3, [sp, #8]
	b	.L25
.LVL92:
.L50:
.LBE224:
.LBE226:
.LBE228:
.LBE230:
.LBE232:
.LBE236:
.LBE242:
.LBE339:
.LBB340:
.LBB337:
.LBB333:
.LBB292:
.LBB289:
.LBB285:
.LBB281:
.LBB275:
	.loc 2 100 0
	movw	r0, #:lower16:.LC4
	mov	r3, r7
	movt	r0, #:upper16:.LC4
	mov	r2, #100
	mov	r1, r6
	bl	__assert_fail
.LVL93:
	ldr	r3, [sp, #8]
	b	.L28
.LVL94:
.L45:
.LBE275:
.LBE281:
.LBE285:
.LBE289:
.LBE292:
.LBE333:
.LBE337:
.LBE340:
.LBB341:
.LBB243:
.LBB237:
.LBB165:
.LBB161:
.LBB157:
.LBB153:
.LBB146:
	.loc 2 84 0
	movw	r0, #:lower16:.LC4
	ldr	r3, .L55+4
	movt	r0, #:upper16:.LC4
	mov	r2, #84
	mov	r1, fp
	bl	__assert_fail
.LVL95:
	ldr	r3, [sp, #8]
	b	.L21
.LVL96:
.L54:
.LBE146:
.LBE153:
.LBE157:
.LBE161:
.LBE165:
.LBE237:
.LBB238:
.LBB193:
.LBB191:
.LBB189:
.LBB187:
.LBB185:
.LBB184:
	.loc 2 100 0
	movw	r0, #:lower16:.LC4
	ldr	r3, .L55
	movt	r0, #:upper16:.LC4
	mov	r2, #100
	mov	r1, fp
	bl	__assert_fail
.LVL97:
	ldr	r3, [sp, #8]
	b	.L19
.LVL98:
.L53:
.LBE184:
.LBE185:
.LBE187:
.LBE189:
.LBE191:
.LBE193:
.LBE238:
.LBE243:
.LBE341:
.LBB342:
.LBB338:
.LBB334:
.LBB332:
.LBB331:
.LBB330:
.LBB329:
.LBB328:
	.loc 2 84 0
	movw	r1, #:lower16:.LC3
	movw	r0, #:lower16:.LC4
	ldr	r3, .L55+4
	movt	r1, #:upper16:.LC3
	movt	r0, #:upper16:.LC4
	mov	r2, #84
	bl	__assert_fail
.LVL99:
	ldr	r3, [sp, #8]
	b	.L33
.LVL100:
.L49:
.LBE328:
.LBE329:
.LBE330:
.LBE331:
.LBE332:
.LBE334:
.LBB335:
.LBB261:
.LBB260:
.LBB259:
.LBB258:
.LBB257:
	.loc 2 100 0
	movw	r1, #:lower16:.LC3
	movw	r0, #:lower16:.LC4
	ldr	r3, .L55
	movt	r1, #:upper16:.LC3
	movt	r0, #:upper16:.LC4
	mov	r2, #100
	bl	__assert_fail
.LVL101:
	ldr	r3, [sp, #8]
	b	.L27
.LVL102:
.L52:
.LBE257:
.LBE258:
.LBE259:
.LBE260:
.LBE261:
.LBE335:
.LBB336:
.LBB314:
.LBB312:
.LBB310:
.LBB308:
.LBB306:
	movw	r1, #:lower16:.LC3
	movw	r0, #:lower16:.LC4
	ldr	r3, .L55
	movt	r1, #:upper16:.LC3
	movt	r0, #:upper16:.LC4
	mov	r2, #100
	bl	__assert_fail
.LVL103:
	ldr	r3, [sp, #8]
	b	.L31
.L56:
	.align	2
.L55:
	.word	.LANCHOR0+68
	.word	.LANCHOR0+80
.LBE306:
.LBE308:
.LBE310:
.LBE312:
.LBE314:
.LBE336:
.LBE338:
.LBE342:
	.cfi_endproc
.LFE49:
	.fnend
	.size	i2c_bb_sendbyte, .-i2c_bb_sendbyte
	.align	2
	.syntax unified
	.arm
	.type	i2c_bb_start_write, %function
i2c_bb_start_write:
	.fnstart
.LFB55:
	.loc 1 218 0
	.cfi_startproc
	@ args = 8, pretend = 0, frame = 16
	@ frame_needed = 0, uses_anonymous_args = 0
.LVL104:
	push	{r4, r5, r6, r7, r8, r9, r10, fp, lr}
	.save {r4, r5, r6, r7, r8, r9, r10, fp, lr}
	.cfi_def_cfa_offset 36
	.cfi_offset 4, -36
	.cfi_offset 5, -32
	.cfi_offset 6, -28
	.cfi_offset 7, -24
	.cfi_offset 8, -20
	.cfi_offset 9, -16
	.cfi_offset 10, -12
	.cfi_offset 11, -8
	.cfi_offset 14, -4
.LBB403:
.LBB404:
.LBB405:
.LBB406:
.LBB407:
.LBB408:
.LBB409:
.LBB410:
	.loc 2 100 0
	movw	r8, #:lower16:.LC3
.LBE410:
.LBE409:
.LBE408:
.LBE407:
.LBE406:
.LBE405:
.LBE404:
.LBE403:
	.loc 1 218 0
	.pad #20
	sub	sp, sp, #20
	.cfi_def_cfa_offset 56
	.loc 1 218 0
	mov	r9, r0
	mov	r10, r1
	mov	r5, r2
.LVL105:
	ldr	r4, [r0, #52]
.LVL106:
	mov	r7, r3
.LBB466:
.LBB463:
.LBB428:
.LBB425:
.LBB422:
.LBB419:
.LBB414:
.LBB411:
	.loc 2 100 0
	ldr	fp, .L97
	movt	r8, #:upper16:.LC3
	b	.L60
.LVL107:
.L89:
	.loc 2 103 0
	ldrb	r3, [sp, #3]	@ zero_extendqisi2
.LVL108:
.LBE411:
.LBE414:
.LBE419:
.LBE422:
.LBE425:
.LBE428:
	.loc 1 88 0
	cmp	r3, #0
	bne	.L73
.LVL109:
.L60:
	ldr	r0, [r4, #12]
.LVL110:
.LBB429:
.LBB426:
.LBB423:
.LBB420:
.LBB415:
.LBB416:
	.loc 2 165 0
	add	r3, sp, #4
.LVL111:
	mov	r2, #1
	ldr	r1, [r4, #4]
	ldr	r6, [r0]
	blx	r6
.LVL112:
.LBE416:
.LBE415:
.LBB417:
.LBB412:
	.loc 2 100 0
	ldr	r3, [sp, #8]
	cmp	r3, #0
	beq	.L88
.L58:
	.loc 2 101 0
	mov	r2, #1
	add	r1, sp, #3
	add	r0, sp, #4
.LVL113:
	ldr	r3, [r3, #8]
	blx	r3
.LVL114:
	.loc 2 102 0
	cmp	r0, #1
	beq	.L89
.LVL115:
.L73:
.LBE412:
.LBE417:
.LBE420:
.LBE423:
.LBE426:
.LBE429:
.LBB430:
.LBB431:
	.loc 1 28 0
	movw	r0, #16960
	ldr	r1, [r4, #8]
	movt	r0, 15
	bl	__aeabi_idiv
.LVL116:
	add	r0, r0, #1
	bl	ps_udelay
.LVL117:
	ldr	r0, [r4, #12]
.LVL118:
.LBE431:
.LBE430:
.LBB432:
.LBB433:
.LBB434:
.LBB435:
.LBB436:
.LBB437:
	.loc 2 165 0
	add	r3, sp, #4
.LVL119:
	mov	r2, #0
	ldr	r1, [r4, #4]
	ldr	r6, [r0]
	blx	r6
.LVL120:
.LBE437:
.LBE436:
.LBB438:
.LBB439:
	.loc 2 84 0
	ldr	r3, [sp, #8]
	cmp	r3, #0
	beq	.L90
.L61:
	.loc 2 85 0
	mov	r6, #0
	.loc 2 86 0
	mov	r2, #1
	.loc 2 85 0
	strb	r6, [sp, #3]
	.loc 2 86 0
	add	r1, sp, #3
	ldr	r3, [r3, #4]
	add	r0, sp, #4
.LVL121:
	blx	r3
.LVL122:
.LBE439:
.LBE438:
.LBE435:
.LBE434:
.LBE433:
.LBE432:
.LBB445:
.LBB446:
	.loc 1 28 0
	movw	r0, #16960
	ldr	r1, [r4, #8]
	movt	r0, 15
	bl	__aeabi_idiv
.LVL123:
	add	r0, r0, #1
	bl	ps_udelay
.LVL124:
	ldr	r0, [r4, #12]
.LVL125:
.LBE446:
.LBE445:
.LBB447:
.LBB448:
.LBB449:
.LBB450:
.LBB451:
.LBB452:
	.loc 2 165 0
	mov	r2, r6
	add	r3, sp, #4
.LVL126:
	ldr	r1, [r4]
	ldr	r6, [r0]
	blx	r6
.LVL127:
.LBE452:
.LBE451:
.LBB453:
.LBB454:
	.loc 2 84 0
	ldr	r3, [sp, #8]
	cmp	r3, #0
	beq	.L91
.L62:
	.loc 2 85 0
	mov	r1, #0
	.loc 2 86 0
	mov	r2, #1
	.loc 2 85 0
	strb	r1, [sp, #3]
	.loc 2 86 0
	add	r0, sp, #4
.LVL128:
	add	r1, sp, #3
	ldr	r3, [r3, #4]
	blx	r3
.LVL129:
.LBE454:
.LBE453:
.LBE450:
.LBE449:
.LBE448:
.LBE447:
.LBE463:
.LBE466:
	.loc 1 226 0
	and	r1, r10, #254
	mov	r0, r4
	bl	i2c_bb_sendbyte
.LVL130:
	.loc 1 227 0
	cmp	r0, #0
	bne	.L76
.LVL131:
	.loc 1 231 0 discriminator 1
	cmp	r7, #0
	beq	.L64
	add	r6, r5, r7
.LVL132:
.L65:
	.loc 1 232 0 discriminator 3
	ldrb	r1, [r5], #1	@ zero_extendqisi2
.LVL133:
	mov	r0, r4
	bl	i2c_bb_sendbyte
.LVL134:
	.loc 1 231 0 discriminator 3
	cmp	r5, r6
	bne	.L65
.LVL135:
.L64:
	ldr	r0, [r4, #12]
.LVL136:
.LBB467:
.LBB468:
.LBB469:
.LBB470:
.LBB471:
.LBB472:
.LBB473:
.LBB474:
	.loc 2 165 0
	add	r3, sp, #4
.LVL137:
	mov	r2, #0
	ldr	r1, [r4, #4]
	ldr	r5, [r0]
.LVL138:
	blx	r5
.LVL139:
.LBE474:
.LBE473:
.LBB475:
.LBB476:
	.loc 2 84 0
	ldr	r3, [sp, #8]
	cmp	r3, #0
	beq	.L92
.L66:
	.loc 2 85 0
	mov	r1, #0
	.loc 2 86 0
	mov	r2, #1
	.loc 2 85 0
	strb	r1, [sp, #3]
	.loc 2 86 0
	add	r0, sp, #4
.LVL140:
	add	r1, sp, #3
	ldr	r3, [r3, #4]
	blx	r3
.LVL141:
.LBE476:
.LBE475:
.LBE472:
.LBE471:
.LBE470:
.LBE469:
.LBB482:
.LBB483:
	.loc 1 28 0
	movw	r0, #16960
	ldr	r1, [r4, #8]
	movt	r0, 15
.LBE483:
.LBE482:
.LBB486:
.LBB487:
.LBB488:
.LBB489:
.LBB490:
.LBB491:
	.loc 2 100 0
	movw	r5, #:lower16:.LC3
.LBE491:
.LBE490:
.LBE489:
.LBE488:
.LBE487:
.LBE486:
.LBB513:
.LBB484:
	.loc 1 28 0
	bl	__aeabi_idiv
.LVL142:
	add	r0, r0, #1
.LBE484:
.LBE513:
.LBB514:
.LBB510:
.LBB506:
.LBB502:
.LBB496:
.LBB492:
	.loc 2 100 0
	ldr	r6, .L97
	movt	r5, #:upper16:.LC3
.LBE492:
.LBE496:
.LBE502:
.LBE506:
.LBE510:
.LBE514:
.LBB515:
.LBB485:
	.loc 1 28 0
	bl	ps_udelay
.LVL143:
	b	.L69
.LVL144:
.L94:
.LBE485:
.LBE515:
.LBB516:
.LBB511:
.LBB507:
.LBB503:
.LBB497:
.LBB493:
	.loc 2 103 0
	ldrb	r3, [sp, #3]	@ zero_extendqisi2
.LVL145:
.LBE493:
.LBE497:
.LBE503:
.LBE507:
	.loc 1 72 0
	cmp	r3, #0
	bne	.L74
.LVL146:
.L69:
	ldr	r0, [r4, #12]
.LVL147:
.LBB508:
.LBB504:
.LBB498:
.LBB499:
	.loc 2 165 0
	add	r3, sp, #4
.LVL148:
	mov	r2, #1
	ldr	r1, [r4]
	ldr	r8, [r0]
	blx	r8
.LVL149:
.LBE499:
.LBE498:
.LBB500:
.LBB494:
	.loc 2 100 0
	ldr	r3, [sp, #8]
	cmp	r3, #0
	beq	.L93
.L67:
	.loc 2 101 0
	mov	r2, #1
	add	r1, sp, #3
	add	r0, sp, #4
.LVL150:
	ldr	r3, [r3, #8]
	blx	r3
.LVL151:
	.loc 2 102 0
	cmp	r0, #1
	beq	.L94
.LVL152:
.L74:
.LBE494:
.LBE500:
.LBE504:
.LBE508:
.LBE511:
.LBE516:
.LBB517:
.LBB518:
.LBB519:
.LBB520:
.LBB521:
.LBB522:
	.loc 2 100 0
	movw	r5, #:lower16:.LC3
.LBE522:
.LBE521:
.LBE520:
.LBE519:
.LBE518:
.LBE517:
	.loc 1 102 0
	mov	r0, #1000
.LBB545:
.LBB541:
.LBB537:
.LBB533:
.LBB527:
.LBB523:
	.loc 2 100 0
	ldr	r6, .L97
	movt	r5, #:upper16:.LC3
.LBE523:
.LBE527:
.LBE533:
.LBE537:
.LBE541:
.LBE545:
	.loc 1 102 0
	bl	ps_udelay
.LVL153:
	b	.L72
.LVL154:
.L96:
.LBB546:
.LBB542:
.LBB538:
.LBB534:
.LBB528:
.LBB524:
	.loc 2 103 0
	ldrb	r3, [sp, #3]	@ zero_extendqisi2
.LVL155:
.LBE524:
.LBE528:
.LBE534:
.LBE538:
.LBE542:
.LBE546:
	.loc 1 103 0
	cmp	r3, #0
	bne	.L75
.LVL156:
.L72:
	ldr	r0, [r4, #12]
.LVL157:
.LBB547:
.LBB543:
.LBB539:
.LBB535:
.LBB529:
.LBB530:
	.loc 2 165 0
	add	r3, sp, #4
.LVL158:
	mov	r2, #1
	ldr	r1, [r4, #4]
	ldr	r8, [r0]
	blx	r8
.LVL159:
.LBE530:
.LBE529:
.LBB531:
.LBB525:
	.loc 2 100 0
	ldr	r3, [sp, #8]
	cmp	r3, #0
	beq	.L95
.L70:
	.loc 2 101 0
	mov	r2, #1
	add	r1, sp, #3
	add	r0, sp, #4
.LVL160:
	ldr	r3, [r3, #8]
	blx	r3
.LVL161:
	.loc 2 102 0
	cmp	r0, #1
	beq	.L96
.LVL162:
.L75:
.LBE525:
.LBE531:
.LBE535:
.LBE539:
.LBE543:
.LBE547:
.LBB548:
.LBB549:
	.loc 1 28 0
	movw	r0, #16960
	ldr	r1, [r4, #8]
	movt	r0, 15
	bl	__aeabi_idiv
.LVL163:
	add	r0, r0, #1
	bl	ps_udelay
.LVL164:
.LBE549:
.LBE548:
.LBE468:
.LBE467:
	.loc 1 236 0
	ldr	r3, [sp, #56]
	cmp	r3, #0
	moveq	r0, r7
	beq	.L63
	.loc 1 237 0
	mov	r0, r9
	ldr	r3, [sp, #60]
	mov	r2, r7
	mov	r1, #0
	ldr	ip, [sp, #56]
	blx	ip
.LVL165:
	mov	r0, r7
.LVL166:
.L63:
	.loc 1 240 0
	add	sp, sp, #20
	.cfi_remember_state
	.cfi_def_cfa_offset 36
	@ sp needed
	pop	{r4, r5, r6, r7, r8, r9, r10, fp, pc}
.LVL167:
.L88:
	.cfi_restore_state
.LBB555:
.LBB464:
.LBB460:
.LBB427:
.LBB424:
.LBB421:
.LBB418:
.LBB413:
	.loc 2 100 0
	movw	r0, #:lower16:.LC4
	mov	r3, fp
	movt	r0, #:upper16:.LC4
	mov	r2, #100
	mov	r1, r8
	bl	__assert_fail
.LVL168:
	ldr	r3, [sp, #8]
	b	.L58
.LVL169:
.L95:
.LBE413:
.LBE418:
.LBE421:
.LBE424:
.LBE427:
.LBE460:
.LBE464:
.LBE555:
.LBB556:
.LBB553:
.LBB550:
.LBB544:
.LBB540:
.LBB536:
.LBB532:
.LBB526:
	movw	r0, #:lower16:.LC4
	mov	r3, r6
	movt	r0, #:upper16:.LC4
	mov	r2, #100
	mov	r1, r5
	bl	__assert_fail
.LVL170:
	ldr	r3, [sp, #8]
	b	.L70
.LVL171:
.L93:
.LBE526:
.LBE532:
.LBE536:
.LBE540:
.LBE544:
.LBE550:
.LBB551:
.LBB512:
.LBB509:
.LBB505:
.LBB501:
.LBB495:
	movw	r0, #:lower16:.LC4
	mov	r3, r6
	movt	r0, #:upper16:.LC4
	mov	r2, #100
	mov	r1, r5
	bl	__assert_fail
.LVL172:
	ldr	r3, [sp, #8]
	b	.L67
.LVL173:
.L90:
.LBE495:
.LBE501:
.LBE505:
.LBE509:
.LBE512:
.LBE551:
.LBE553:
.LBE556:
.LBB557:
.LBB465:
.LBB461:
.LBB444:
.LBB443:
.LBB442:
.LBB441:
.LBB440:
	.loc 2 84 0
	movw	r1, #:lower16:.LC3
	movw	r0, #:lower16:.LC4
	ldr	r3, .L97+4
	movt	r1, #:upper16:.LC3
	movt	r0, #:upper16:.LC4
	mov	r2, #84
	bl	__assert_fail
.LVL174:
	ldr	r3, [sp, #8]
	b	.L61
.LVL175:
.L91:
.LBE440:
.LBE441:
.LBE442:
.LBE443:
.LBE444:
.LBE461:
.LBB462:
.LBB459:
.LBB458:
.LBB457:
.LBB456:
.LBB455:
	movw	r1, #:lower16:.LC3
	movw	r0, #:lower16:.LC4
	ldr	r3, .L97+4
	movt	r1, #:upper16:.LC3
	movt	r0, #:upper16:.LC4
	mov	r2, #84
	bl	__assert_fail
.LVL176:
	ldr	r3, [sp, #8]
	b	.L62
.LVL177:
.L92:
.LBE455:
.LBE456:
.LBE457:
.LBE458:
.LBE459:
.LBE462:
.LBE465:
.LBE557:
.LBB558:
.LBB554:
.LBB552:
.LBB481:
.LBB480:
.LBB479:
.LBB478:
.LBB477:
	movw	r1, #:lower16:.LC3
	movw	r0, #:lower16:.LC4
	ldr	r3, .L97+4
	movt	r1, #:upper16:.LC3
	movt	r0, #:upper16:.LC4
	mov	r2, #84
	bl	__assert_fail
.LVL178:
	ldr	r3, [sp, #8]
	b	.L66
.LVL179:
.L76:
.LBE477:
.LBE478:
.LBE479:
.LBE480:
.LBE481:
.LBE552:
.LBE554:
.LBE558:
	.loc 1 228 0
	mvn	r0, #0
.LVL180:
	b	.L63
.L98:
	.align	2
.L97:
	.word	.LANCHOR0+68
	.word	.LANCHOR0+80
	.cfi_endproc
.LFE55:
	.fnend
	.size	i2c_bb_start_write, .-i2c_bb_start_write
	.align	2
	.syntax unified
	.arm
	.type	i2c_bb_start_read, %function
i2c_bb_start_read:
	.fnstart
.LFB54:
	.loc 1 191 0
	.cfi_startproc
	@ args = 8, pretend = 0, frame = 40
	@ frame_needed = 0, uses_anonymous_args = 0
.LVL181:
	push	{r4, r5, r6, r7, r8, r9, r10, fp, lr}
	.save {r4, r5, r6, r7, r8, r9, r10, fp, lr}
	.cfi_def_cfa_offset 36
	.cfi_offset 4, -36
	.cfi_offset 5, -32
	.cfi_offset 6, -28
	.cfi_offset 7, -24
	.cfi_offset 8, -20
	.cfi_offset 9, -16
	.cfi_offset 10, -12
	.cfi_offset 11, -8
	.cfi_offset 14, -4
.LBB729:
.LBB730:
.LBB731:
.LBB732:
.LBB733:
.LBB734:
.LBB735:
.LBB736:
	.loc 2 100 0
	movw	r8, #:lower16:.LC3
.LBE736:
.LBE735:
.LBE734:
.LBE733:
.LBE732:
.LBE731:
.LBE730:
.LBE729:
	.loc 1 191 0
	.pad #44
	sub	sp, sp, #44
	.cfi_def_cfa_offset 80
	ldr	r4, [r0, #52]
	.loc 1 191 0
	mov	r7, r1
.LVL182:
	mov	r6, r2
	str	r0, [sp, #20]
.LVL183:
.LBB799:
.LBB795:
.LBB759:
.LBB755:
.LBB751:
.LBB747:
.LBB741:
.LBB737:
	.loc 2 100 0
	movt	r8, #:upper16:.LC3
	ldr	r9, .L186
.LBE737:
.LBE741:
.LBE747:
.LBE751:
.LBE755:
.LBE759:
.LBE795:
.LBE799:
	.loc 1 191 0
	str	r3, [sp, #12]
	b	.L102
.LVL184:
.L167:
.LBB800:
.LBB796:
.LBB760:
.LBB756:
.LBB752:
.LBB748:
.LBB742:
.LBB738:
	.loc 2 103 0
	ldrb	r3, [sp, #27]	@ zero_extendqisi2
.LVL185:
.LBE738:
.LBE742:
.LBE748:
.LBE752:
.LBE756:
.LBE760:
	.loc 1 88 0
	cmp	r3, #0
	bne	.L140
.LVL186:
.L102:
	ldr	r0, [r4, #12]
.LVL187:
.LBB761:
.LBB757:
.LBB753:
.LBB749:
.LBB743:
.LBB744:
	.loc 2 165 0
	add	r3, sp, #28
.LVL188:
	mov	r2, #1
	ldr	r1, [r4, #4]
	ldr	r5, [r0]
	blx	r5
.LVL189:
.LBE744:
.LBE743:
.LBB745:
.LBB739:
	.loc 2 100 0
	ldr	r3, [sp, #32]
	cmp	r3, #0
	beq	.L166
.L100:
	.loc 2 101 0
	mov	r2, #1
	add	r1, sp, #27
	add	r0, sp, #28
.LVL190:
	ldr	r3, [r3, #8]
	blx	r3
.LVL191:
	.loc 2 102 0
	cmp	r0, #1
	beq	.L167
.LVL192:
.L140:
.LBE739:
.LBE745:
.LBE749:
.LBE753:
.LBE757:
.LBE761:
.LBB762:
.LBB763:
	.loc 1 28 0
	movw	r0, #16960
	ldr	r1, [r4, #8]
	movt	r0, 15
	bl	__aeabi_idiv
.LVL193:
	add	r0, r0, #1
	bl	ps_udelay
.LVL194:
	ldr	r0, [r4, #12]
.LVL195:
.LBE763:
.LBE762:
.LBB764:
.LBB765:
.LBB766:
.LBB767:
.LBB768:
.LBB769:
	.loc 2 165 0
	add	r3, sp, #28
.LVL196:
	mov	r2, #0
	ldr	r1, [r4, #4]
	ldr	r5, [r0]
	blx	r5
.LVL197:
.LBE769:
.LBE768:
.LBB770:
.LBB771:
	.loc 2 84 0
	ldr	r3, [sp, #32]
	cmp	r3, #0
	beq	.L168
.L103:
	.loc 2 85 0
	mov	r5, #0
	.loc 2 86 0
	mov	r2, #1
	.loc 2 85 0
	strb	r5, [sp, #27]
	.loc 2 86 0
	add	r1, sp, #27
	ldr	r3, [r3, #4]
	add	r0, sp, #28
.LVL198:
	blx	r3
.LVL199:
.LBE771:
.LBE770:
.LBE767:
.LBE766:
.LBE765:
.LBE764:
.LBB777:
.LBB778:
	.loc 1 28 0
	movw	r0, #16960
	ldr	r1, [r4, #8]
	movt	r0, 15
	bl	__aeabi_idiv
.LVL200:
	add	r0, r0, #1
	bl	ps_udelay
.LVL201:
	ldr	r0, [r4, #12]
.LVL202:
.LBE778:
.LBE777:
.LBB779:
.LBB780:
.LBB781:
.LBB782:
.LBB783:
.LBB784:
	.loc 2 165 0
	mov	r2, r5
	add	r3, sp, #28
.LVL203:
	ldr	r1, [r4]
	ldr	r5, [r0]
	blx	r5
.LVL204:
.LBE784:
.LBE783:
.LBB785:
.LBB786:
	.loc 2 84 0
	ldr	r3, [sp, #32]
	cmp	r3, #0
	beq	.L169
.L104:
	.loc 2 85 0
	mov	r5, #0
	.loc 2 86 0
	mov	r2, #1
	.loc 2 85 0
	strb	r5, [sp, #27]
	.loc 2 86 0
	add	r1, sp, #27
	ldr	r3, [r3, #4]
	add	r0, sp, #28
.LVL205:
	blx	r3
.LVL206:
.LBE786:
.LBE785:
.LBE782:
.LBE781:
.LBE780:
.LBE779:
.LBE796:
.LBE800:
	.loc 1 199 0
	orr	r1, r7, #1
	mov	r0, r4
	uxtb	r1, r1
	bl	i2c_bb_sendbyte
.LVL207:
	.loc 1 200 0
	cmp	r0, #0
	bne	.L105
.LVL208:
	.loc 1 205 0 discriminator 1
	ldr	r3, [sp, #12]
	cmp	r3, r5
	beq	.L107
.LBB801:
.LBB802:
.LBB803:
.LBB804:
.LBB805:
.LBB806:
.LBB807:
.LBB808:
.LBB809:
.LBB810:
	.loc 2 100 0 discriminator 3
	movw	r3, #:lower16:.LC3
.LBE810:
.LBE809:
.LBE808:
.LBE807:
.LBE806:
.LBE805:
.LBE804:
.LBE803:
	.loc 1 158 0 discriminator 3
	mov	fp, r0
	sub	r2, r6, #1
.LBB936:
.LBB927:
.LBB853:
.LBB845:
.LBB837:
.LBB829:
.LBB818:
.LBB811:
	.loc 2 100 0 discriminator 3
	movt	r3, #:upper16:.LC3
.LBE811:
.LBE818:
.LBE829:
.LBE837:
.LBE845:
.LBE853:
.LBE927:
.LBE936:
.LBE802:
.LBE801:
	.loc 1 205 0 discriminator 3
	str	r0, [sp, #8]
	str	r2, [sp, #16]
.LBB1025:
.LBB1019:
.LBB937:
.LBB928:
.LBB854:
.LBB846:
.LBB838:
.LBB830:
.LBB819:
.LBB812:
	.loc 2 100 0 discriminator 3
	str	r3, [sp, #4]
.LVL209:
.L132:
.LBE812:
.LBE819:
.LBE830:
.LBE838:
.LBE846:
.LBE854:
.LBE928:
.LBE937:
.LBE1019:
.LBE1025:
	.loc 1 206 0 discriminator 3
	ldr	r3, [sp, #8]
.LBB1026:
.LBB1020:
.LBB938:
.LBB929:
.LBB855:
.LBB847:
.LBB839:
.LBB831:
.LBB820:
.LBB813:
	.loc 2 100 0 discriminator 3
	movw	r10, #:lower16:.LC4
.LBE813:
.LBE820:
.LBE831:
.LBE839:
.LBE847:
.LBE855:
.LBB856:
.LBB857:
	.loc 1 28 0 discriminator 3
	movw	r8, #16960
.LBE857:
.LBE856:
.LBB860:
.LBB848:
.LBB840:
.LBB832:
.LBB821:
.LBB814:
	.loc 2 100 0 discriminator 3
	movt	r10, #:upper16:.LC4
.LBE814:
.LBE821:
.LBE832:
.LBE840:
.LBE848:
.LBE860:
.LBB861:
.LBB858:
	.loc 1 28 0 discriminator 3
	movt	r8, 15
.LBE858:
.LBE861:
.LBE929:
.LBE938:
.LBE1020:
.LBE1026:
	.loc 1 206 0 discriminator 3
	mov	r7, #8
.LBB1027:
.LBB1021:
	.loc 1 158 0 discriminator 3
	mov	r5, #0
.LBE1021:
.LBE1027:
	.loc 1 206 0 discriminator 3
	add	r3, r3, #1
	str	r3, [sp, #8]
.LVL210:
.L123:
	ldr	r0, [r4, #12]
.LBB1028:
.LBB1022:
.LBB939:
.LBB930:
.LBB862:
.LBB849:
.LBB841:
.LBB833:
.LBB822:
.LBB823:
	.loc 2 165 0
	add	r3, sp, #28
	ldr	r1, [r4, #4]
	mov	r2, #1
.LBE823:
.LBE822:
.LBE833:
.LBE841:
.LBE849:
.LBE862:
.LBE930:
.LBE939:
	.loc 1 160 0
	lsl	r5, r5, #1
.LVL211:
.LBB940:
.LBB931:
.LBB863:
.LBB850:
.LBB842:
.LBB834:
.LBB825:
.LBB824:
	.loc 2 165 0
	ldr	r6, [r0]
	blx	r6
.LVL212:
.LBE824:
.LBE825:
.LBB826:
.LBB815:
	.loc 2 100 0
	ldr	r3, [sp, #32]
.LBE815:
.LBE826:
.LBE834:
.LBE842:
.LBE850:
.LBE863:
.LBE931:
.LBE940:
	.loc 1 160 0
	uxtb	r5, r5
.LVL213:
.LBB941:
.LBB932:
.LBB864:
.LBB851:
.LBB843:
.LBB835:
.LBB827:
.LBB816:
	.loc 2 100 0
	cmp	r3, #0
	beq	.L170
.L116:
	.loc 2 101 0
	ldr	r3, [r3, #8]
	mov	r2, #1
	add	r1, sp, #27
	add	r0, sp, #28
.LVL214:
	blx	r3
.LVL215:
.LBE816:
.LBE827:
.LBE835:
.LBE843:
.LBE851:
.LBE864:
.LBB865:
.LBB859:
	.loc 1 28 0
	ldr	r1, [r4, #8]
	mov	r0, r8
	bl	__aeabi_idiv
.LVL216:
	add	r0, r0, #1
	bl	ps_udelay
.LVL217:
	b	.L119
.LVL218:
.L172:
.LBE859:
.LBE865:
.LBB866:
.LBB867:
.LBB868:
.LBB869:
.LBB870:
.LBB871:
	.loc 2 103 0
	ldrb	r3, [sp, #27]	@ zero_extendqisi2
.LVL219:
.LBE871:
.LBE870:
.LBE869:
.LBE868:
	.loc 1 72 0
	cmp	r3, #0
	bne	.L143
.LVL220:
.L119:
	ldr	r0, [r4, #12]
.LVL221:
.LBB880:
.LBB878:
.LBB874:
.LBB875:
	.loc 2 165 0
	add	r3, sp, #28
.LVL222:
	mov	r2, #1
	ldr	r1, [r4]
	ldr	r6, [r0]
	blx	r6
.LVL223:
.LBE875:
.LBE874:
.LBB876:
.LBB872:
	.loc 2 100 0
	ldr	r3, [sp, #32]
	cmp	r3, #0
	beq	.L171
.L117:
	.loc 2 101 0
	mov	r2, #1
	add	r1, sp, #27
	add	r0, sp, #28
.LVL224:
	ldr	r3, [r3, #8]
	blx	r3
.LVL225:
	.loc 2 102 0
	cmp	r0, #1
	beq	.L172
.LVL226:
.L143:
	ldr	r0, [r4, #12]
.LVL227:
.LBE872:
.LBE876:
.LBE878:
.LBE880:
.LBE867:
.LBE866:
.LBB883:
.LBB884:
.LBB885:
.LBB886:
.LBB887:
.LBB888:
	.loc 2 165 0
	add	r3, sp, #28
.LVL228:
	mov	r2, #1
	ldr	r1, [r4, #4]
	ldr	r6, [r0]
	blx	r6
.LVL229:
.LBE888:
.LBE887:
.LBB889:
.LBB890:
	.loc 2 100 0
	ldr	r3, [sp, #32]
	cmp	r3, #0
	beq	.L173
.L120:
	.loc 2 101 0
	ldr	r3, [r3, #8]
	mov	r2, #1
	add	r1, sp, #27
	add	r0, sp, #28
.LVL230:
	blx	r3
.LVL231:
	.loc 2 102 0
	cmp	r0, #1
	bne	.L147
	ldrb	r6, [sp, #27]	@ zero_extendqisi2
	adds	r6, r6, #0
	movne	r6, #1
.L121:
.LBE890:
.LBE889:
.LBE886:
.LBE885:
.LBE884:
.LBE883:
.LBB901:
.LBB902:
	.loc 1 28 0
	ldr	r1, [r4, #8]
	mov	r0, r8
.LVL232:
	bl	__aeabi_idiv
.LVL233:
	add	r0, r0, #1
	sxtb	r6, r6
.LVL234:
	bl	ps_udelay
.LVL235:
	ldr	r0, [r4, #12]
.LVL236:
.LBE902:
.LBE901:
.LBB903:
.LBB904:
.LBB905:
.LBB906:
.LBB907:
.LBB908:
	.loc 2 165 0
	add	r3, sp, #28
.LVL237:
	mov	r2, #0
	ldr	r1, [r4]
	ldr	r9, [r0]
	blx	r9
.LVL238:
.LBE908:
.LBE907:
.LBB909:
.LBB910:
	.loc 2 84 0
	ldr	r3, [sp, #32]
	cmp	r3, #0
	beq	.L174
.L122:
	.loc 2 85 0
	strb	fp, [sp, #27]
	.loc 2 86 0
	mov	r2, #1
	ldr	r3, [r3, #4]
	add	r1, sp, #27
	add	r0, sp, #28
.LVL239:
.LBE910:
.LBE909:
.LBE906:
.LBE905:
.LBE904:
.LBE903:
.LBE932:
.LBE941:
	.loc 1 161 0
	orr	r5, r6, r5
.LVL240:
.LBB942:
.LBB933:
.LBB921:
.LBB919:
.LBB917:
.LBB915:
.LBB913:
.LBB911:
	.loc 2 86 0
	blx	r3
.LVL241:
.LBE911:
.LBE913:
.LBE915:
.LBE917:
.LBE919:
.LBE921:
.LBE933:
.LBE942:
	.loc 1 159 0
	subs	r7, r7, #1
.LVL242:
	bne	.L123
.LVL243:
.LBB943:
.LBB944:
	.loc 1 112 0
	ldr	r3, [sp, #12]
	ldr	r2, [sp, #8]
	ldr	r0, [r4, #12]
	cmp	r3, r2
	beq	.L175
.LVL244:
.LBB945:
.LBB946:
.LBB947:
.LBB948:
.LBB949:
.LBB950:
	.loc 2 165 0
	add	r3, sp, #28
.LVL245:
	mov	r2, r7
	ldr	r1, [r4, #4]
	ldr	r6, [r0]
	blx	r6
.LVL246:
.LBE950:
.LBE949:
.LBB951:
.LBB952:
	.loc 2 84 0
	ldr	r3, [sp, #32]
	cmp	r3, #0
	beq	.L176
.L127:
	.loc 2 85 0
	strb	fp, [sp, #27]
	.loc 2 86 0
	mov	r2, #1
	ldr	r3, [r3, #4]
	add	r1, sp, #27
	add	r0, sp, #28
.LVL247:
	blx	r3
.LVL248:
.L126:
.LBE952:
.LBE951:
.LBE948:
.LBE947:
.LBE946:
.LBE945:
.LBB958:
.LBB959:
	.loc 1 28 0
	movw	r0, #16960
	ldr	r1, [r4, #8]
	movt	r0, 15
	bl	__aeabi_idiv
.LVL249:
	add	r0, r0, #1
	bl	ps_udelay
.LVL250:
	b	.L130
.LVL251:
.L178:
.LBE959:
.LBE958:
.LBB960:
.LBB961:
.LBB962:
.LBB963:
.LBB964:
.LBB965:
	.loc 2 103 0
	ldrb	r3, [sp, #27]	@ zero_extendqisi2
.LVL252:
.LBE965:
.LBE964:
.LBE963:
.LBE962:
	.loc 1 72 0
	cmp	r3, #0
	bne	.L144
.LVL253:
.L130:
	ldr	r0, [r4, #12]
.LVL254:
.LBB974:
.LBB972:
.LBB968:
.LBB969:
	.loc 2 165 0
	add	r3, sp, #28
.LVL255:
	mov	r2, #1
	ldr	r1, [r4]
	ldr	r6, [r0]
	blx	r6
.LVL256:
.LBE969:
.LBE968:
.LBB970:
.LBB966:
	.loc 2 100 0
	ldr	r3, [sp, #32]
	cmp	r3, #0
	beq	.L177
.L128:
	.loc 2 101 0
	mov	r2, #1
	add	r1, sp, #27
	add	r0, sp, #28
.LVL257:
	ldr	r3, [r3, #8]
	blx	r3
.LVL258:
	.loc 2 102 0
	cmp	r0, #1
	beq	.L178
.LVL259:
.L144:
.LBE966:
.LBE970:
.LBE972:
.LBE974:
.LBE961:
.LBE960:
.LBB977:
.LBB978:
	.loc 1 28 0
	movw	r0, #16960
	ldr	r1, [r4, #8]
	movt	r0, 15
	bl	__aeabi_idiv
.LVL260:
	add	r0, r0, #1
	bl	ps_udelay
.LVL261:
	ldr	r0, [r4, #12]
.LVL262:
.LBE978:
.LBE977:
.LBB979:
.LBB980:
.LBB981:
.LBB982:
.LBB983:
.LBB984:
	.loc 2 165 0
	add	r3, sp, #28
.LVL263:
	mov	r2, #0
	ldr	r1, [r4]
	ldr	r6, [r0]
	blx	r6
.LVL264:
.LBE984:
.LBE983:
.LBB985:
.LBB986:
	.loc 2 84 0
	ldr	r3, [sp, #32]
	cmp	r3, #0
	beq	.L179
.L131:
	.loc 2 85 0
	strb	fp, [sp, #27]
	.loc 2 86 0
	mov	r2, #1
	ldr	r3, [r3, #4]
	add	r1, sp, #27
	add	r0, sp, #28
.LVL265:
	blx	r3
.LVL266:
.LBE986:
.LBE985:
.LBE982:
.LBE981:
.LBE980:
.LBE979:
.LBE944:
.LBE943:
.LBE1022:
.LBE1028:
	.loc 1 205 0
	ldr	r3, [sp, #8]
	ldr	r2, [sp, #12]
	cmp	r3, r2
	.loc 1 206 0
	ldr	r3, [sp, #16]
	strb	r5, [r3, #1]!
	str	r3, [sp, #16]
.LVL267:
	.loc 1 205 0
	bne	.L132
.LVL268:
.L107:
	ldr	r0, [r4, #12]
.LVL269:
.LBB1029:
.LBB1030:
.LBB1031:
.LBB1032:
.LBB1033:
.LBB1034:
.LBB1035:
.LBB1036:
	.loc 2 165 0
	add	r3, sp, #28
.LVL270:
	mov	r2, #0
	ldr	r1, [r4, #4]
	ldr	r5, [r0]
	blx	r5
.LVL271:
.LBE1036:
.LBE1035:
.LBB1037:
.LBB1038:
	.loc 2 84 0
	ldr	r3, [sp, #32]
	cmp	r3, #0
	beq	.L180
.L133:
	.loc 2 85 0
	mov	r1, #0
	.loc 2 86 0
	mov	r2, #1
	.loc 2 85 0
	strb	r1, [sp, #27]
	.loc 2 86 0
	add	r0, sp, #28
.LVL272:
	add	r1, sp, #27
	ldr	r3, [r3, #4]
	blx	r3
.LVL273:
.LBE1038:
.LBE1037:
.LBE1034:
.LBE1033:
.LBE1032:
.LBE1031:
.LBB1044:
.LBB1045:
	.loc 1 28 0
	movw	r0, #16960
	ldr	r1, [r4, #8]
	movt	r0, 15
.LBE1045:
.LBE1044:
.LBB1048:
.LBB1049:
.LBB1050:
.LBB1051:
.LBB1052:
.LBB1053:
	.loc 2 100 0
	movw	r5, #:lower16:.LC3
.LBE1053:
.LBE1052:
.LBE1051:
.LBE1050:
.LBE1049:
.LBE1048:
.LBB1075:
.LBB1046:
	.loc 1 28 0
	bl	__aeabi_idiv
.LVL274:
	add	r0, r0, #1
.LBE1046:
.LBE1075:
.LBB1076:
.LBB1072:
.LBB1068:
.LBB1064:
.LBB1058:
.LBB1054:
	.loc 2 100 0
	ldr	r6, .L186
	movt	r5, #:upper16:.LC3
.LBE1054:
.LBE1058:
.LBE1064:
.LBE1068:
.LBE1072:
.LBE1076:
.LBB1077:
.LBB1047:
	.loc 1 28 0
	bl	ps_udelay
.LVL275:
	b	.L136
.LVL276:
.L182:
.LBE1047:
.LBE1077:
.LBB1078:
.LBB1073:
.LBB1069:
.LBB1065:
.LBB1059:
.LBB1055:
	.loc 2 103 0
	ldrb	r3, [sp, #27]	@ zero_extendqisi2
.LVL277:
.LBE1055:
.LBE1059:
.LBE1065:
.LBE1069:
	.loc 1 72 0
	cmp	r3, #0
	bne	.L145
.LVL278:
.L136:
	ldr	r0, [r4, #12]
.LVL279:
.LBB1070:
.LBB1066:
.LBB1060:
.LBB1061:
	.loc 2 165 0
	add	r3, sp, #28
.LVL280:
	mov	r2, #1
	ldr	r1, [r4]
	ldr	r7, [r0]
	blx	r7
.LVL281:
.LBE1061:
.LBE1060:
.LBB1062:
.LBB1056:
	.loc 2 100 0
	ldr	r3, [sp, #32]
	cmp	r3, #0
	beq	.L181
.L134:
	.loc 2 101 0
	mov	r2, #1
	add	r1, sp, #27
	add	r0, sp, #28
.LVL282:
	ldr	r3, [r3, #8]
	blx	r3
.LVL283:
	.loc 2 102 0
	cmp	r0, #1
	beq	.L182
.LVL284:
.L145:
.LBE1056:
.LBE1062:
.LBE1066:
.LBE1070:
.LBE1073:
.LBE1078:
.LBB1079:
.LBB1080:
.LBB1081:
.LBB1082:
.LBB1083:
.LBB1084:
	.loc 2 100 0
	movw	r5, #:lower16:.LC3
.LBE1084:
.LBE1083:
.LBE1082:
.LBE1081:
.LBE1080:
.LBE1079:
	.loc 1 102 0
	mov	r0, #1000
.LBB1107:
.LBB1103:
.LBB1099:
.LBB1095:
.LBB1089:
.LBB1085:
	.loc 2 100 0
	ldr	r6, .L186
	movt	r5, #:upper16:.LC3
.LBE1085:
.LBE1089:
.LBE1095:
.LBE1099:
.LBE1103:
.LBE1107:
	.loc 1 102 0
	bl	ps_udelay
.LVL285:
	b	.L139
.LVL286:
.L184:
.LBB1108:
.LBB1104:
.LBB1100:
.LBB1096:
.LBB1090:
.LBB1086:
	.loc 2 103 0
	ldrb	r3, [sp, #27]	@ zero_extendqisi2
.LVL287:
.LBE1086:
.LBE1090:
.LBE1096:
.LBE1100:
.LBE1104:
.LBE1108:
	.loc 1 103 0
	cmp	r3, #0
	bne	.L146
.LVL288:
.L139:
	ldr	r0, [r4, #12]
.LVL289:
.LBB1109:
.LBB1105:
.LBB1101:
.LBB1097:
.LBB1091:
.LBB1092:
	.loc 2 165 0
	add	r3, sp, #28
.LVL290:
	mov	r2, #1
	ldr	r1, [r4, #4]
	ldr	r7, [r0]
	blx	r7
.LVL291:
.LBE1092:
.LBE1091:
.LBB1093:
.LBB1087:
	.loc 2 100 0
	ldr	r3, [sp, #32]
	cmp	r3, #0
	beq	.L183
.L137:
	.loc 2 101 0
	mov	r2, #1
	add	r1, sp, #27
	add	r0, sp, #28
.LVL292:
	ldr	r3, [r3, #8]
	blx	r3
.LVL293:
	.loc 2 102 0
	cmp	r0, #1
	beq	.L184
.LVL294:
.L146:
.LBE1087:
.LBE1093:
.LBE1097:
.LBE1101:
.LBE1105:
.LBE1109:
.LBB1110:
.LBB1111:
	.loc 1 28 0
	movw	r0, #16960
	ldr	r1, [r4, #8]
	movt	r0, 15
	bl	__aeabi_idiv
.LVL295:
	add	r0, r0, #1
	bl	ps_udelay
.LVL296:
.LBE1111:
.LBE1110:
.LBE1030:
.LBE1029:
	.loc 1 210 0
	ldr	r3, [sp, #80]
	cmp	r3, #0
	beq	.L148
	.loc 1 211 0
	ldr	r4, [sp, #12]
.LVL297:
	mov	r1, #0
	ldr	r0, [sp, #20]
	ldr	r3, [sp, #84]
	mov	r2, r4
	ldr	ip, [sp, #80]
	blx	ip
.LVL298:
	mov	r0, r4
.L115:
	.loc 1 214 0
	add	sp, sp, #44
	.cfi_remember_state
	.cfi_def_cfa_offset 36
	@ sp needed
	pop	{r4, r5, r6, r7, r8, r9, r10, fp, pc}
.LVL299:
.L171:
	.cfi_restore_state
.LBB1117:
.LBB1023:
.LBB1014:
.LBB934:
.LBB922:
.LBB882:
.LBB881:
.LBB879:
.LBB877:
.LBB873:
	.loc 2 100 0
	ldr	r3, .L186
	mov	r2, #100
	ldr	r1, [sp, #4]
	mov	r0, r10
	bl	__assert_fail
.LVL300:
	ldr	r3, [sp, #32]
	b	.L117
.LVL301:
.L174:
.LBE873:
.LBE877:
.LBE879:
.LBE881:
.LBE882:
.LBE922:
.LBB923:
.LBB920:
.LBB918:
.LBB916:
.LBB914:
.LBB912:
	.loc 2 84 0
	ldr	r3, .L186+4
	mov	r2, #84
	ldr	r1, [sp, #4]
	mov	r0, r10
	bl	__assert_fail
.LVL302:
	ldr	r3, [sp, #32]
	b	.L122
.LVL303:
.L147:
.LBE912:
.LBE914:
.LBE916:
.LBE918:
.LBE920:
.LBE923:
.LBB924:
.LBB899:
.LBB897:
.LBB895:
.LBB893:
.LBB891:
	.loc 2 102 0
	mov	r6, #1
	b	.L121
.LVL304:
.L177:
.LBE891:
.LBE893:
.LBE895:
.LBE897:
.LBE899:
.LBE924:
.LBE934:
.LBE1014:
.LBB1015:
.LBB1011:
.LBB992:
.LBB976:
.LBB975:
.LBB973:
.LBB971:
.LBB967:
	.loc 2 100 0
	movw	r0, #:lower16:.LC4
	ldr	r3, .L186
	movt	r0, #:upper16:.LC4
	mov	r2, #100
	ldr	r1, [sp, #4]
	bl	__assert_fail
.LVL305:
	ldr	r3, [sp, #32]
	b	.L128
.LVL306:
.L173:
.LBE967:
.LBE971:
.LBE973:
.LBE975:
.LBE976:
.LBE992:
.LBE1011:
.LBE1015:
.LBB1016:
.LBB935:
.LBB925:
.LBB900:
.LBB898:
.LBB896:
.LBB894:
.LBB892:
	ldr	r3, .L186
	mov	r2, #100
	ldr	r1, [sp, #4]
	mov	r0, r10
	bl	__assert_fail
.LVL307:
	ldr	r3, [sp, #32]
	b	.L120
.LVL308:
.L170:
.LBE892:
.LBE894:
.LBE896:
.LBE898:
.LBE900:
.LBE925:
.LBB926:
.LBB852:
.LBB844:
.LBB836:
.LBB828:
.LBB817:
	ldr	r3, .L186
	mov	r2, #100
	ldr	r1, [sp, #4]
	mov	r0, r10
	bl	__assert_fail
.LVL309:
	ldr	r3, [sp, #32]
	b	.L116
.LVL310:
.L175:
.LBE817:
.LBE828:
.LBE836:
.LBE844:
.LBE852:
.LBE926:
.LBE935:
.LBE1016:
.LBB1017:
.LBB1012:
.LBB993:
.LBB994:
.LBB995:
.LBB996:
.LBB997:
.LBB998:
.LBB999:
	.loc 2 165 0
	add	r3, sp, #28
.LVL311:
	mov	r2, #1
	ldr	r1, [r4, #4]
	ldr	r6, [r0]
	blx	r6
.LVL312:
.LBE999:
.LBE998:
.LBB1000:
.LBB1001:
	.loc 2 100 0
	ldr	r3, [sp, #32]
	cmp	r3, #0
	beq	.L185
.L125:
	.loc 2 101 0
	ldr	r3, [r3, #8]
	mov	r2, #1
	add	r1, sp, #27
	add	r0, sp, #28
.LVL313:
	blx	r3
.LVL314:
	b	.L126
.LVL315:
.L179:
.LBE1001:
.LBE1000:
.LBE997:
.LBE996:
.LBE995:
.LBE994:
.LBE993:
.LBB1008:
.LBB991:
.LBB990:
.LBB989:
.LBB988:
.LBB987:
	.loc 2 84 0
	movw	r0, #:lower16:.LC4
	ldr	r3, .L186+4
	movt	r0, #:upper16:.LC4
	mov	r2, #84
	ldr	r1, [sp, #4]
	bl	__assert_fail
.LVL316:
	ldr	r3, [sp, #32]
	b	.L131
.LVL317:
.L166:
.LBE987:
.LBE988:
.LBE989:
.LBE990:
.LBE991:
.LBE1008:
.LBE1012:
.LBE1017:
.LBE1023:
.LBE1117:
.LBB1118:
.LBB797:
.LBB792:
.LBB758:
.LBB754:
.LBB750:
.LBB746:
.LBB740:
	.loc 2 100 0
	movw	r0, #:lower16:.LC4
	mov	r3, r9
	movt	r0, #:upper16:.LC4
	mov	r2, #100
	mov	r1, r8
	bl	__assert_fail
.LVL318:
	ldr	r3, [sp, #32]
	b	.L100
.LVL319:
.L183:
.LBE740:
.LBE746:
.LBE750:
.LBE754:
.LBE758:
.LBE792:
.LBE797:
.LBE1118:
.LBB1119:
.LBB1115:
.LBB1112:
.LBB1106:
.LBB1102:
.LBB1098:
.LBB1094:
.LBB1088:
	movw	r0, #:lower16:.LC4
	mov	r3, r6
	movt	r0, #:upper16:.LC4
	mov	r2, #100
	mov	r1, r5
	bl	__assert_fail
.LVL320:
	ldr	r3, [sp, #32]
	b	.L137
.LVL321:
.L181:
.LBE1088:
.LBE1094:
.LBE1098:
.LBE1102:
.LBE1106:
.LBE1112:
.LBB1113:
.LBB1074:
.LBB1071:
.LBB1067:
.LBB1063:
.LBB1057:
	movw	r0, #:lower16:.LC4
	mov	r3, r6
	movt	r0, #:upper16:.LC4
	mov	r2, #100
	mov	r1, r5
	bl	__assert_fail
.LVL322:
	ldr	r3, [sp, #32]
	b	.L134
.LVL323:
.L176:
.LBE1057:
.LBE1063:
.LBE1067:
.LBE1071:
.LBE1074:
.LBE1113:
.LBE1115:
.LBE1119:
.LBB1120:
.LBB1024:
.LBB1018:
.LBB1013:
.LBB1009:
.LBB957:
.LBB956:
.LBB955:
.LBB954:
.LBB953:
	.loc 2 84 0
	movw	r0, #:lower16:.LC4
	ldr	r3, .L186+4
	movt	r0, #:upper16:.LC4
	mov	r2, #84
	ldr	r1, [sp, #4]
	bl	__assert_fail
.LVL324:
	ldr	r3, [sp, #32]
	b	.L127
.LVL325:
.L185:
.LBE953:
.LBE954:
.LBE955:
.LBE956:
.LBE957:
.LBE1009:
.LBB1010:
.LBB1007:
.LBB1006:
.LBB1005:
.LBB1004:
.LBB1003:
.LBB1002:
	.loc 2 100 0
	movw	r0, #:lower16:.LC4
	ldr	r3, .L186
	movt	r0, #:upper16:.LC4
	mov	r2, #100
	ldr	r1, [sp, #4]
	bl	__assert_fail
.LVL326:
	ldr	r3, [sp, #32]
	b	.L125
.LVL327:
.L148:
.LBE1002:
.LBE1003:
.LBE1004:
.LBE1005:
.LBE1006:
.LBE1007:
.LBE1010:
.LBE1013:
.LBE1018:
.LBE1024:
.LBE1120:
	ldr	r0, [sp, #12]
	.loc 1 214 0
	add	sp, sp, #44
	.cfi_remember_state
	.cfi_def_cfa_offset 36
	@ sp needed
	pop	{r4, r5, r6, r7, r8, r9, r10, fp, pc}
.LVL328:
.L180:
	.cfi_restore_state
.LBB1121:
.LBB1116:
.LBB1114:
.LBB1043:
.LBB1042:
.LBB1041:
.LBB1040:
.LBB1039:
	.loc 2 84 0
	movw	r1, #:lower16:.LC3
	movw	r0, #:lower16:.LC4
	ldr	r3, .L186+4
	movt	r1, #:upper16:.LC3
	movt	r0, #:upper16:.LC4
	mov	r2, #84
	bl	__assert_fail
.LVL329:
	ldr	r3, [sp, #32]
	b	.L133
.LVL330:
.L168:
.LBE1039:
.LBE1040:
.LBE1041:
.LBE1042:
.LBE1043:
.LBE1114:
.LBE1116:
.LBE1121:
.LBB1122:
.LBB798:
.LBB793:
.LBB776:
.LBB775:
.LBB774:
.LBB773:
.LBB772:
	movw	r1, #:lower16:.LC3
	movw	r0, #:lower16:.LC4
	ldr	r3, .L186+4
	movt	r1, #:upper16:.LC3
	movt	r0, #:upper16:.LC4
	mov	r2, #84
	bl	__assert_fail
.LVL331:
	ldr	r3, [sp, #32]
	b	.L103
.LVL332:
.L169:
.LBE772:
.LBE773:
.LBE774:
.LBE775:
.LBE776:
.LBE793:
.LBB794:
.LBB791:
.LBB790:
.LBB789:
.LBB788:
.LBB787:
	movw	r1, #:lower16:.LC3
	movw	r0, #:lower16:.LC4
	ldr	r3, .L186+4
	movt	r1, #:upper16:.LC3
	movt	r0, #:upper16:.LC4
	mov	r2, #84
	bl	__assert_fail
.LVL333:
	ldr	r3, [sp, #32]
	b	.L104
.LVL334:
.L105:
	ldr	r0, [r4, #12]
.LVL335:
.LBE787:
.LBE788:
.LBE789:
.LBE790:
.LBE791:
.LBE794:
.LBE798:
.LBE1122:
.LBB1123:
.LBB1124:
.LBB1125:
.LBB1126:
.LBB1127:
.LBB1128:
.LBB1129:
.LBB1130:
	.loc 2 165 0
	mov	r2, r5
	add	r3, sp, #28
.LVL336:
	ldr	r1, [r4, #4]
	ldr	r5, [r0]
	blx	r5
.LVL337:
.LBE1130:
.LBE1129:
.LBB1131:
.LBB1132:
	.loc 2 84 0
	ldr	r3, [sp, #32]
	cmp	r3, #0
	bne	.L108
	movw	r1, #:lower16:.LC3
	movw	r0, #:lower16:.LC4
	ldr	r3, .L186+4
	movt	r1, #:upper16:.LC3
	movt	r0, #:upper16:.LC4
	mov	r2, #84
	bl	__assert_fail
.LVL338:
	ldr	r3, [sp, #32]
.L108:
	.loc 2 85 0
	mov	r1, #0
	.loc 2 86 0
	mov	r2, #1
	.loc 2 85 0
	strb	r1, [sp, #27]
	.loc 2 86 0
	add	r0, sp, #28
.LVL339:
	add	r1, sp, #27
	ldr	r3, [r3, #4]
	blx	r3
.LVL340:
.LBE1132:
.LBE1131:
.LBE1128:
.LBE1127:
.LBE1126:
.LBE1125:
.LBB1133:
.LBB1134:
	.loc 1 28 0
	movw	r0, #16960
	ldr	r1, [r4, #8]
	movt	r0, 15
.LBE1134:
.LBE1133:
.LBB1137:
.LBB1138:
.LBB1139:
.LBB1140:
.LBB1141:
.LBB1142:
	.loc 2 100 0
	movw	r5, #:lower16:.LC3
.LBE1142:
.LBE1141:
.LBE1140:
.LBE1139:
.LBE1138:
.LBE1137:
.LBB1159:
.LBB1135:
	.loc 1 28 0
	bl	__aeabi_idiv
.LVL341:
	add	r0, r0, #1
.LBE1135:
.LBE1159:
.LBB1160:
.LBB1157:
.LBB1154:
.LBB1151:
.LBB1146:
.LBB1143:
	.loc 2 100 0
	ldr	r6, .L186
.LVL342:
	movt	r5, #:upper16:.LC3
.LBE1143:
.LBE1146:
.LBE1151:
.LBE1154:
.LBE1157:
.LBE1160:
.LBB1161:
.LBB1136:
	.loc 1 28 0
	bl	ps_udelay
.LVL343:
	b	.L111
.LVL344:
.L109:
.LBE1136:
.LBE1161:
.LBB1162:
.LBB1158:
.LBB1155:
.LBB1152:
.LBB1147:
.LBB1144:
	.loc 2 101 0
	mov	r2, #1
	add	r1, sp, #27
	add	r0, sp, #28
.LVL345:
	ldr	r3, [r3, #8]
	blx	r3
.LVL346:
	.loc 2 102 0
	cmp	r0, #1
	bne	.L141
	.loc 2 103 0
	ldrb	r3, [sp, #27]	@ zero_extendqisi2
.LVL347:
.LBE1144:
.LBE1147:
.LBE1152:
.LBE1155:
	.loc 1 72 0
	cmp	r3, #0
	bne	.L141
.LVL348:
.L111:
	ldr	r0, [r4, #12]
.LVL349:
.LBB1156:
.LBB1153:
.LBB1148:
.LBB1149:
	.loc 2 165 0
	add	r3, sp, #28
.LVL350:
	mov	r2, #1
	ldr	r1, [r4]
	ldr	r7, [r0]
	blx	r7
.LVL351:
.LBE1149:
.LBE1148:
.LBB1150:
.LBB1145:
	.loc 2 100 0
	ldr	r3, [sp, #32]
	cmp	r3, #0
	bne	.L109
	movw	r0, #:lower16:.LC4
	mov	r3, r6
	movt	r0, #:upper16:.LC4
	mov	r2, #100
	mov	r1, r5
	bl	__assert_fail
.LVL352:
	ldr	r3, [sp, #32]
	b	.L109
.LVL353:
.L141:
.LBE1145:
.LBE1150:
.LBE1153:
.LBE1156:
.LBE1158:
.LBE1162:
.LBB1163:
.LBB1164:
.LBB1165:
.LBB1166:
.LBB1167:
.LBB1168:
	movw	r5, #:lower16:.LC3
.LBE1168:
.LBE1167:
.LBE1166:
.LBE1165:
.LBE1164:
.LBE1163:
	.loc 1 102 0
	mov	r0, #1000
.LBB1186:
.LBB1183:
.LBB1180:
.LBB1177:
.LBB1172:
.LBB1169:
	.loc 2 100 0
	ldr	r6, .L186
	movt	r5, #:upper16:.LC3
.LBE1169:
.LBE1172:
.LBE1177:
.LBE1180:
.LBE1183:
.LBE1186:
	.loc 1 102 0
	bl	ps_udelay
.LVL354:
	b	.L114
.LVL355:
.L112:
.LBB1187:
.LBB1184:
.LBB1181:
.LBB1178:
.LBB1173:
.LBB1170:
	.loc 2 101 0
	mov	r2, #1
	add	r1, sp, #27
	add	r0, sp, #28
.LVL356:
	ldr	r3, [r3, #8]
	blx	r3
.LVL357:
	.loc 2 102 0
	cmp	r0, #1
	bne	.L142
	.loc 2 103 0
	ldrb	r3, [sp, #27]	@ zero_extendqisi2
.LVL358:
.LBE1170:
.LBE1173:
.LBE1178:
.LBE1181:
.LBE1184:
.LBE1187:
	.loc 1 103 0
	cmp	r3, #0
	bne	.L142
.LVL359:
.L114:
	ldr	r0, [r4, #12]
.LVL360:
.LBB1188:
.LBB1185:
.LBB1182:
.LBB1179:
.LBB1174:
.LBB1175:
	.loc 2 165 0
	add	r3, sp, #28
.LVL361:
	mov	r2, #1
	ldr	r1, [r4, #4]
	ldr	r7, [r0]
	blx	r7
.LVL362:
.LBE1175:
.LBE1174:
.LBB1176:
.LBB1171:
	.loc 2 100 0
	ldr	r3, [sp, #32]
	cmp	r3, #0
	bne	.L112
	movw	r0, #:lower16:.LC4
	mov	r3, r6
	movt	r0, #:upper16:.LC4
	mov	r2, #100
	mov	r1, r5
	bl	__assert_fail
.LVL363:
	ldr	r3, [sp, #32]
	b	.L112
.LVL364:
.L142:
.LBE1171:
.LBE1176:
.LBE1179:
.LBE1182:
.LBE1185:
.LBE1188:
.LBB1189:
.LBB1190:
	.loc 1 28 0
	movw	r0, #16960
	ldr	r1, [r4, #8]
	movt	r0, 15
	bl	__aeabi_idiv
.LVL365:
	add	r0, r0, #1
	bl	ps_udelay
.LVL366:
.LBE1190:
.LBE1189:
.LBE1124:
.LBE1123:
	.loc 1 202 0
	mvn	r0, #0
	b	.L115
.L187:
	.align	2
.L186:
	.word	.LANCHOR0+68
	.word	.LANCHOR0+80
	.cfi_endproc
.LFE54:
	.fnend
	.size	i2c_bb_start_read, .-i2c_bb_start_read
	.align	2
	.global	i2c_bb_init
	.syntax unified
	.arm
	.type	i2c_bb_init, %function
i2c_bb_init:
	.fnstart
.LFB59:
	.loc 1 276 0
	.cfi_startproc
	@ args = 4, pretend = 0, frame = 0
	@ frame_needed = 0, uses_anonymous_args = 0
.LVL367:
	push	{r4, r5, r6, r7, r8, lr}
	.save {r4, r5, r6, r7, r8, lr}
	.cfi_def_cfa_offset 24
	.cfi_offset 4, -24
	.cfi_offset 5, -20
	.cfi_offset 6, -16
	.cfi_offset 7, -12
	.cfi_offset 8, -8
	.cfi_offset 14, -4
	.loc 1 280 0
	movw	r8, #34464
	.loc 1 276 0
	ldr	ip, [sp, #24]
	.loc 1 280 0
	movt	r8, 1
	.loc 1 283 0
	movw	r7, #:lower16:i2c_bb_start_read
	.loc 1 284 0
	movw	r6, #:lower16:i2c_bb_start_write
	.loc 1 278 0
	str	r1, [r3]
	.loc 1 285 0
	movw	r5, #:lower16:i2c_bb_read
	.loc 1 279 0
	str	r2, [r3, #4]
	.loc 1 286 0
	movw	r4, #:lower16:i2c_bb_write
	.loc 1 281 0
	str	r0, [r3, #12]
	.loc 1 287 0
	movw	lr, #:lower16:i2c_bb_set_speed
	.loc 1 280 0
	str	r8, [r3, #8]
	.loc 1 288 0
	movw	r1, #:lower16:i2c_bb_set_address
.LVL368:
	.loc 1 291 0
	str	r3, [ip, #52]
	.loc 1 289 0
	movw	r2, #:lower16:i2c_bb_master_stop
.LVL369:
	.loc 1 290 0
	movw	r3, #:lower16:i2c_bb_handle_irq
.LVL370:
	.loc 1 283 0
	movt	r7, #:upper16:i2c_bb_start_read
	.loc 1 284 0
	movt	r6, #:upper16:i2c_bb_start_write
	.loc 1 285 0
	movt	r5, #:upper16:i2c_bb_read
	.loc 1 286 0
	movt	r4, #:upper16:i2c_bb_write
	.loc 1 287 0
	movt	lr, #:upper16:i2c_bb_set_speed
	.loc 1 288 0
	movt	r1, #:upper16:i2c_bb_set_address
	.loc 1 289 0
	movt	r2, #:upper16:i2c_bb_master_stop
	.loc 1 290 0
	movt	r3, #:upper16:i2c_bb_handle_irq
	.loc 1 283 0
	str	r7, [ip]
	.loc 1 284 0
	str	r6, [ip, #4]
	.loc 1 294 0
	mov	r0, #0
.LVL371:
	.loc 1 285 0
	str	r5, [ip, #8]
	.loc 1 286 0
	str	r4, [ip, #12]
	.loc 1 287 0
	str	lr, [ip, #16]
	.loc 1 288 0
	str	r1, [ip, #24]
	.loc 1 289 0
	str	r2, [ip, #20]
	.loc 1 290 0
	str	r3, [ip, #32]
	.loc 1 294 0
	pop	{r4, r5, r6, r7, r8, pc}
	.cfi_endproc
.LFE59:
	.fnend
	.size	i2c_bb_init, .-i2c_bb_init
	.section	.rodata
	.align	2
	.set	.LANCHOR0,. + 0
	.type	__func__.5437, %object
	.size	__func__.5437, 19
__func__.5437:
	.ascii	"i2c_bb_master_stop\000"
	.space	1
	.type	__func__.5479, %object
	.size	__func__.5479, 19
__func__.5479:
	.ascii	"i2c_bb_set_address\000"
	.space	1
	.type	__func__.5433, %object
	.size	__func__.5433, 13
__func__.5433:
	.ascii	"i2c_bb_write\000"
	.space	3
	.type	__func__.5425, %object
	.size	__func__.5425, 12
__func__.5425:
	.ascii	"i2c_bb_read\000"
	.type	__func__.4988, %object
	.size	__func__.4988, 9
__func__.4988:
	.ascii	"gpio_get\000"
	.space	3
	.type	__func__.4982, %object
	.size	__func__.4982, 9
__func__.4982:
	.ascii	"gpio_clr\000"
	.section	.rodata.str1.4,"aMS",%progbits,1
	.align	2
.LC0:
	.ascii	"/home/mint/seL4/dhs-demo-feb-2018/libs/libplatsuppo"
	.ascii	"rt/src/arch/arm/i2c_bitbang.c\000"
	.space	3
.LC1:
	.ascii	"!\"Not implemented\\n\"\000"
	.space	3
.LC2:
	.ascii	"!\"Not implemented\"\000"
	.space	1
.LC3:
	.ascii	"/home/mint/seL4/dhs-demo-feb-2018/stage/arm/imx6/in"
	.ascii	"clude/platsupport/gpio.h\000"
.LC4:
	.ascii	"gpio->gpio_sys\000"
	.text
.Letext0:
	.file 3 "/home/mint/seL4/dhs-demo-feb-2018/stage/arm/imx6/include/bits/alltypes.h"
	.file 4 "/home/mint/seL4/dhs-demo-feb-2018/stage/arm/imx6/include/platsupport/i2c.h"
	.file 5 "/home/mint/seL4/dhs-demo-feb-2018/stage/arm/imx6/include/assert.h"
	.file 6 "/home/mint/seL4/dhs-demo-feb-2018/stage/arm/imx6/include/platsupport/delay.h"
	.section	.note.GNU-stack,"",%progbits
