	.cpu cortex-a9
	.fpu softvfp
	.eabi_attribute 20, 1
	.eabi_attribute 21, 1
	.eabi_attribute 23, 3
	.eabi_attribute 24, 1
	.eabi_attribute 25, 1
	.eabi_attribute 26, 2
	.eabi_attribute 30, 2
	.eabi_attribute 34, 1
	.eabi_attribute 18, 4
	.file	"mux.c"
	.text
.Ltext0:
	.cfi_sections	.debug_frame
	.align	2
	.syntax unified
	.arm
	.type	imx6_mux_feature_enable, %function
imx6_mux_feature_enable:
	.fnstart
.LFB28:
	.file 1 "/home/mint/seL4/dhs-demo-feb-2018/libs/libplatsupport/src/plat/imx6/mux.c"
	.loc 1 658 0
	.cfi_startproc
	@ args = 0, pretend = 0, frame = 0
	@ frame_needed = 0, uses_anonymous_args = 0
.LVL0:
	.loc 1 660 0
	cmp	r0, #0
	beq	.L9
	.loc 1 658 0 discriminator 1
	push	{r4, r5, r6, lr}
	.save {r4, r5, r6, lr}
	.cfi_def_cfa_offset 16
	.cfi_offset 4, -16
	.cfi_offset 5, -12
	.cfi_offset 6, -8
	.cfi_offset 14, -4
	.loc 1 660 0 discriminator 1
	ldr	r5, [r0, #4]
	cmp	r5, #0
	beq	.L11
	.loc 1 665 0
	ldr	r3, [r5]
	movw	r2, #2380
	mov	r4, r1
.LVL1:
	add	r3, r3, r2
	ubfx	r3, r3, #0, #12
	cmp	r3, r2
	beq	.L3
	.loc 1 665 0 is_stmt 0 discriminator 1
	movw	r3, #:lower16:.LANCHOR0
	movw	r1, #:lower16:.LC0
.LVL2:
	movw	r0, #:lower16:.LC1
.LVL3:
	movt	r3, #:upper16:.LANCHOR0
	movt	r1, #:upper16:.LC0
	movt	r0, #:upper16:.LC1
	movw	r2, #665
	bl	__assert_fail
.LVL4:
.L3:
	.loc 1 666 0 is_stmt 1
	cmp	r4, #3
	ldrls	pc, [pc, r4, asl #2]
	b	.L11
.L5:
	.word	.L4
	.word	.L6
	.word	.L7
	.word	.L8
.L8:
	.loc 1 696 0
	ldr	r2, [r5]
	mov	r3, #0
	.loc 1 697 0
	mov	r0, r3
	.loc 1 696 0
	str	r3, [r2, #544]
	.loc 1 697 0
	pop	{r4, r5, r6, pc}
.L4:
	.loc 1 669 0
	ldr	r3, [r5]
	mov	r2, #0
	.loc 1 670 0
	mov	ip, #22
	.loc 1 673 0
	mov	r1, #17
	.loc 1 675 0
	mov	r0, r2
	.loc 1 669 0
	str	r2, [r3, #2200]
	.loc 1 670 0
	str	ip, [r3, #164]
	.loc 1 672 0
	str	r2, [r3, #2204]
	.loc 1 673 0
	str	r1, [r3, #196]
	.loc 1 675 0
	pop	{r4, r5, r6, pc}
.L6:
	.loc 1 678 0
	ldr	r3, [r5]
	mov	r1, #1
	.loc 1 679 0
	mov	r2, #20
	.loc 1 684 0
	mov	r0, #0
	.loc 1 678 0
	str	r1, [r3, #2208]
	.loc 1 679 0
	str	r2, [r3, #528]
	.loc 1 681 0
	str	r1, [r3, #2212]
	.loc 1 682 0
	str	r2, [r3, #532]
	.loc 1 684 0
	pop	{r4, r5, r6, pc}
.L7:
	.loc 1 687 0
	ldr	r3, [r5]
	mov	r1, #2
	.loc 1 688 0
	mov	r2, #22
	.loc 1 693 0
	mov	r0, #0
	.loc 1 687 0
	str	r1, [r3, #2216]
	.loc 1 688 0
	str	r2, [r3, #572]
	.loc 1 690 0
	str	r1, [r3, #2220]
	.loc 1 691 0
	str	r2, [r3, #584]
	.loc 1 693 0
	pop	{r4, r5, r6, pc}
.LVL5:
.L9:
	.cfi_def_cfa_offset 0
	.cfi_restore 4
	.cfi_restore 5
	.cfi_restore 6
	.cfi_restore 14
	.loc 1 661 0
	mvn	r0, #0
.LVL6:
	.loc 1 701 0
	bx	lr
.LVL7:
.L11:
	.cfi_def_cfa_offset 16
	.cfi_offset 4, -16
	.cfi_offset 5, -12
	.cfi_offset 6, -8
	.cfi_offset 14, -4
	.loc 1 699 0
	mvn	r0, #0
	.loc 1 701 0
	pop	{r4, r5, r6, pc}
	.cfi_endproc
.LFE28:
	.fnend
	.size	imx6_mux_feature_enable, .-imx6_mux_feature_enable
	.align	2
	.global	imx6_mux_enable_gpio
	.syntax unified
	.arm
	.type	imx6_mux_enable_gpio, %function
imx6_mux_enable_gpio:
	.fnstart
.LFB29:
	.loc 1 705 0
	.cfi_startproc
	@ args = 0, pretend = 0, frame = 0
	@ frame_needed = 0, uses_anonymous_args = 0
.LVL8:
	push	{r4, r5, r6, lr}
	.save {r4, r5, r6, lr}
	.cfi_def_cfa_offset 16
	.cfi_offset 4, -16
	.cfi_offset 5, -12
	.cfi_offset 6, -8
	.cfi_offset 14, -4
	.loc 1 708 0
	subs	r4, r0, #0
	.loc 1 705 0
	mov	r5, r1
	.loc 1 708 0
	beq	.L44
.LVL9:
.L15:
	.loc 1 709 0
	ldr	r3, [r4, #4]
	movw	r4, #:lower16:.LANCHOR1
.LVL10:
	movt	r4, #:upper16:.LANCHOR1
	.loc 1 710 0
	cmp	r3, #0
	.loc 1 709 0
	str	r3, [r4]
	.loc 1 710 0
	beq	.L45
.L16:
	.loc 1 712 0
	cmp	r5, #205
	ldrls	pc, [pc, r5, asl #2]
	b	.L42
.L19:
	.word	.L18
	.word	.L20
	.word	.L21
	.word	.L22
	.word	.L23
	.word	.L24
	.word	.L25
	.word	.L26
	.word	.L27
	.word	.L28
	.word	.L42
	.word	.L42
	.word	.L42
	.word	.L42
	.word	.L42
	.word	.L42
	.word	.L42
	.word	.L42
	.word	.L42
	.word	.L42
	.word	.L42
	.word	.L42
	.word	.L42
	.word	.L42
	.word	.L42
	.word	.L42
	.word	.L42
	.word	.L42
	.word	.L42
	.word	.L42
	.word	.L42
	.word	.L42
	.word	.L29
	.word	.L30
	.word	.L31
	.word	.L32
	.word	.L33
	.word	.L34
	.word	.L35
	.word	.L36
	.word	.L42
	.word	.L42
	.word	.L42
	.word	.L42
	.word	.L42
	.word	.L42
	.word	.L42
	.word	.L42
	.word	.L42
	.word	.L42
	.word	.L42
	.word	.L42
	.word	.L42
	.word	.L42
	.word	.L42
	.word	.L42
	.word	.L42
	.word	.L42
	.word	.L42
	.word	.L42
	.word	.L42
	.word	.L42
	.word	.L42
	.word	.L42
	.word	.L42
	.word	.L42
	.word	.L42
	.word	.L42
	.word	.L42
	.word	.L42
	.word	.L42
	.word	.L42
	.word	.L42
	.word	.L42
	.word	.L42
	.word	.L42
	.word	.L42
	.word	.L42
	.word	.L42
	.word	.L42
	.word	.L42
	.word	.L42
	.word	.L42
	.word	.L42
	.word	.L42
	.word	.L42
	.word	.L42
	.word	.L42
	.word	.L42
	.word	.L42
	.word	.L42
	.word	.L42
	.word	.L42
	.word	.L42
	.word	.L42
	.word	.L42
	.word	.L42
	.word	.L42
	.word	.L42
	.word	.L42
	.word	.L42
	.word	.L37
	.word	.L42
	.word	.L42
	.word	.L42
	.word	.L42
	.word	.L42
	.word	.L42
	.word	.L42
	.word	.L42
	.word	.L42
	.word	.L42
	.word	.L42
	.word	.L42
	.word	.L42
	.word	.L42
	.word	.L42
	.word	.L42
	.word	.L42
	.word	.L42
	.word	.L42
	.word	.L42
	.word	.L42
	.word	.L42
	.word	.L42
	.word	.L42
	.word	.L42
	.word	.L42
	.word	.L42
	.word	.L42
	.word	.L42
	.word	.L42
	.word	.L42
	.word	.L42
	.word	.L42
	.word	.L42
	.word	.L42
	.word	.L42
	.word	.L42
	.word	.L42
	.word	.L42
	.word	.L42
	.word	.L42
	.word	.L42
	.word	.L42
	.word	.L42
	.word	.L42
	.word	.L42
	.word	.L42
	.word	.L42
	.word	.L42
	.word	.L42
	.word	.L42
	.word	.L42
	.word	.L42
	.word	.L42
	.word	.L42
	.word	.L42
	.word	.L42
	.word	.L42
	.word	.L42
	.word	.L42
	.word	.L42
	.word	.L42
	.word	.L42
	.word	.L42
	.word	.L42
	.word	.L42
	.word	.L42
	.word	.L42
	.word	.L42
	.word	.L42
	.word	.L42
	.word	.L42
	.word	.L42
	.word	.L42
	.word	.L42
	.word	.L42
	.word	.L42
	.word	.L42
	.word	.L42
	.word	.L42
	.word	.L42
	.word	.L42
	.word	.L42
	.word	.L42
	.word	.L42
	.word	.L42
	.word	.L42
	.word	.L42
	.word	.L42
	.word	.L42
	.word	.L42
	.word	.L42
	.word	.L42
	.word	.L42
	.word	.L42
	.word	.L42
	.word	.L42
	.word	.L42
	.word	.L42
	.word	.L42
	.word	.L42
	.word	.L38
	.word	.L39
	.word	.L40
.LVL11:
.L44:
	.loc 1 708 0 discriminator 1
	movw	r1, #:lower16:.LC0
.LVL12:
	movw	r0, #:lower16:.LC2
.LVL13:
	movt	r1, #:upper16:.LC0
	movt	r0, #:upper16:.LC2
	ldr	r3, .L46
	mov	r2, #708
	bl	__assert_fail
.LVL14:
	b	.L15
.LVL15:
.L45:
	.loc 1 710 0 discriminator 1
	movw	r1, #:lower16:.LC0
	movw	r0, #:lower16:.LC3
	movt	r1, #:upper16:.LC0
	movt	r0, #:upper16:.LC3
	ldr	r3, .L46
	movw	r2, #710
	bl	__assert_fail
.LVL16:
	b	.L16
.L40:
	.loc 1 752 0
	ldr	r3, [r4]
	ldr	r3, [r3]
	add	r3, r3, #592
.LVL17:
.L41:
	.loc 1 788 0
	mov	r2, #5
	.loc 1 789 0
	mov	r0, #0
	.loc 1 788 0
	str	r2, [r3]
	.loc 1 789 0
	pop	{r4, r5, r6, pc}
.LVL18:
.L39:
	.loc 1 749 0
	ldr	r3, [r4]
	ldr	r3, [r3]
	add	r3, r3, #588
.LVL19:
	.loc 1 750 0
	b	.L41
.LVL20:
.L38:
	.loc 1 746 0
	ldr	r3, [r4]
	ldr	r3, [r3]
	add	r3, r3, #584
.LVL21:
	.loc 1 747 0
	b	.L41
.LVL22:
.L37:
	.loc 1 756 0
	ldr	r3, [r4]
	ldr	r3, [r3]
	add	r3, r3, #596
.LVL23:
	.loc 1 757 0
	b	.L41
.LVL24:
.L36:
	.loc 1 781 0
	ldr	r3, [r4]
	ldr	r3, [r3]
	add	r3, r3, #792
.LVL25:
	.loc 1 782 0
	b	.L41
.LVL26:
.L35:
	.loc 1 778 0
	ldr	r3, [r4]
	ldr	r3, [r3]
	add	r3, r3, #788
.LVL27:
	.loc 1 779 0
	b	.L41
.LVL28:
.L34:
	.loc 1 775 0
	ldr	r3, [r4]
	ldr	r3, [r3]
	add	r3, r3, #784
.LVL29:
	.loc 1 776 0
	b	.L41
.LVL30:
.L33:
	.loc 1 772 0
	ldr	r3, [r4]
	ldr	r3, [r3]
	add	r3, r3, #780
.LVL31:
	.loc 1 773 0
	b	.L41
.LVL32:
.L32:
	.loc 1 769 0
	ldr	r3, [r4]
	ldr	r3, [r3]
	add	r3, r3, #776
.LVL33:
	.loc 1 770 0
	b	.L41
.LVL34:
.L31:
	.loc 1 766 0
	ldr	r3, [r4]
	ldr	r3, [r3]
	add	r3, r3, #772
.LVL35:
	.loc 1 767 0
	b	.L41
.LVL36:
.L30:
	.loc 1 763 0
	ldr	r3, [r4]
	ldr	r3, [r3]
	add	r3, r3, #768
.LVL37:
	.loc 1 764 0
	b	.L41
.LVL38:
.L29:
	.loc 1 760 0
	ldr	r3, [r4]
	ldr	r3, [r3]
	add	r3, r3, #764
.LVL39:
	.loc 1 761 0
	b	.L41
.LVL40:
.L28:
	.loc 1 742 0
	ldr	r3, [r4]
	ldr	r3, [r3]
	add	r3, r3, #552
.LVL41:
	.loc 1 743 0
	b	.L41
.LVL42:
.L27:
	.loc 1 739 0
	ldr	r3, [r4]
	ldr	r3, [r3]
	add	r3, r3, #580
.LVL43:
	.loc 1 740 0
	b	.L41
.LVL44:
.L26:
	.loc 1 736 0
	ldr	r3, [r4]
	ldr	r3, [r3]
	add	r3, r3, #576
.LVL45:
	.loc 1 737 0
	b	.L41
.LVL46:
.L25:
	.loc 1 733 0
	ldr	r3, [r4]
	ldr	r3, [r3]
	add	r3, r3, #560
.LVL47:
	.loc 1 734 0
	b	.L41
.LVL48:
.L24:
	.loc 1 730 0
	ldr	r3, [r4]
	ldr	r3, [r3]
	add	r3, r3, #572
.LVL49:
	.loc 1 731 0
	b	.L41
.LVL50:
.L23:
	.loc 1 727 0
	ldr	r3, [r4]
	ldr	r3, [r3]
	add	r3, r3, #568
.LVL51:
	.loc 1 728 0
	b	.L41
.LVL52:
.L22:
	.loc 1 724 0
	ldr	r3, [r4]
	ldr	r3, [r3]
	add	r3, r3, #556
.LVL53:
	.loc 1 725 0
	b	.L41
.LVL54:
.L21:
	.loc 1 721 0
	ldr	r3, [r4]
	ldr	r3, [r3]
	add	r3, r3, #564
.LVL55:
	.loc 1 722 0
	b	.L41
.LVL56:
.L20:
	.loc 1 718 0
	ldr	r3, [r4]
	ldr	r3, [r3]
	add	r3, r3, #548
.LVL57:
	.loc 1 719 0
	b	.L41
.LVL58:
.L18:
	.loc 1 715 0
	ldr	r3, [r4]
	ldr	r3, [r3]
	add	r3, r3, #544
.LVL59:
	.loc 1 716 0
	b	.L41
.LVL60:
.L42:
	.loc 1 786 0
	mvn	r0, #0
	.loc 1 790 0
	pop	{r4, r5, r6, pc}
.L47:
	.align	2
.L46:
	.word	.LANCHOR0+24
	.cfi_endproc
.LFE29:
	.fnend
	.size	imx6_mux_enable_gpio, .-imx6_mux_enable_gpio
	.align	2
	.global	imx6_mux_init
	.syntax unified
	.arm
	.type	imx6_mux_init, %function
imx6_mux_init:
	.fnstart
.LFB31:
	.loc 1 803 0
	.cfi_startproc
	@ args = 0, pretend = 0, frame = 0
	@ frame_needed = 0, uses_anonymous_args = 0
.LVL61:
	.loc 1 804 0
	cmp	r0, #0
	.loc 1 803 0
	push	{r4, lr}
	.save {r4, lr}
	.cfi_def_cfa_offset 8
	.cfi_offset 4, -8
	.cfi_offset 14, -4
	.loc 1 805 0
	movwne	r3, #:lower16:.LANCHOR1
	.loc 1 803 0
	mov	r4, r1
	.loc 1 805 0
	movtne	r3, #:upper16:.LANCHOR1
	strne	r0, [r3, #4]
.LVL62:
.LBB12:
.LBB13:
.LBB14:
.LBB15:
	.loc 1 650 0
	cmp	r1, #0
	beq	.L55
.LVL63:
.L50:
	.loc 1 652 0
	ldr	r2, .L56
.LBE15:
.LBE14:
	.loc 1 796 0
	movw	r3, #:lower16:imx6_mux_feature_enable
	movt	r3, #:upper16:imx6_mux_feature_enable
.LBE13:
.LBE12:
	.loc 1 808 0
	mov	r0, #0
.LBB22:
.LBB20:
	.loc 1 796 0
	str	r3, [r4]
.LBB18:
.LBB16:
	.loc 1 652 0
	str	r2, [r4, #4]
.LVL64:
.LBE16:
.LBE18:
.LBE20:
.LBE22:
	.loc 1 808 0
	pop	{r4, pc}
.LVL65:
.L55:
.LBB23:
.LBB21:
.LBB19:
.LBB17:
	.loc 1 650 0
	movw	r1, #:lower16:.LC0
.LVL66:
	movw	r0, #:lower16:.LC4
.LVL67:
	movt	r1, #:upper16:.LC0
	movt	r0, #:upper16:.LC4
	ldr	r3, .L56+4
	movw	r2, #650
	bl	__assert_fail
.LVL68:
	b	.L50
.L57:
	.align	2
.L56:
	.word	.LANCHOR1+4
	.word	.LANCHOR0+48
.LBE17:
.LBE19:
.LBE21:
.LBE23:
	.cfi_endproc
.LFE31:
	.fnend
	.size	imx6_mux_init, .-imx6_mux_init
	.align	2
	.global	mux_sys_init
	.syntax unified
	.arm
	.type	mux_sys_init, %function
mux_sys_init:
	.fnstart
.LFB32:
	.loc 1 813 0
	.cfi_startproc
	@ args = 0, pretend = 0, frame = 0
	@ frame_needed = 0, uses_anonymous_args = 0
.LVL69:
	push	{r4, r5, r6, r7, lr}
	.save {r4, r5, r6, r7, lr}
	.cfi_def_cfa_offset 20
	.cfi_offset 4, -20
	.cfi_offset 5, -16
	.cfi_offset 6, -12
	.cfi_offset 7, -8
	.cfi_offset 14, -4
	.loc 1 814 0
	movw	r4, #:lower16:.LANCHOR1
	movt	r4, #:upper16:.LANCHOR1
	.loc 1 813 0
	.pad #12
	sub	sp, sp, #12
	.cfi_def_cfa_offset 32
	.loc 1 813 0
	mov	r5, r1
	.loc 1 814 0
	ldr	r3, [r4, #4]
	cmp	r3, #0
	beq	.L64
.LVL70:
.L59:
.LBB30:
.LBB31:
.LBB32:
.LBB33:
	.loc 1 650 0
	cmp	r5, #0
	beq	.L65
.L62:
	.loc 1 652 0
	ldr	r2, .L68
.LBE33:
.LBE32:
	.loc 1 796 0
	movw	r3, #:lower16:imx6_mux_feature_enable
	movt	r3, #:upper16:imx6_mux_feature_enable
.LBE31:
.LBE30:
	.loc 1 816 0
	mov	r0, #0
.LBB40:
.LBB38:
	.loc 1 796 0
	str	r3, [r5]
.LBB36:
.LBB34:
	.loc 1 652 0
	str	r2, [r5, #4]
.LVL71:
.LBE34:
.LBE36:
.LBE38:
.LBE40:
	.loc 1 816 0
	add	sp, sp, #12
	.cfi_remember_state
	.cfi_def_cfa_offset 20
	@ sp needed
	pop	{r4, r5, r6, r7, pc}
.LVL72:
.L64:
	.cfi_restore_state
.LBB41:
.LBB42:
	.file 2 "/home/mint/seL4/dhs-demo-feb-2018/stage/arm/imx6/include/platsupport/io.h"
	.loc 2 70 0 discriminator 1
	cmp	r0, #0
	mov	r6, r0
.LVL73:
	beq	.L66
.LVL74:
.L60:
	.loc 2 71 0
	ldr	r7, [r6, #4]
	cmp	r7, #0
	beq	.L67
.L61:
	.loc 2 72 0
	mov	r3, #0
	ldr	r0, [r6]
	mov	r1, r3
	str	r3, [sp]
	movt	r1, 526
	mov	r2, #4096
	blx	r7
.LVL75:
.LBE42:
.LBE41:
	.loc 1 814 0
	str	r0, [r4, #4]
	b	.L59
.LVL76:
.L65:
.LBB44:
.LBB39:
.LBB37:
.LBB35:
	.loc 1 650 0
	movw	r1, #:lower16:.LC0
	movw	r0, #:lower16:.LC4
	movt	r1, #:upper16:.LC0
	movt	r0, #:upper16:.LC4
	ldr	r3, .L68+4
	movw	r2, #650
	bl	__assert_fail
.LVL77:
	b	.L62
.LVL78:
.L67:
.LBE35:
.LBE37:
.LBE39:
.LBE44:
.LBB45:
.LBB43:
	.loc 2 71 0
	movw	r1, #:lower16:.LC5
	movw	r0, #:lower16:.LC7
	movt	r1, #:upper16:.LC5
	movt	r0, #:upper16:.LC7
	ldr	r3, .L68+8
	mov	r2, #71
	bl	__assert_fail
.LVL79:
	ldr	r7, [r6, #4]
	b	.L61
.LVL80:
.L66:
	.loc 2 70 0
	movw	r1, #:lower16:.LC5
.LVL81:
	movw	r0, #:lower16:.LC6
.LVL82:
	movt	r1, #:upper16:.LC5
	movt	r0, #:upper16:.LC6
	ldr	r3, .L68+8
	mov	r2, #70
	bl	__assert_fail
.LVL83:
	b	.L60
.L69:
	.align	2
.L68:
	.word	.LANCHOR1+4
	.word	.LANCHOR0+48
	.word	.LANCHOR0+64
.LBE43:
.LBE45:
	.cfi_endproc
.LFE32:
	.fnend
	.size	mux_sys_init, .-mux_sys_init
	.section	.rodata
	.align	2
	.set	.LANCHOR0,. + 0
	.type	__func__.5755, %object
	.size	__func__.5755, 24
__func__.5755:
	.ascii	"imx6_mux_feature_enable\000"
	.type	__func__.5767, %object
	.size	__func__.5767, 21
__func__.5767:
	.ascii	"imx6_mux_enable_gpio\000"
	.space	3
	.type	__func__.5749, %object
	.size	__func__.5749, 13
__func__.5749:
	.ascii	"set_mux_priv\000"
	.space	3
	.type	__func__.4781, %object
	.size	__func__.4781, 10
__func__.4781:
	.ascii	"ps_io_map\000"
	.section	.rodata.str1.4,"aMS",%progbits,1
	.align	2
.LC0:
	.ascii	"/home/mint/seL4/dhs-demo-feb-2018/libs/libplatsuppo"
	.ascii	"rt/src/plat/imx6/mux.c\000"
	.space	2
.LC1:
	.ascii	"((int)&m->iomuxc->usdhc1_wp_on_select_input & 0xfff"
	.ascii	") == 0x94C\000"
	.space	2
.LC2:
	.ascii	"mux_sys\000"
.LC3:
	.ascii	"m\000"
	.space	2
.LC4:
	.ascii	"mux != NULL\000"
.LC5:
	.ascii	"/home/mint/seL4/dhs-demo-feb-2018/stage/arm/imx6/in"
	.ascii	"clude/platsupport/io.h\000"
	.space	2
.LC6:
	.ascii	"io_mapper\000"
	.space	2
.LC7:
	.ascii	"io_mapper->io_map_fn\000"
	.bss
	.align	2
	.set	.LANCHOR1,. + 0
	.type	m.5765, %object
	.size	m.5765, 4
m.5765:
	.space	4
	.type	_mux, %object
	.size	_mux, 4
_mux:
	.space	4
	.text
.Letext0:
	.file 3 "/home/mint/seL4/dhs-demo-feb-2018/stage/arm/imx6/include/bits/alltypes.h"
	.file 4 "/home/mint/seL4/dhs-demo-feb-2018/stage/arm/imx6/include/platsupport/mux.h"
	.file 5 "/home/mint/seL4/dhs-demo-feb-2018/stage/arm/imx6/include/platsupport/clock.h"
	.file 6 "/home/mint/seL4/dhs-demo-feb-2018/stage/arm/imx6/include/platsupport/plat/mux.h"
	.file 7 "/home/mint/seL4/dhs-demo-feb-2018/stage/arm/imx6/include/platsupport/plat/clock.h"
	.file 8 "/home/mint/seL4/dhs-demo-feb-2018/stage/arm/imx6/include/platsupport/plat/gpio.h"
	.file 9 "/home/mint/seL4/dhs-demo-feb-2018/stage/arm/imx6/include/assert.h"
	.section	.note.GNU-stack,"",%progbits
